ARM GAS  /tmp/ccHvg3ba.s 			page 1


   1              		.cpu cortex-m7
   2              		.eabi_attribute 28, 1
   3              		.eabi_attribute 20, 1
   4              		.eabi_attribute 21, 1
   5              		.eabi_attribute 23, 3
   6              		.eabi_attribute 24, 1
   7              		.eabi_attribute 25, 1
   8              		.eabi_attribute 26, 1
   9              		.eabi_attribute 30, 6
  10              		.eabi_attribute 34, 1
  11              		.eabi_attribute 18, 4
  12              		.file	"stm32h7xx_hal_i2c.c"
  13              		.text
  14              	.Ltext0:
  15              		.cfi_sections	.debug_frame
  16              		.section	.text.HAL_I2C_Init,"ax",%progbits
  17              		.align	1
  18              		.global	HAL_I2C_Init
  19              		.arch armv7e-m
  20              		.syntax unified
  21              		.thumb
  22              		.thumb_func
  23              		.fpu fpv5-d16
  25              	HAL_I2C_Init:
  26              	.LFB134:
  27              		.file 1 "./Drivers/STM32H7xx_HAL_Driver/Src/stm32h7xx_hal_i2c.c"
   1:./Drivers/STM32H7xx_HAL_Driver/Src/stm32h7xx_hal_i2c.c **** /**
   2:./Drivers/STM32H7xx_HAL_Driver/Src/stm32h7xx_hal_i2c.c ****   ******************************************************************************
   3:./Drivers/STM32H7xx_HAL_Driver/Src/stm32h7xx_hal_i2c.c ****   * @file    stm32h7xx_hal_i2c.c
   4:./Drivers/STM32H7xx_HAL_Driver/Src/stm32h7xx_hal_i2c.c ****   * @author  MCD Application Team
   5:./Drivers/STM32H7xx_HAL_Driver/Src/stm32h7xx_hal_i2c.c ****   * @brief   I2C HAL module driver.
   6:./Drivers/STM32H7xx_HAL_Driver/Src/stm32h7xx_hal_i2c.c ****   *          This file provides firmware functions to manage the following
   7:./Drivers/STM32H7xx_HAL_Driver/Src/stm32h7xx_hal_i2c.c ****   *          functionalities of the Inter Integrated Circuit (I2C) peripheral:
   8:./Drivers/STM32H7xx_HAL_Driver/Src/stm32h7xx_hal_i2c.c ****   *           + Initialization and de-initialization functions
   9:./Drivers/STM32H7xx_HAL_Driver/Src/stm32h7xx_hal_i2c.c ****   *           + IO operation functions
  10:./Drivers/STM32H7xx_HAL_Driver/Src/stm32h7xx_hal_i2c.c ****   *           + Peripheral State and Errors functions
  11:./Drivers/STM32H7xx_HAL_Driver/Src/stm32h7xx_hal_i2c.c ****   *
  12:./Drivers/STM32H7xx_HAL_Driver/Src/stm32h7xx_hal_i2c.c ****   @verbatim
  13:./Drivers/STM32H7xx_HAL_Driver/Src/stm32h7xx_hal_i2c.c ****   ==============================================================================
  14:./Drivers/STM32H7xx_HAL_Driver/Src/stm32h7xx_hal_i2c.c ****                         ##### How to use this driver #####
  15:./Drivers/STM32H7xx_HAL_Driver/Src/stm32h7xx_hal_i2c.c ****   ==============================================================================
  16:./Drivers/STM32H7xx_HAL_Driver/Src/stm32h7xx_hal_i2c.c ****     [..]
  17:./Drivers/STM32H7xx_HAL_Driver/Src/stm32h7xx_hal_i2c.c ****     The I2C HAL driver can be used as follows:
  18:./Drivers/STM32H7xx_HAL_Driver/Src/stm32h7xx_hal_i2c.c **** 
  19:./Drivers/STM32H7xx_HAL_Driver/Src/stm32h7xx_hal_i2c.c ****     (#) Declare a I2C_HandleTypeDef handle structure, for example:
  20:./Drivers/STM32H7xx_HAL_Driver/Src/stm32h7xx_hal_i2c.c ****         I2C_HandleTypeDef  hi2c;
  21:./Drivers/STM32H7xx_HAL_Driver/Src/stm32h7xx_hal_i2c.c **** 
  22:./Drivers/STM32H7xx_HAL_Driver/Src/stm32h7xx_hal_i2c.c ****     (#)Initialize the I2C low level resources by implementing the @ref HAL_I2C_MspInit() API:
  23:./Drivers/STM32H7xx_HAL_Driver/Src/stm32h7xx_hal_i2c.c ****         (##) Enable the I2Cx interface clock
  24:./Drivers/STM32H7xx_HAL_Driver/Src/stm32h7xx_hal_i2c.c ****         (##) I2C pins configuration
  25:./Drivers/STM32H7xx_HAL_Driver/Src/stm32h7xx_hal_i2c.c ****             (+++) Enable the clock for the I2C GPIOs
  26:./Drivers/STM32H7xx_HAL_Driver/Src/stm32h7xx_hal_i2c.c ****             (+++) Configure I2C pins as alternate function open-drain
  27:./Drivers/STM32H7xx_HAL_Driver/Src/stm32h7xx_hal_i2c.c ****         (##) NVIC configuration if you need to use interrupt process
  28:./Drivers/STM32H7xx_HAL_Driver/Src/stm32h7xx_hal_i2c.c ****             (+++) Configure the I2Cx interrupt priority
  29:./Drivers/STM32H7xx_HAL_Driver/Src/stm32h7xx_hal_i2c.c ****             (+++) Enable the NVIC I2C IRQ Channel
  30:./Drivers/STM32H7xx_HAL_Driver/Src/stm32h7xx_hal_i2c.c ****         (##) DMA Configuration if you need to use DMA process
  31:./Drivers/STM32H7xx_HAL_Driver/Src/stm32h7xx_hal_i2c.c ****             (+++) Declare a DMA_HandleTypeDef handle structure for the transmit or receive stream o
ARM GAS  /tmp/ccHvg3ba.s 			page 2


  32:./Drivers/STM32H7xx_HAL_Driver/Src/stm32h7xx_hal_i2c.c ****             (+++) Enable the DMAx interface clock using
  33:./Drivers/STM32H7xx_HAL_Driver/Src/stm32h7xx_hal_i2c.c ****             (+++) Configure the DMA handle parameters
  34:./Drivers/STM32H7xx_HAL_Driver/Src/stm32h7xx_hal_i2c.c ****             (+++) Configure the DMA Tx or Rx stream or channel depends on Instance
  35:./Drivers/STM32H7xx_HAL_Driver/Src/stm32h7xx_hal_i2c.c ****             (+++) Associate the initialized DMA handle to the hi2c DMA Tx or Rx handle
  36:./Drivers/STM32H7xx_HAL_Driver/Src/stm32h7xx_hal_i2c.c ****             (+++) Configure the priority and enable the NVIC for the transfer complete interrupt on
  37:./Drivers/STM32H7xx_HAL_Driver/Src/stm32h7xx_hal_i2c.c ****                   the DMA Tx or Rx stream or channel depends on Instance
  38:./Drivers/STM32H7xx_HAL_Driver/Src/stm32h7xx_hal_i2c.c **** 
  39:./Drivers/STM32H7xx_HAL_Driver/Src/stm32h7xx_hal_i2c.c ****     (#) Configure the Communication Clock Timing, Own Address1, Master Addressing mode, Dual Addres
  40:./Drivers/STM32H7xx_HAL_Driver/Src/stm32h7xx_hal_i2c.c ****         Own Address2, Own Address2 Mask, General call and Nostretch mode in the hi2c Init structure
  41:./Drivers/STM32H7xx_HAL_Driver/Src/stm32h7xx_hal_i2c.c **** 
  42:./Drivers/STM32H7xx_HAL_Driver/Src/stm32h7xx_hal_i2c.c ****     (#) Initialize the I2C registers by calling the @ref HAL_I2C_Init(), configures also the low le
  43:./Drivers/STM32H7xx_HAL_Driver/Src/stm32h7xx_hal_i2c.c ****         (GPIO, CLOCK, NVIC...etc) by calling the customized @ref HAL_I2C_MspInit(&hi2c) API.
  44:./Drivers/STM32H7xx_HAL_Driver/Src/stm32h7xx_hal_i2c.c **** 
  45:./Drivers/STM32H7xx_HAL_Driver/Src/stm32h7xx_hal_i2c.c ****     (#) To check if target device is ready for communication, use the function @ref HAL_I2C_IsDevic
  46:./Drivers/STM32H7xx_HAL_Driver/Src/stm32h7xx_hal_i2c.c **** 
  47:./Drivers/STM32H7xx_HAL_Driver/Src/stm32h7xx_hal_i2c.c ****     (#) For I2C IO and IO MEM operations, three operation modes are available within this driver :
  48:./Drivers/STM32H7xx_HAL_Driver/Src/stm32h7xx_hal_i2c.c **** 
  49:./Drivers/STM32H7xx_HAL_Driver/Src/stm32h7xx_hal_i2c.c ****     *** Polling mode IO operation ***
  50:./Drivers/STM32H7xx_HAL_Driver/Src/stm32h7xx_hal_i2c.c ****     =================================
  51:./Drivers/STM32H7xx_HAL_Driver/Src/stm32h7xx_hal_i2c.c ****     [..]
  52:./Drivers/STM32H7xx_HAL_Driver/Src/stm32h7xx_hal_i2c.c ****       (+) Transmit in master mode an amount of data in blocking mode using @ref HAL_I2C_Master_Tran
  53:./Drivers/STM32H7xx_HAL_Driver/Src/stm32h7xx_hal_i2c.c ****       (+) Receive in master mode an amount of data in blocking mode using @ref HAL_I2C_Master_Recei
  54:./Drivers/STM32H7xx_HAL_Driver/Src/stm32h7xx_hal_i2c.c ****       (+) Transmit in slave mode an amount of data in blocking mode using @ref HAL_I2C_Slave_Transm
  55:./Drivers/STM32H7xx_HAL_Driver/Src/stm32h7xx_hal_i2c.c ****       (+) Receive in slave mode an amount of data in blocking mode using @ref HAL_I2C_Slave_Receive
  56:./Drivers/STM32H7xx_HAL_Driver/Src/stm32h7xx_hal_i2c.c **** 
  57:./Drivers/STM32H7xx_HAL_Driver/Src/stm32h7xx_hal_i2c.c ****     *** Polling mode IO MEM operation ***
  58:./Drivers/STM32H7xx_HAL_Driver/Src/stm32h7xx_hal_i2c.c ****     =====================================
  59:./Drivers/STM32H7xx_HAL_Driver/Src/stm32h7xx_hal_i2c.c ****     [..]
  60:./Drivers/STM32H7xx_HAL_Driver/Src/stm32h7xx_hal_i2c.c ****       (+) Write an amount of data in blocking mode to a specific memory address using @ref HAL_I2C_
  61:./Drivers/STM32H7xx_HAL_Driver/Src/stm32h7xx_hal_i2c.c ****       (+) Read an amount of data in blocking mode from a specific memory address using @ref HAL_I2C
  62:./Drivers/STM32H7xx_HAL_Driver/Src/stm32h7xx_hal_i2c.c **** 
  63:./Drivers/STM32H7xx_HAL_Driver/Src/stm32h7xx_hal_i2c.c **** 
  64:./Drivers/STM32H7xx_HAL_Driver/Src/stm32h7xx_hal_i2c.c ****     *** Interrupt mode IO operation ***
  65:./Drivers/STM32H7xx_HAL_Driver/Src/stm32h7xx_hal_i2c.c ****     ===================================
  66:./Drivers/STM32H7xx_HAL_Driver/Src/stm32h7xx_hal_i2c.c ****     [..]
  67:./Drivers/STM32H7xx_HAL_Driver/Src/stm32h7xx_hal_i2c.c ****       (+) Transmit in master mode an amount of data in non-blocking mode using @ref HAL_I2C_Master_
  68:./Drivers/STM32H7xx_HAL_Driver/Src/stm32h7xx_hal_i2c.c ****       (+) At transmission end of transfer, @ref HAL_I2C_MasterTxCpltCallback() is executed and user
  69:./Drivers/STM32H7xx_HAL_Driver/Src/stm32h7xx_hal_i2c.c ****            add his own code by customization of function pointer @ref HAL_I2C_MasterTxCpltCallback(
  70:./Drivers/STM32H7xx_HAL_Driver/Src/stm32h7xx_hal_i2c.c ****       (+) Receive in master mode an amount of data in non-blocking mode using @ref HAL_I2C_Master_R
  71:./Drivers/STM32H7xx_HAL_Driver/Src/stm32h7xx_hal_i2c.c ****       (+) At reception end of transfer, @ref HAL_I2C_MasterRxCpltCallback() is executed and user ca
  72:./Drivers/STM32H7xx_HAL_Driver/Src/stm32h7xx_hal_i2c.c ****            add his own code by customization of function pointer @ref HAL_I2C_MasterRxCpltCallback(
  73:./Drivers/STM32H7xx_HAL_Driver/Src/stm32h7xx_hal_i2c.c ****       (+) Transmit in slave mode an amount of data in non-blocking mode using @ref HAL_I2C_Slave_Tr
  74:./Drivers/STM32H7xx_HAL_Driver/Src/stm32h7xx_hal_i2c.c ****       (+) At transmission end of transfer, @ref HAL_I2C_SlaveTxCpltCallback() is executed and user 
  75:./Drivers/STM32H7xx_HAL_Driver/Src/stm32h7xx_hal_i2c.c ****            add his own code by customization of function pointer @ref HAL_I2C_SlaveTxCpltCallback()
  76:./Drivers/STM32H7xx_HAL_Driver/Src/stm32h7xx_hal_i2c.c ****       (+) Receive in slave mode an amount of data in non-blocking mode using @ref HAL_I2C_Slave_Rec
  77:./Drivers/STM32H7xx_HAL_Driver/Src/stm32h7xx_hal_i2c.c ****       (+) At reception end of transfer, @ref HAL_I2C_SlaveRxCpltCallback() is executed and user can
  78:./Drivers/STM32H7xx_HAL_Driver/Src/stm32h7xx_hal_i2c.c ****            add his own code by customization of function pointer @ref HAL_I2C_SlaveRxCpltCallback()
  79:./Drivers/STM32H7xx_HAL_Driver/Src/stm32h7xx_hal_i2c.c ****       (+) In case of transfer Error, @ref HAL_I2C_ErrorCallback() function is executed and user can
  80:./Drivers/STM32H7xx_HAL_Driver/Src/stm32h7xx_hal_i2c.c ****            add his own code by customization of function pointer @ref HAL_I2C_ErrorCallback()
  81:./Drivers/STM32H7xx_HAL_Driver/Src/stm32h7xx_hal_i2c.c ****       (+) Abort a master I2C process communication with Interrupt using @ref HAL_I2C_Master_Abort_I
  82:./Drivers/STM32H7xx_HAL_Driver/Src/stm32h7xx_hal_i2c.c ****       (+) End of abort process, @ref HAL_I2C_AbortCpltCallback() is executed and user can
  83:./Drivers/STM32H7xx_HAL_Driver/Src/stm32h7xx_hal_i2c.c ****            add his own code by customization of function pointer @ref HAL_I2C_AbortCpltCallback()
  84:./Drivers/STM32H7xx_HAL_Driver/Src/stm32h7xx_hal_i2c.c ****       (+) Discard a slave I2C process communication using @ref __HAL_I2C_GENERATE_NACK() macro.
  85:./Drivers/STM32H7xx_HAL_Driver/Src/stm32h7xx_hal_i2c.c ****            This action will inform Master to generate a Stop condition to discard the communication
  86:./Drivers/STM32H7xx_HAL_Driver/Src/stm32h7xx_hal_i2c.c **** 
  87:./Drivers/STM32H7xx_HAL_Driver/Src/stm32h7xx_hal_i2c.c **** 
  88:./Drivers/STM32H7xx_HAL_Driver/Src/stm32h7xx_hal_i2c.c ****     *** Interrupt mode or DMA mode IO sequential operation ***
ARM GAS  /tmp/ccHvg3ba.s 			page 3


  89:./Drivers/STM32H7xx_HAL_Driver/Src/stm32h7xx_hal_i2c.c ****     ==========================================================
  90:./Drivers/STM32H7xx_HAL_Driver/Src/stm32h7xx_hal_i2c.c ****     [..]
  91:./Drivers/STM32H7xx_HAL_Driver/Src/stm32h7xx_hal_i2c.c ****       (@) These interfaces allow to manage a sequential transfer with a repeated start condition
  92:./Drivers/STM32H7xx_HAL_Driver/Src/stm32h7xx_hal_i2c.c ****           when a direction change during transfer
  93:./Drivers/STM32H7xx_HAL_Driver/Src/stm32h7xx_hal_i2c.c ****     [..]
  94:./Drivers/STM32H7xx_HAL_Driver/Src/stm32h7xx_hal_i2c.c ****       (+) A specific option field manage the different steps of a sequential transfer
  95:./Drivers/STM32H7xx_HAL_Driver/Src/stm32h7xx_hal_i2c.c ****       (+) Option field values are defined through @ref I2C_XFEROPTIONS and are listed below:
  96:./Drivers/STM32H7xx_HAL_Driver/Src/stm32h7xx_hal_i2c.c ****       (++) I2C_FIRST_AND_LAST_FRAME: No sequential usage, functionnal is same as associated interfa
  97:./Drivers/STM32H7xx_HAL_Driver/Src/stm32h7xx_hal_i2c.c ****       (++) I2C_FIRST_FRAME: Sequential usage, this option allow to manage a sequence with start con
  98:./Drivers/STM32H7xx_HAL_Driver/Src/stm32h7xx_hal_i2c.c ****                             and data to transfer without a final stop condition
  99:./Drivers/STM32H7xx_HAL_Driver/Src/stm32h7xx_hal_i2c.c ****       (++) I2C_FIRST_AND_NEXT_FRAME: Sequential usage (Master only), this option allow to manage a 
 100:./Drivers/STM32H7xx_HAL_Driver/Src/stm32h7xx_hal_i2c.c ****                             and data to transfer without a final stop condition, an then permit a c
 101:./Drivers/STM32H7xx_HAL_Driver/Src/stm32h7xx_hal_i2c.c ****                             several times (like @ref HAL_I2C_Master_Seq_Transmit_IT() then @ref HAL
 102:./Drivers/STM32H7xx_HAL_Driver/Src/stm32h7xx_hal_i2c.c ****                             or @ref HAL_I2C_Master_Seq_Transmit_DMA() then @ref HAL_I2C_Master_Seq_
 103:./Drivers/STM32H7xx_HAL_Driver/Src/stm32h7xx_hal_i2c.c ****       (++) I2C_NEXT_FRAME: Sequential usage, this option allow to manage a sequence with a restart 
 104:./Drivers/STM32H7xx_HAL_Driver/Src/stm32h7xx_hal_i2c.c ****                             and with new data to transfer if the direction change or manage only th
 105:./Drivers/STM32H7xx_HAL_Driver/Src/stm32h7xx_hal_i2c.c ****                             if no direction change and without a final stop condition in both cases
 106:./Drivers/STM32H7xx_HAL_Driver/Src/stm32h7xx_hal_i2c.c ****       (++) I2C_LAST_FRAME: Sequential usage, this option allow to manage a sequance with a restart 
 107:./Drivers/STM32H7xx_HAL_Driver/Src/stm32h7xx_hal_i2c.c ****                             and with new data to transfer if the direction change or manage only th
 108:./Drivers/STM32H7xx_HAL_Driver/Src/stm32h7xx_hal_i2c.c ****                             if no direction change and with a final stop condition in both cases
 109:./Drivers/STM32H7xx_HAL_Driver/Src/stm32h7xx_hal_i2c.c ****       (++) I2C_LAST_FRAME_NO_STOP: Sequential usage (Master only), this option allow to manage a re
 110:./Drivers/STM32H7xx_HAL_Driver/Src/stm32h7xx_hal_i2c.c ****                             interface several times (link with option I2C_FIRST_AND_NEXT_FRAME).
 111:./Drivers/STM32H7xx_HAL_Driver/Src/stm32h7xx_hal_i2c.c ****                             Usage can, transfer several bytes one by one using HAL_I2C_Master_Seq_T
 112:./Drivers/STM32H7xx_HAL_Driver/Src/stm32h7xx_hal_i2c.c ****                               or HAL_I2C_Master_Seq_Receive_IT(option I2C_FIRST_AND_NEXT_FRAME then
 113:./Drivers/STM32H7xx_HAL_Driver/Src/stm32h7xx_hal_i2c.c ****                               or HAL_I2C_Master_Seq_Transmit_DMA(option I2C_FIRST_AND_NEXT_FRAME th
 114:./Drivers/STM32H7xx_HAL_Driver/Src/stm32h7xx_hal_i2c.c ****                               or HAL_I2C_Master_Seq_Receive_DMA(option I2C_FIRST_AND_NEXT_FRAME the
 115:./Drivers/STM32H7xx_HAL_Driver/Src/stm32h7xx_hal_i2c.c ****                             Then usage of this option I2C_LAST_FRAME_NO_STOP at the last Transmit o
 116:./Drivers/STM32H7xx_HAL_Driver/Src/stm32h7xx_hal_i2c.c ****                               without stopping the communication and so generate a restart conditio
 117:./Drivers/STM32H7xx_HAL_Driver/Src/stm32h7xx_hal_i2c.c ****       (++) I2C_OTHER_FRAME: Sequential usage (Master only), this option allow to manage a restart c
 118:./Drivers/STM32H7xx_HAL_Driver/Src/stm32h7xx_hal_i2c.c ****                             interface.
 119:./Drivers/STM32H7xx_HAL_Driver/Src/stm32h7xx_hal_i2c.c ****                             Usage can, transfer several bytes one by one with a restart with slave 
 120:./Drivers/STM32H7xx_HAL_Driver/Src/stm32h7xx_hal_i2c.c ****                               or HAL_I2C_Master_Seq_Receive_IT(option I2C_FIRST_FRAME then I2C_OTHE
 121:./Drivers/STM32H7xx_HAL_Driver/Src/stm32h7xx_hal_i2c.c ****                               or HAL_I2C_Master_Seq_Transmit_DMA(option I2C_FIRST_FRAME then I2C_OT
 122:./Drivers/STM32H7xx_HAL_Driver/Src/stm32h7xx_hal_i2c.c ****                               or HAL_I2C_Master_Seq_Receive_DMA(option I2C_FIRST_FRAME then I2C_OTH
 123:./Drivers/STM32H7xx_HAL_Driver/Src/stm32h7xx_hal_i2c.c ****                             Then usage of this option I2C_OTHER_AND_LAST_FRAME at the last frame to
 124:./Drivers/STM32H7xx_HAL_Driver/Src/stm32h7xx_hal_i2c.c **** 
 125:./Drivers/STM32H7xx_HAL_Driver/Src/stm32h7xx_hal_i2c.c ****       (+) Differents sequential I2C interfaces are listed below:
 126:./Drivers/STM32H7xx_HAL_Driver/Src/stm32h7xx_hal_i2c.c ****       (++) Sequential transmit in master I2C mode an amount of data in non-blocking mode using @ref
 127:./Drivers/STM32H7xx_HAL_Driver/Src/stm32h7xx_hal_i2c.c ****             or using @ref HAL_I2C_Master_Seq_Transmit_DMA()
 128:./Drivers/STM32H7xx_HAL_Driver/Src/stm32h7xx_hal_i2c.c ****       (+++) At transmission end of current frame transfer, @ref HAL_I2C_MasterTxCpltCallback() is e
 129:./Drivers/STM32H7xx_HAL_Driver/Src/stm32h7xx_hal_i2c.c ****            add his own code by customization of function pointer @ref HAL_I2C_MasterTxCpltCallback(
 130:./Drivers/STM32H7xx_HAL_Driver/Src/stm32h7xx_hal_i2c.c ****       (++) Sequential receive in master I2C mode an amount of data in non-blocking mode using @ref 
 131:./Drivers/STM32H7xx_HAL_Driver/Src/stm32h7xx_hal_i2c.c ****             or using @ref HAL_I2C_Master_Seq_Receive_DMA()
 132:./Drivers/STM32H7xx_HAL_Driver/Src/stm32h7xx_hal_i2c.c ****       (+++) At reception end of current frame transfer, @ref HAL_I2C_MasterRxCpltCallback() is exec
 133:./Drivers/STM32H7xx_HAL_Driver/Src/stm32h7xx_hal_i2c.c ****            add his own code by customization of function pointer @ref HAL_I2C_MasterRxCpltCallback(
 134:./Drivers/STM32H7xx_HAL_Driver/Src/stm32h7xx_hal_i2c.c ****       (++) Abort a master IT or DMA I2C process communication with Interrupt using @ref HAL_I2C_Mas
 135:./Drivers/STM32H7xx_HAL_Driver/Src/stm32h7xx_hal_i2c.c ****       (+++) End of abort process, @ref HAL_I2C_AbortCpltCallback() is executed and user can
 136:./Drivers/STM32H7xx_HAL_Driver/Src/stm32h7xx_hal_i2c.c ****            add his own code by customization of function pointer @ref HAL_I2C_AbortCpltCallback()
 137:./Drivers/STM32H7xx_HAL_Driver/Src/stm32h7xx_hal_i2c.c ****       (++) Enable/disable the Address listen mode in slave I2C mode using @ref HAL_I2C_EnableListen
 138:./Drivers/STM32H7xx_HAL_Driver/Src/stm32h7xx_hal_i2c.c ****       (+++) When address slave I2C match, @ref HAL_I2C_AddrCallback() is executed and user can
 139:./Drivers/STM32H7xx_HAL_Driver/Src/stm32h7xx_hal_i2c.c ****            add his own code to check the Address Match Code and the transmission direction request 
 140:./Drivers/STM32H7xx_HAL_Driver/Src/stm32h7xx_hal_i2c.c ****       (+++) At Listen mode end @ref HAL_I2C_ListenCpltCallback() is executed and user can
 141:./Drivers/STM32H7xx_HAL_Driver/Src/stm32h7xx_hal_i2c.c ****            add his own code by customization of function pointer @ref HAL_I2C_ListenCpltCallback()
 142:./Drivers/STM32H7xx_HAL_Driver/Src/stm32h7xx_hal_i2c.c ****       (++) Sequential transmit in slave I2C mode an amount of data in non-blocking mode using @ref 
 143:./Drivers/STM32H7xx_HAL_Driver/Src/stm32h7xx_hal_i2c.c ****             or using @ref HAL_I2C_Slave_Seq_Transmit_DMA()
 144:./Drivers/STM32H7xx_HAL_Driver/Src/stm32h7xx_hal_i2c.c ****       (+++) At transmission end of current frame transfer, @ref HAL_I2C_SlaveTxCpltCallback() is ex
 145:./Drivers/STM32H7xx_HAL_Driver/Src/stm32h7xx_hal_i2c.c ****            add his own code by customization of function pointer @ref HAL_I2C_SlaveTxCpltCallback()
ARM GAS  /tmp/ccHvg3ba.s 			page 4


 146:./Drivers/STM32H7xx_HAL_Driver/Src/stm32h7xx_hal_i2c.c ****       (++) Sequential receive in slave I2C mode an amount of data in non-blocking mode using @ref H
 147:./Drivers/STM32H7xx_HAL_Driver/Src/stm32h7xx_hal_i2c.c ****             or using @ref HAL_I2C_Slave_Seq_Receive_DMA()
 148:./Drivers/STM32H7xx_HAL_Driver/Src/stm32h7xx_hal_i2c.c ****       (+++) At reception end of current frame transfer, @ref HAL_I2C_SlaveRxCpltCallback() is execu
 149:./Drivers/STM32H7xx_HAL_Driver/Src/stm32h7xx_hal_i2c.c ****            add his own code by customization of function pointer @ref HAL_I2C_SlaveRxCpltCallback()
 150:./Drivers/STM32H7xx_HAL_Driver/Src/stm32h7xx_hal_i2c.c ****       (++) In case of transfer Error, @ref HAL_I2C_ErrorCallback() function is executed and user ca
 151:./Drivers/STM32H7xx_HAL_Driver/Src/stm32h7xx_hal_i2c.c ****            add his own code by customization of function pointer @ref HAL_I2C_ErrorCallback()
 152:./Drivers/STM32H7xx_HAL_Driver/Src/stm32h7xx_hal_i2c.c ****       (++) Discard a slave I2C process communication using @ref __HAL_I2C_GENERATE_NACK() macro.
 153:./Drivers/STM32H7xx_HAL_Driver/Src/stm32h7xx_hal_i2c.c ****            This action will inform Master to generate a Stop condition to discard the communication
 154:./Drivers/STM32H7xx_HAL_Driver/Src/stm32h7xx_hal_i2c.c **** 
 155:./Drivers/STM32H7xx_HAL_Driver/Src/stm32h7xx_hal_i2c.c ****     *** Interrupt mode IO MEM operation ***
 156:./Drivers/STM32H7xx_HAL_Driver/Src/stm32h7xx_hal_i2c.c ****     =======================================
 157:./Drivers/STM32H7xx_HAL_Driver/Src/stm32h7xx_hal_i2c.c ****     [..]
 158:./Drivers/STM32H7xx_HAL_Driver/Src/stm32h7xx_hal_i2c.c ****       (+) Write an amount of data in non-blocking mode with Interrupt to a specific memory address 
 159:./Drivers/STM32H7xx_HAL_Driver/Src/stm32h7xx_hal_i2c.c ****           @ref HAL_I2C_Mem_Write_IT()
 160:./Drivers/STM32H7xx_HAL_Driver/Src/stm32h7xx_hal_i2c.c ****       (+) At Memory end of write transfer, @ref HAL_I2C_MemTxCpltCallback() is executed and user ca
 161:./Drivers/STM32H7xx_HAL_Driver/Src/stm32h7xx_hal_i2c.c ****            add his own code by customization of function pointer @ref HAL_I2C_MemTxCpltCallback()
 162:./Drivers/STM32H7xx_HAL_Driver/Src/stm32h7xx_hal_i2c.c ****       (+) Read an amount of data in non-blocking mode with Interrupt from a specific memory address
 163:./Drivers/STM32H7xx_HAL_Driver/Src/stm32h7xx_hal_i2c.c ****           @ref HAL_I2C_Mem_Read_IT()
 164:./Drivers/STM32H7xx_HAL_Driver/Src/stm32h7xx_hal_i2c.c ****       (+) At Memory end of read transfer, @ref HAL_I2C_MemRxCpltCallback() is executed and user can
 165:./Drivers/STM32H7xx_HAL_Driver/Src/stm32h7xx_hal_i2c.c ****            add his own code by customization of function pointer @ref HAL_I2C_MemRxCpltCallback()
 166:./Drivers/STM32H7xx_HAL_Driver/Src/stm32h7xx_hal_i2c.c ****       (+) In case of transfer Error, @ref HAL_I2C_ErrorCallback() function is executed and user can
 167:./Drivers/STM32H7xx_HAL_Driver/Src/stm32h7xx_hal_i2c.c ****            add his own code by customization of function pointer @ref HAL_I2C_ErrorCallback()
 168:./Drivers/STM32H7xx_HAL_Driver/Src/stm32h7xx_hal_i2c.c **** 
 169:./Drivers/STM32H7xx_HAL_Driver/Src/stm32h7xx_hal_i2c.c ****     *** DMA mode IO operation ***
 170:./Drivers/STM32H7xx_HAL_Driver/Src/stm32h7xx_hal_i2c.c ****     ==============================
 171:./Drivers/STM32H7xx_HAL_Driver/Src/stm32h7xx_hal_i2c.c ****     [..]
 172:./Drivers/STM32H7xx_HAL_Driver/Src/stm32h7xx_hal_i2c.c ****       (+) Transmit in master mode an amount of data in non-blocking mode (DMA) using
 173:./Drivers/STM32H7xx_HAL_Driver/Src/stm32h7xx_hal_i2c.c ****           @ref HAL_I2C_Master_Transmit_DMA()
 174:./Drivers/STM32H7xx_HAL_Driver/Src/stm32h7xx_hal_i2c.c ****       (+) At transmission end of transfer, @ref HAL_I2C_MasterTxCpltCallback() is executed and user
 175:./Drivers/STM32H7xx_HAL_Driver/Src/stm32h7xx_hal_i2c.c ****            add his own code by customization of function pointer @ref HAL_I2C_MasterTxCpltCallback(
 176:./Drivers/STM32H7xx_HAL_Driver/Src/stm32h7xx_hal_i2c.c ****       (+) Receive in master mode an amount of data in non-blocking mode (DMA) using
 177:./Drivers/STM32H7xx_HAL_Driver/Src/stm32h7xx_hal_i2c.c ****           @ref HAL_I2C_Master_Receive_DMA()
 178:./Drivers/STM32H7xx_HAL_Driver/Src/stm32h7xx_hal_i2c.c ****       (+) At reception end of transfer, @ref HAL_I2C_MasterRxCpltCallback() is executed and user ca
 179:./Drivers/STM32H7xx_HAL_Driver/Src/stm32h7xx_hal_i2c.c ****            add his own code by customization of function pointer @ref HAL_I2C_MasterRxCpltCallback(
 180:./Drivers/STM32H7xx_HAL_Driver/Src/stm32h7xx_hal_i2c.c ****       (+) Transmit in slave mode an amount of data in non-blocking mode (DMA) using
 181:./Drivers/STM32H7xx_HAL_Driver/Src/stm32h7xx_hal_i2c.c ****           @ref HAL_I2C_Slave_Transmit_DMA()
 182:./Drivers/STM32H7xx_HAL_Driver/Src/stm32h7xx_hal_i2c.c ****       (+) At transmission end of transfer, @ref HAL_I2C_SlaveTxCpltCallback() is executed and user 
 183:./Drivers/STM32H7xx_HAL_Driver/Src/stm32h7xx_hal_i2c.c ****            add his own code by customization of function pointer @ref HAL_I2C_SlaveTxCpltCallback()
 184:./Drivers/STM32H7xx_HAL_Driver/Src/stm32h7xx_hal_i2c.c ****       (+) Receive in slave mode an amount of data in non-blocking mode (DMA) using
 185:./Drivers/STM32H7xx_HAL_Driver/Src/stm32h7xx_hal_i2c.c ****           @ref HAL_I2C_Slave_Receive_DMA()
 186:./Drivers/STM32H7xx_HAL_Driver/Src/stm32h7xx_hal_i2c.c ****       (+) At reception end of transfer, @ref HAL_I2C_SlaveRxCpltCallback() is executed and user can
 187:./Drivers/STM32H7xx_HAL_Driver/Src/stm32h7xx_hal_i2c.c ****            add his own code by customization of function pointer @ref HAL_I2C_SlaveRxCpltCallback()
 188:./Drivers/STM32H7xx_HAL_Driver/Src/stm32h7xx_hal_i2c.c ****       (+) In case of transfer Error, @ref HAL_I2C_ErrorCallback() function is executed and user can
 189:./Drivers/STM32H7xx_HAL_Driver/Src/stm32h7xx_hal_i2c.c ****            add his own code by customization of function pointer @ref HAL_I2C_ErrorCallback()
 190:./Drivers/STM32H7xx_HAL_Driver/Src/stm32h7xx_hal_i2c.c ****       (+) Abort a master I2C process communication with Interrupt using @ref HAL_I2C_Master_Abort_I
 191:./Drivers/STM32H7xx_HAL_Driver/Src/stm32h7xx_hal_i2c.c ****       (+) End of abort process, @ref HAL_I2C_AbortCpltCallback() is executed and user can
 192:./Drivers/STM32H7xx_HAL_Driver/Src/stm32h7xx_hal_i2c.c ****            add his own code by customization of function pointer @ref HAL_I2C_AbortCpltCallback()
 193:./Drivers/STM32H7xx_HAL_Driver/Src/stm32h7xx_hal_i2c.c ****       (+) Discard a slave I2C process communication using @ref __HAL_I2C_GENERATE_NACK() macro.
 194:./Drivers/STM32H7xx_HAL_Driver/Src/stm32h7xx_hal_i2c.c ****            This action will inform Master to generate a Stop condition to discard the communication
 195:./Drivers/STM32H7xx_HAL_Driver/Src/stm32h7xx_hal_i2c.c **** 
 196:./Drivers/STM32H7xx_HAL_Driver/Src/stm32h7xx_hal_i2c.c ****     *** DMA mode IO MEM operation ***
 197:./Drivers/STM32H7xx_HAL_Driver/Src/stm32h7xx_hal_i2c.c ****     =================================
 198:./Drivers/STM32H7xx_HAL_Driver/Src/stm32h7xx_hal_i2c.c ****     [..]
 199:./Drivers/STM32H7xx_HAL_Driver/Src/stm32h7xx_hal_i2c.c ****       (+) Write an amount of data in non-blocking mode with DMA to a specific memory address using
 200:./Drivers/STM32H7xx_HAL_Driver/Src/stm32h7xx_hal_i2c.c ****           @ref HAL_I2C_Mem_Write_DMA()
 201:./Drivers/STM32H7xx_HAL_Driver/Src/stm32h7xx_hal_i2c.c ****       (+) At Memory end of write transfer, @ref HAL_I2C_MemTxCpltCallback() is executed and user ca
 202:./Drivers/STM32H7xx_HAL_Driver/Src/stm32h7xx_hal_i2c.c ****            add his own code by customization of function pointer @ref HAL_I2C_MemTxCpltCallback()
ARM GAS  /tmp/ccHvg3ba.s 			page 5


 203:./Drivers/STM32H7xx_HAL_Driver/Src/stm32h7xx_hal_i2c.c ****       (+) Read an amount of data in non-blocking mode with DMA from a specific memory address using
 204:./Drivers/STM32H7xx_HAL_Driver/Src/stm32h7xx_hal_i2c.c ****           @ref HAL_I2C_Mem_Read_DMA()
 205:./Drivers/STM32H7xx_HAL_Driver/Src/stm32h7xx_hal_i2c.c ****       (+) At Memory end of read transfer, @ref HAL_I2C_MemRxCpltCallback() is executed and user can
 206:./Drivers/STM32H7xx_HAL_Driver/Src/stm32h7xx_hal_i2c.c ****            add his own code by customization of function pointer @ref HAL_I2C_MemRxCpltCallback()
 207:./Drivers/STM32H7xx_HAL_Driver/Src/stm32h7xx_hal_i2c.c ****       (+) In case of transfer Error, @ref HAL_I2C_ErrorCallback() function is executed and user can
 208:./Drivers/STM32H7xx_HAL_Driver/Src/stm32h7xx_hal_i2c.c ****            add his own code by customization of function pointer @ref HAL_I2C_ErrorCallback()
 209:./Drivers/STM32H7xx_HAL_Driver/Src/stm32h7xx_hal_i2c.c **** 
 210:./Drivers/STM32H7xx_HAL_Driver/Src/stm32h7xx_hal_i2c.c **** 
 211:./Drivers/STM32H7xx_HAL_Driver/Src/stm32h7xx_hal_i2c.c ****      *** I2C HAL driver macros list ***
 212:./Drivers/STM32H7xx_HAL_Driver/Src/stm32h7xx_hal_i2c.c ****      ==================================
 213:./Drivers/STM32H7xx_HAL_Driver/Src/stm32h7xx_hal_i2c.c ****      [..]
 214:./Drivers/STM32H7xx_HAL_Driver/Src/stm32h7xx_hal_i2c.c ****        Below the list of most used macros in I2C HAL driver.
 215:./Drivers/STM32H7xx_HAL_Driver/Src/stm32h7xx_hal_i2c.c **** 
 216:./Drivers/STM32H7xx_HAL_Driver/Src/stm32h7xx_hal_i2c.c ****       (+) @ref __HAL_I2C_ENABLE: Enable the I2C peripheral
 217:./Drivers/STM32H7xx_HAL_Driver/Src/stm32h7xx_hal_i2c.c ****       (+) @ref __HAL_I2C_DISABLE: Disable the I2C peripheral
 218:./Drivers/STM32H7xx_HAL_Driver/Src/stm32h7xx_hal_i2c.c ****       (+) @ref __HAL_I2C_GENERATE_NACK: Generate a Non-Acknowledge I2C peripheral in Slave mode
 219:./Drivers/STM32H7xx_HAL_Driver/Src/stm32h7xx_hal_i2c.c ****       (+) @ref __HAL_I2C_GET_FLAG: Check whether the specified I2C flag is set or not
 220:./Drivers/STM32H7xx_HAL_Driver/Src/stm32h7xx_hal_i2c.c ****       (+) @ref __HAL_I2C_CLEAR_FLAG: Clear the specified I2C pending flag
 221:./Drivers/STM32H7xx_HAL_Driver/Src/stm32h7xx_hal_i2c.c ****       (+) @ref __HAL_I2C_ENABLE_IT: Enable the specified I2C interrupt
 222:./Drivers/STM32H7xx_HAL_Driver/Src/stm32h7xx_hal_i2c.c ****       (+) @ref __HAL_I2C_DISABLE_IT: Disable the specified I2C interrupt
 223:./Drivers/STM32H7xx_HAL_Driver/Src/stm32h7xx_hal_i2c.c **** 
 224:./Drivers/STM32H7xx_HAL_Driver/Src/stm32h7xx_hal_i2c.c ****      *** Callback registration ***
 225:./Drivers/STM32H7xx_HAL_Driver/Src/stm32h7xx_hal_i2c.c ****      =============================================
 226:./Drivers/STM32H7xx_HAL_Driver/Src/stm32h7xx_hal_i2c.c ****     [..]
 227:./Drivers/STM32H7xx_HAL_Driver/Src/stm32h7xx_hal_i2c.c ****      The compilation flag USE_HAL_I2C_REGISTER_CALLBACKS when set to 1
 228:./Drivers/STM32H7xx_HAL_Driver/Src/stm32h7xx_hal_i2c.c ****      allows the user to configure dynamically the driver callbacks.
 229:./Drivers/STM32H7xx_HAL_Driver/Src/stm32h7xx_hal_i2c.c ****      Use Functions @ref HAL_I2C_RegisterCallback() or @ref HAL_I2C_RegisterAddrCallback()
 230:./Drivers/STM32H7xx_HAL_Driver/Src/stm32h7xx_hal_i2c.c ****      to register an interrupt callback.
 231:./Drivers/STM32H7xx_HAL_Driver/Src/stm32h7xx_hal_i2c.c ****     [..]
 232:./Drivers/STM32H7xx_HAL_Driver/Src/stm32h7xx_hal_i2c.c ****      Function @ref HAL_I2C_RegisterCallback() allows to register following callbacks:
 233:./Drivers/STM32H7xx_HAL_Driver/Src/stm32h7xx_hal_i2c.c ****        (+) MasterTxCpltCallback : callback for Master transmission end of transfer.
 234:./Drivers/STM32H7xx_HAL_Driver/Src/stm32h7xx_hal_i2c.c ****        (+) MasterRxCpltCallback : callback for Master reception end of transfer.
 235:./Drivers/STM32H7xx_HAL_Driver/Src/stm32h7xx_hal_i2c.c ****        (+) SlaveTxCpltCallback  : callback for Slave transmission end of transfer.
 236:./Drivers/STM32H7xx_HAL_Driver/Src/stm32h7xx_hal_i2c.c ****        (+) SlaveRxCpltCallback  : callback for Slave reception end of transfer.
 237:./Drivers/STM32H7xx_HAL_Driver/Src/stm32h7xx_hal_i2c.c ****        (+) ListenCpltCallback   : callback for end of listen mode.
 238:./Drivers/STM32H7xx_HAL_Driver/Src/stm32h7xx_hal_i2c.c ****        (+) MemTxCpltCallback    : callback for Memory transmission end of transfer.
 239:./Drivers/STM32H7xx_HAL_Driver/Src/stm32h7xx_hal_i2c.c ****        (+) MemRxCpltCallback    : callback for Memory reception end of transfer.
 240:./Drivers/STM32H7xx_HAL_Driver/Src/stm32h7xx_hal_i2c.c ****        (+) ErrorCallback        : callback for error detection.
 241:./Drivers/STM32H7xx_HAL_Driver/Src/stm32h7xx_hal_i2c.c ****        (+) AbortCpltCallback    : callback for abort completion process.
 242:./Drivers/STM32H7xx_HAL_Driver/Src/stm32h7xx_hal_i2c.c ****        (+) MspInitCallback      : callback for Msp Init.
 243:./Drivers/STM32H7xx_HAL_Driver/Src/stm32h7xx_hal_i2c.c ****        (+) MspDeInitCallback    : callback for Msp DeInit.
 244:./Drivers/STM32H7xx_HAL_Driver/Src/stm32h7xx_hal_i2c.c ****      This function takes as parameters the HAL peripheral handle, the Callback ID
 245:./Drivers/STM32H7xx_HAL_Driver/Src/stm32h7xx_hal_i2c.c ****      and a pointer to the user callback function.
 246:./Drivers/STM32H7xx_HAL_Driver/Src/stm32h7xx_hal_i2c.c ****     [..]
 247:./Drivers/STM32H7xx_HAL_Driver/Src/stm32h7xx_hal_i2c.c ****      For specific callback AddrCallback use dedicated register callbacks : @ref HAL_I2C_RegisterAdd
 248:./Drivers/STM32H7xx_HAL_Driver/Src/stm32h7xx_hal_i2c.c ****     [..]
 249:./Drivers/STM32H7xx_HAL_Driver/Src/stm32h7xx_hal_i2c.c ****      Use function @ref HAL_I2C_UnRegisterCallback to reset a callback to the default
 250:./Drivers/STM32H7xx_HAL_Driver/Src/stm32h7xx_hal_i2c.c ****      weak function.
 251:./Drivers/STM32H7xx_HAL_Driver/Src/stm32h7xx_hal_i2c.c ****      @ref HAL_I2C_UnRegisterCallback takes as parameters the HAL peripheral handle,
 252:./Drivers/STM32H7xx_HAL_Driver/Src/stm32h7xx_hal_i2c.c ****      and the Callback ID.
 253:./Drivers/STM32H7xx_HAL_Driver/Src/stm32h7xx_hal_i2c.c ****      This function allows to reset following callbacks:
 254:./Drivers/STM32H7xx_HAL_Driver/Src/stm32h7xx_hal_i2c.c ****        (+) MasterTxCpltCallback : callback for Master transmission end of transfer.
 255:./Drivers/STM32H7xx_HAL_Driver/Src/stm32h7xx_hal_i2c.c ****        (+) MasterRxCpltCallback : callback for Master reception end of transfer.
 256:./Drivers/STM32H7xx_HAL_Driver/Src/stm32h7xx_hal_i2c.c ****        (+) SlaveTxCpltCallback  : callback for Slave transmission end of transfer.
 257:./Drivers/STM32H7xx_HAL_Driver/Src/stm32h7xx_hal_i2c.c ****        (+) SlaveRxCpltCallback  : callback for Slave reception end of transfer.
 258:./Drivers/STM32H7xx_HAL_Driver/Src/stm32h7xx_hal_i2c.c ****        (+) ListenCpltCallback   : callback for end of listen mode.
 259:./Drivers/STM32H7xx_HAL_Driver/Src/stm32h7xx_hal_i2c.c ****        (+) MemTxCpltCallback    : callback for Memory transmission end of transfer.
ARM GAS  /tmp/ccHvg3ba.s 			page 6


 260:./Drivers/STM32H7xx_HAL_Driver/Src/stm32h7xx_hal_i2c.c ****        (+) MemRxCpltCallback    : callback for Memory reception end of transfer.
 261:./Drivers/STM32H7xx_HAL_Driver/Src/stm32h7xx_hal_i2c.c ****        (+) ErrorCallback        : callback for error detection.
 262:./Drivers/STM32H7xx_HAL_Driver/Src/stm32h7xx_hal_i2c.c ****        (+) AbortCpltCallback    : callback for abort completion process.
 263:./Drivers/STM32H7xx_HAL_Driver/Src/stm32h7xx_hal_i2c.c ****        (+) MspInitCallback      : callback for Msp Init.
 264:./Drivers/STM32H7xx_HAL_Driver/Src/stm32h7xx_hal_i2c.c ****        (+) MspDeInitCallback    : callback for Msp DeInit.
 265:./Drivers/STM32H7xx_HAL_Driver/Src/stm32h7xx_hal_i2c.c ****     [..]
 266:./Drivers/STM32H7xx_HAL_Driver/Src/stm32h7xx_hal_i2c.c ****      For callback AddrCallback use dedicated register callbacks : @ref HAL_I2C_UnRegisterAddrCallba
 267:./Drivers/STM32H7xx_HAL_Driver/Src/stm32h7xx_hal_i2c.c ****     [..]
 268:./Drivers/STM32H7xx_HAL_Driver/Src/stm32h7xx_hal_i2c.c ****      By default, after the @ref HAL_I2C_Init() and when the state is @ref HAL_I2C_STATE_RESET
 269:./Drivers/STM32H7xx_HAL_Driver/Src/stm32h7xx_hal_i2c.c ****      all callbacks are set to the corresponding weak functions:
 270:./Drivers/STM32H7xx_HAL_Driver/Src/stm32h7xx_hal_i2c.c ****      examples @ref HAL_I2C_MasterTxCpltCallback(), @ref HAL_I2C_MasterRxCpltCallback().
 271:./Drivers/STM32H7xx_HAL_Driver/Src/stm32h7xx_hal_i2c.c ****      Exception done for MspInit and MspDeInit functions that are
 272:./Drivers/STM32H7xx_HAL_Driver/Src/stm32h7xx_hal_i2c.c ****      reset to the legacy weak functions in the @ref HAL_I2C_Init()/ @ref HAL_I2C_DeInit() only when
 273:./Drivers/STM32H7xx_HAL_Driver/Src/stm32h7xx_hal_i2c.c ****      these callbacks are null (not registered beforehand).
 274:./Drivers/STM32H7xx_HAL_Driver/Src/stm32h7xx_hal_i2c.c ****      If MspInit or MspDeInit are not null, the @ref HAL_I2C_Init()/ @ref HAL_I2C_DeInit()
 275:./Drivers/STM32H7xx_HAL_Driver/Src/stm32h7xx_hal_i2c.c ****      keep and use the user MspInit/MspDeInit callbacks (registered beforehand) whatever the state.
 276:./Drivers/STM32H7xx_HAL_Driver/Src/stm32h7xx_hal_i2c.c ****     [..]
 277:./Drivers/STM32H7xx_HAL_Driver/Src/stm32h7xx_hal_i2c.c ****      Callbacks can be registered/unregistered in @ref HAL_I2C_STATE_READY state only.
 278:./Drivers/STM32H7xx_HAL_Driver/Src/stm32h7xx_hal_i2c.c ****      Exception done MspInit/MspDeInit functions that can be registered/unregistered
 279:./Drivers/STM32H7xx_HAL_Driver/Src/stm32h7xx_hal_i2c.c ****      in @ref HAL_I2C_STATE_READY or @ref HAL_I2C_STATE_RESET state,
 280:./Drivers/STM32H7xx_HAL_Driver/Src/stm32h7xx_hal_i2c.c ****      thus registered (user) MspInit/DeInit callbacks can be used during the Init/DeInit.
 281:./Drivers/STM32H7xx_HAL_Driver/Src/stm32h7xx_hal_i2c.c ****      Then, the user first registers the MspInit/MspDeInit user callbacks
 282:./Drivers/STM32H7xx_HAL_Driver/Src/stm32h7xx_hal_i2c.c ****      using @ref HAL_I2C_RegisterCallback() before calling @ref HAL_I2C_DeInit()
 283:./Drivers/STM32H7xx_HAL_Driver/Src/stm32h7xx_hal_i2c.c ****      or @ref HAL_I2C_Init() function.
 284:./Drivers/STM32H7xx_HAL_Driver/Src/stm32h7xx_hal_i2c.c ****     [..]
 285:./Drivers/STM32H7xx_HAL_Driver/Src/stm32h7xx_hal_i2c.c ****      When the compilation flag USE_HAL_I2C_REGISTER_CALLBACKS is set to 0 or
 286:./Drivers/STM32H7xx_HAL_Driver/Src/stm32h7xx_hal_i2c.c ****      not defined, the callback registration feature is not available and all callbacks
 287:./Drivers/STM32H7xx_HAL_Driver/Src/stm32h7xx_hal_i2c.c ****      are set to the corresponding weak functions.
 288:./Drivers/STM32H7xx_HAL_Driver/Src/stm32h7xx_hal_i2c.c **** 
 289:./Drivers/STM32H7xx_HAL_Driver/Src/stm32h7xx_hal_i2c.c ****      [..]
 290:./Drivers/STM32H7xx_HAL_Driver/Src/stm32h7xx_hal_i2c.c ****        (@) You can refer to the I2C HAL driver header file for more useful macros
 291:./Drivers/STM32H7xx_HAL_Driver/Src/stm32h7xx_hal_i2c.c **** 
 292:./Drivers/STM32H7xx_HAL_Driver/Src/stm32h7xx_hal_i2c.c ****   @endverbatim
 293:./Drivers/STM32H7xx_HAL_Driver/Src/stm32h7xx_hal_i2c.c ****   ******************************************************************************
 294:./Drivers/STM32H7xx_HAL_Driver/Src/stm32h7xx_hal_i2c.c ****   * @attention
 295:./Drivers/STM32H7xx_HAL_Driver/Src/stm32h7xx_hal_i2c.c ****   *
 296:./Drivers/STM32H7xx_HAL_Driver/Src/stm32h7xx_hal_i2c.c ****   * <h2><center>&copy; Copyright (c) 2017 STMicroelectronics.
 297:./Drivers/STM32H7xx_HAL_Driver/Src/stm32h7xx_hal_i2c.c ****   * All rights reserved.</center></h2>
 298:./Drivers/STM32H7xx_HAL_Driver/Src/stm32h7xx_hal_i2c.c ****   *
 299:./Drivers/STM32H7xx_HAL_Driver/Src/stm32h7xx_hal_i2c.c ****   * This software component is licensed by ST under BSD 3-Clause license,
 300:./Drivers/STM32H7xx_HAL_Driver/Src/stm32h7xx_hal_i2c.c ****   * the "License"; You may not use this file except in compliance with the
 301:./Drivers/STM32H7xx_HAL_Driver/Src/stm32h7xx_hal_i2c.c ****   * License. You may obtain a copy of the License at:
 302:./Drivers/STM32H7xx_HAL_Driver/Src/stm32h7xx_hal_i2c.c ****   *                        opensource.org/licenses/BSD-3-Clause
 303:./Drivers/STM32H7xx_HAL_Driver/Src/stm32h7xx_hal_i2c.c ****   *
 304:./Drivers/STM32H7xx_HAL_Driver/Src/stm32h7xx_hal_i2c.c ****   ******************************************************************************
 305:./Drivers/STM32H7xx_HAL_Driver/Src/stm32h7xx_hal_i2c.c ****   */
 306:./Drivers/STM32H7xx_HAL_Driver/Src/stm32h7xx_hal_i2c.c **** 
 307:./Drivers/STM32H7xx_HAL_Driver/Src/stm32h7xx_hal_i2c.c **** /* Includes ------------------------------------------------------------------*/
 308:./Drivers/STM32H7xx_HAL_Driver/Src/stm32h7xx_hal_i2c.c **** #include "stm32h7xx_hal.h"
 309:./Drivers/STM32H7xx_HAL_Driver/Src/stm32h7xx_hal_i2c.c **** 
 310:./Drivers/STM32H7xx_HAL_Driver/Src/stm32h7xx_hal_i2c.c **** /** @addtogroup STM32H7xx_HAL_Driver
 311:./Drivers/STM32H7xx_HAL_Driver/Src/stm32h7xx_hal_i2c.c ****   * @{
 312:./Drivers/STM32H7xx_HAL_Driver/Src/stm32h7xx_hal_i2c.c ****   */
 313:./Drivers/STM32H7xx_HAL_Driver/Src/stm32h7xx_hal_i2c.c **** 
 314:./Drivers/STM32H7xx_HAL_Driver/Src/stm32h7xx_hal_i2c.c **** /** @defgroup I2C I2C
 315:./Drivers/STM32H7xx_HAL_Driver/Src/stm32h7xx_hal_i2c.c ****   * @brief I2C HAL module driver
 316:./Drivers/STM32H7xx_HAL_Driver/Src/stm32h7xx_hal_i2c.c ****   * @{
ARM GAS  /tmp/ccHvg3ba.s 			page 7


 317:./Drivers/STM32H7xx_HAL_Driver/Src/stm32h7xx_hal_i2c.c ****   */
 318:./Drivers/STM32H7xx_HAL_Driver/Src/stm32h7xx_hal_i2c.c **** 
 319:./Drivers/STM32H7xx_HAL_Driver/Src/stm32h7xx_hal_i2c.c **** #ifdef HAL_I2C_MODULE_ENABLED
 320:./Drivers/STM32H7xx_HAL_Driver/Src/stm32h7xx_hal_i2c.c **** 
 321:./Drivers/STM32H7xx_HAL_Driver/Src/stm32h7xx_hal_i2c.c **** /* Private typedef -----------------------------------------------------------*/
 322:./Drivers/STM32H7xx_HAL_Driver/Src/stm32h7xx_hal_i2c.c **** /* Private define ------------------------------------------------------------*/
 323:./Drivers/STM32H7xx_HAL_Driver/Src/stm32h7xx_hal_i2c.c **** 
 324:./Drivers/STM32H7xx_HAL_Driver/Src/stm32h7xx_hal_i2c.c **** /** @defgroup I2C_Private_Define I2C Private Define
 325:./Drivers/STM32H7xx_HAL_Driver/Src/stm32h7xx_hal_i2c.c ****   * @{
 326:./Drivers/STM32H7xx_HAL_Driver/Src/stm32h7xx_hal_i2c.c ****   */
 327:./Drivers/STM32H7xx_HAL_Driver/Src/stm32h7xx_hal_i2c.c **** #define TIMING_CLEAR_MASK   (0xF0FFFFFFU)  /*!< I2C TIMING clear register Mask */
 328:./Drivers/STM32H7xx_HAL_Driver/Src/stm32h7xx_hal_i2c.c **** #define I2C_TIMEOUT_ADDR    (10000U)       /*!< 10 s  */
 329:./Drivers/STM32H7xx_HAL_Driver/Src/stm32h7xx_hal_i2c.c **** #define I2C_TIMEOUT_BUSY    (25U)          /*!< 25 ms */
 330:./Drivers/STM32H7xx_HAL_Driver/Src/stm32h7xx_hal_i2c.c **** #define I2C_TIMEOUT_DIR     (25U)          /*!< 25 ms */
 331:./Drivers/STM32H7xx_HAL_Driver/Src/stm32h7xx_hal_i2c.c **** #define I2C_TIMEOUT_RXNE    (25U)          /*!< 25 ms */
 332:./Drivers/STM32H7xx_HAL_Driver/Src/stm32h7xx_hal_i2c.c **** #define I2C_TIMEOUT_STOPF   (25U)          /*!< 25 ms */
 333:./Drivers/STM32H7xx_HAL_Driver/Src/stm32h7xx_hal_i2c.c **** #define I2C_TIMEOUT_TC      (25U)          /*!< 25 ms */
 334:./Drivers/STM32H7xx_HAL_Driver/Src/stm32h7xx_hal_i2c.c **** #define I2C_TIMEOUT_TCR     (25U)          /*!< 25 ms */
 335:./Drivers/STM32H7xx_HAL_Driver/Src/stm32h7xx_hal_i2c.c **** #define I2C_TIMEOUT_TXIS    (25U)          /*!< 25 ms */
 336:./Drivers/STM32H7xx_HAL_Driver/Src/stm32h7xx_hal_i2c.c **** #define I2C_TIMEOUT_FLAG    (25U)          /*!< 25 ms */
 337:./Drivers/STM32H7xx_HAL_Driver/Src/stm32h7xx_hal_i2c.c **** 
 338:./Drivers/STM32H7xx_HAL_Driver/Src/stm32h7xx_hal_i2c.c **** #define MAX_NBYTE_SIZE      255U
 339:./Drivers/STM32H7xx_HAL_Driver/Src/stm32h7xx_hal_i2c.c **** #define SlaveAddr_SHIFT     7U
 340:./Drivers/STM32H7xx_HAL_Driver/Src/stm32h7xx_hal_i2c.c **** #define SlaveAddr_MSK       0x06U
 341:./Drivers/STM32H7xx_HAL_Driver/Src/stm32h7xx_hal_i2c.c **** 
 342:./Drivers/STM32H7xx_HAL_Driver/Src/stm32h7xx_hal_i2c.c **** /* Private define for @ref PreviousState usage */
 343:./Drivers/STM32H7xx_HAL_Driver/Src/stm32h7xx_hal_i2c.c **** #define I2C_STATE_MSK             ((uint32_t)((uint32_t)((uint32_t)HAL_I2C_STATE_BUSY_TX | (uint32_
 344:./Drivers/STM32H7xx_HAL_Driver/Src/stm32h7xx_hal_i2c.c **** #define I2C_STATE_NONE            ((uint32_t)(HAL_I2C_MODE_NONE))                                  
 345:./Drivers/STM32H7xx_HAL_Driver/Src/stm32h7xx_hal_i2c.c **** #define I2C_STATE_MASTER_BUSY_TX  ((uint32_t)(((uint32_t)HAL_I2C_STATE_BUSY_TX & I2C_STATE_MSK) | (
 346:./Drivers/STM32H7xx_HAL_Driver/Src/stm32h7xx_hal_i2c.c **** #define I2C_STATE_MASTER_BUSY_RX  ((uint32_t)(((uint32_t)HAL_I2C_STATE_BUSY_RX & I2C_STATE_MSK) | (
 347:./Drivers/STM32H7xx_HAL_Driver/Src/stm32h7xx_hal_i2c.c **** #define I2C_STATE_SLAVE_BUSY_TX   ((uint32_t)(((uint32_t)HAL_I2C_STATE_BUSY_TX & I2C_STATE_MSK) | (
 348:./Drivers/STM32H7xx_HAL_Driver/Src/stm32h7xx_hal_i2c.c **** #define I2C_STATE_SLAVE_BUSY_RX   ((uint32_t)(((uint32_t)HAL_I2C_STATE_BUSY_RX & I2C_STATE_MSK) | (
 349:./Drivers/STM32H7xx_HAL_Driver/Src/stm32h7xx_hal_i2c.c **** #define I2C_STATE_MEM_BUSY_TX     ((uint32_t)(((uint32_t)HAL_I2C_STATE_BUSY_TX & I2C_STATE_MSK) | (
 350:./Drivers/STM32H7xx_HAL_Driver/Src/stm32h7xx_hal_i2c.c **** #define I2C_STATE_MEM_BUSY_RX     ((uint32_t)(((uint32_t)HAL_I2C_STATE_BUSY_RX & I2C_STATE_MSK) | (
 351:./Drivers/STM32H7xx_HAL_Driver/Src/stm32h7xx_hal_i2c.c **** 
 352:./Drivers/STM32H7xx_HAL_Driver/Src/stm32h7xx_hal_i2c.c **** 
 353:./Drivers/STM32H7xx_HAL_Driver/Src/stm32h7xx_hal_i2c.c **** /* Private define to centralize the enable/disable of Interrupts */
 354:./Drivers/STM32H7xx_HAL_Driver/Src/stm32h7xx_hal_i2c.c **** #define I2C_XFER_TX_IT          (0x00000001U)
 355:./Drivers/STM32H7xx_HAL_Driver/Src/stm32h7xx_hal_i2c.c **** #define I2C_XFER_RX_IT          (0x00000002U)
 356:./Drivers/STM32H7xx_HAL_Driver/Src/stm32h7xx_hal_i2c.c **** #define I2C_XFER_LISTEN_IT      (0x00000004U)
 357:./Drivers/STM32H7xx_HAL_Driver/Src/stm32h7xx_hal_i2c.c **** 
 358:./Drivers/STM32H7xx_HAL_Driver/Src/stm32h7xx_hal_i2c.c **** #define I2C_XFER_ERROR_IT       (0x00000011U)
 359:./Drivers/STM32H7xx_HAL_Driver/Src/stm32h7xx_hal_i2c.c **** #define I2C_XFER_CPLT_IT        (0x00000012U)
 360:./Drivers/STM32H7xx_HAL_Driver/Src/stm32h7xx_hal_i2c.c **** #define I2C_XFER_RELOAD_IT      (0x00000012U)
 361:./Drivers/STM32H7xx_HAL_Driver/Src/stm32h7xx_hal_i2c.c **** 
 362:./Drivers/STM32H7xx_HAL_Driver/Src/stm32h7xx_hal_i2c.c **** /* Private define Sequential Transfer Options default/reset value */
 363:./Drivers/STM32H7xx_HAL_Driver/Src/stm32h7xx_hal_i2c.c **** #define I2C_NO_OPTION_FRAME     (0xFFFF0000U)
 364:./Drivers/STM32H7xx_HAL_Driver/Src/stm32h7xx_hal_i2c.c **** /**
 365:./Drivers/STM32H7xx_HAL_Driver/Src/stm32h7xx_hal_i2c.c ****   * @}
 366:./Drivers/STM32H7xx_HAL_Driver/Src/stm32h7xx_hal_i2c.c ****   */
 367:./Drivers/STM32H7xx_HAL_Driver/Src/stm32h7xx_hal_i2c.c **** 
 368:./Drivers/STM32H7xx_HAL_Driver/Src/stm32h7xx_hal_i2c.c **** /* Private macro -------------------------------------------------------------*/
 369:./Drivers/STM32H7xx_HAL_Driver/Src/stm32h7xx_hal_i2c.c **** /* Private variables ---------------------------------------------------------*/
 370:./Drivers/STM32H7xx_HAL_Driver/Src/stm32h7xx_hal_i2c.c **** /* Private function prototypes -----------------------------------------------*/
 371:./Drivers/STM32H7xx_HAL_Driver/Src/stm32h7xx_hal_i2c.c **** 
 372:./Drivers/STM32H7xx_HAL_Driver/Src/stm32h7xx_hal_i2c.c **** /** @defgroup I2C_Private_Functions I2C Private Functions
 373:./Drivers/STM32H7xx_HAL_Driver/Src/stm32h7xx_hal_i2c.c ****   * @{
ARM GAS  /tmp/ccHvg3ba.s 			page 8


 374:./Drivers/STM32H7xx_HAL_Driver/Src/stm32h7xx_hal_i2c.c ****   */
 375:./Drivers/STM32H7xx_HAL_Driver/Src/stm32h7xx_hal_i2c.c **** /* Private functions to handle DMA transfer */
 376:./Drivers/STM32H7xx_HAL_Driver/Src/stm32h7xx_hal_i2c.c **** static void I2C_DMAMasterTransmitCplt(DMA_HandleTypeDef *hdma);
 377:./Drivers/STM32H7xx_HAL_Driver/Src/stm32h7xx_hal_i2c.c **** static void I2C_DMAMasterReceiveCplt(DMA_HandleTypeDef *hdma);
 378:./Drivers/STM32H7xx_HAL_Driver/Src/stm32h7xx_hal_i2c.c **** static void I2C_DMASlaveTransmitCplt(DMA_HandleTypeDef *hdma);
 379:./Drivers/STM32H7xx_HAL_Driver/Src/stm32h7xx_hal_i2c.c **** static void I2C_DMASlaveReceiveCplt(DMA_HandleTypeDef *hdma);
 380:./Drivers/STM32H7xx_HAL_Driver/Src/stm32h7xx_hal_i2c.c **** static void I2C_DMAError(DMA_HandleTypeDef *hdma);
 381:./Drivers/STM32H7xx_HAL_Driver/Src/stm32h7xx_hal_i2c.c **** static void I2C_DMAAbort(DMA_HandleTypeDef *hdma);
 382:./Drivers/STM32H7xx_HAL_Driver/Src/stm32h7xx_hal_i2c.c **** 
 383:./Drivers/STM32H7xx_HAL_Driver/Src/stm32h7xx_hal_i2c.c **** /* Private functions to handle IT transfer */
 384:./Drivers/STM32H7xx_HAL_Driver/Src/stm32h7xx_hal_i2c.c **** static void I2C_ITAddrCplt(I2C_HandleTypeDef *hi2c, uint32_t ITFlags);
 385:./Drivers/STM32H7xx_HAL_Driver/Src/stm32h7xx_hal_i2c.c **** static void I2C_ITMasterSeqCplt(I2C_HandleTypeDef *hi2c);
 386:./Drivers/STM32H7xx_HAL_Driver/Src/stm32h7xx_hal_i2c.c **** static void I2C_ITSlaveSeqCplt(I2C_HandleTypeDef *hi2c);
 387:./Drivers/STM32H7xx_HAL_Driver/Src/stm32h7xx_hal_i2c.c **** static void I2C_ITMasterCplt(I2C_HandleTypeDef *hi2c, uint32_t ITFlags);
 388:./Drivers/STM32H7xx_HAL_Driver/Src/stm32h7xx_hal_i2c.c **** static void I2C_ITSlaveCplt(I2C_HandleTypeDef *hi2c, uint32_t ITFlags);
 389:./Drivers/STM32H7xx_HAL_Driver/Src/stm32h7xx_hal_i2c.c **** static void I2C_ITListenCplt(I2C_HandleTypeDef *hi2c, uint32_t ITFlags);
 390:./Drivers/STM32H7xx_HAL_Driver/Src/stm32h7xx_hal_i2c.c **** static void I2C_ITError(I2C_HandleTypeDef *hi2c, uint32_t ErrorCode);
 391:./Drivers/STM32H7xx_HAL_Driver/Src/stm32h7xx_hal_i2c.c **** 
 392:./Drivers/STM32H7xx_HAL_Driver/Src/stm32h7xx_hal_i2c.c **** /* Private functions to handle IT transfer */
 393:./Drivers/STM32H7xx_HAL_Driver/Src/stm32h7xx_hal_i2c.c **** static HAL_StatusTypeDef I2C_RequestMemoryWrite(I2C_HandleTypeDef *hi2c, uint16_t DevAddress, uint1
 394:./Drivers/STM32H7xx_HAL_Driver/Src/stm32h7xx_hal_i2c.c **** static HAL_StatusTypeDef I2C_RequestMemoryRead(I2C_HandleTypeDef *hi2c, uint16_t DevAddress, uint16
 395:./Drivers/STM32H7xx_HAL_Driver/Src/stm32h7xx_hal_i2c.c **** 
 396:./Drivers/STM32H7xx_HAL_Driver/Src/stm32h7xx_hal_i2c.c **** /* Private functions for I2C transfer IRQ handler */
 397:./Drivers/STM32H7xx_HAL_Driver/Src/stm32h7xx_hal_i2c.c **** static HAL_StatusTypeDef I2C_Master_ISR_IT(struct __I2C_HandleTypeDef *hi2c, uint32_t ITFlags, uint
 398:./Drivers/STM32H7xx_HAL_Driver/Src/stm32h7xx_hal_i2c.c **** static HAL_StatusTypeDef I2C_Slave_ISR_IT(struct __I2C_HandleTypeDef *hi2c, uint32_t ITFlags, uint3
 399:./Drivers/STM32H7xx_HAL_Driver/Src/stm32h7xx_hal_i2c.c **** static HAL_StatusTypeDef I2C_Master_ISR_DMA(struct __I2C_HandleTypeDef *hi2c, uint32_t ITFlags, uin
 400:./Drivers/STM32H7xx_HAL_Driver/Src/stm32h7xx_hal_i2c.c **** static HAL_StatusTypeDef I2C_Slave_ISR_DMA(struct __I2C_HandleTypeDef *hi2c, uint32_t ITFlags, uint
 401:./Drivers/STM32H7xx_HAL_Driver/Src/stm32h7xx_hal_i2c.c **** 
 402:./Drivers/STM32H7xx_HAL_Driver/Src/stm32h7xx_hal_i2c.c **** /* Private functions to handle flags during polling transfer */
 403:./Drivers/STM32H7xx_HAL_Driver/Src/stm32h7xx_hal_i2c.c **** static HAL_StatusTypeDef I2C_WaitOnFlagUntilTimeout(I2C_HandleTypeDef *hi2c, uint32_t Flag, FlagSta
 404:./Drivers/STM32H7xx_HAL_Driver/Src/stm32h7xx_hal_i2c.c **** static HAL_StatusTypeDef I2C_WaitOnTXISFlagUntilTimeout(I2C_HandleTypeDef *hi2c, uint32_t Timeout, 
 405:./Drivers/STM32H7xx_HAL_Driver/Src/stm32h7xx_hal_i2c.c **** static HAL_StatusTypeDef I2C_WaitOnRXNEFlagUntilTimeout(I2C_HandleTypeDef *hi2c, uint32_t Timeout, 
 406:./Drivers/STM32H7xx_HAL_Driver/Src/stm32h7xx_hal_i2c.c **** static HAL_StatusTypeDef I2C_WaitOnSTOPFlagUntilTimeout(I2C_HandleTypeDef *hi2c, uint32_t Timeout, 
 407:./Drivers/STM32H7xx_HAL_Driver/Src/stm32h7xx_hal_i2c.c **** static HAL_StatusTypeDef I2C_IsAcknowledgeFailed(I2C_HandleTypeDef *hi2c, uint32_t Timeout, uint32_
 408:./Drivers/STM32H7xx_HAL_Driver/Src/stm32h7xx_hal_i2c.c **** 
 409:./Drivers/STM32H7xx_HAL_Driver/Src/stm32h7xx_hal_i2c.c **** /* Private functions to centralize the enable/disable of Interrupts */
 410:./Drivers/STM32H7xx_HAL_Driver/Src/stm32h7xx_hal_i2c.c **** static void I2C_Enable_IRQ(I2C_HandleTypeDef *hi2c, uint16_t InterruptRequest);
 411:./Drivers/STM32H7xx_HAL_Driver/Src/stm32h7xx_hal_i2c.c **** static void I2C_Disable_IRQ(I2C_HandleTypeDef *hi2c, uint16_t InterruptRequest);
 412:./Drivers/STM32H7xx_HAL_Driver/Src/stm32h7xx_hal_i2c.c **** 
 413:./Drivers/STM32H7xx_HAL_Driver/Src/stm32h7xx_hal_i2c.c **** /* Private function to flush TXDR register */
 414:./Drivers/STM32H7xx_HAL_Driver/Src/stm32h7xx_hal_i2c.c **** static void I2C_Flush_TXDR(I2C_HandleTypeDef *hi2c);
 415:./Drivers/STM32H7xx_HAL_Driver/Src/stm32h7xx_hal_i2c.c **** 
 416:./Drivers/STM32H7xx_HAL_Driver/Src/stm32h7xx_hal_i2c.c **** /* Private function to handle  start, restart or stop a transfer */
 417:./Drivers/STM32H7xx_HAL_Driver/Src/stm32h7xx_hal_i2c.c **** static void I2C_TransferConfig(I2C_HandleTypeDef *hi2c, uint16_t DevAddress, uint8_t Size, uint32_t
 418:./Drivers/STM32H7xx_HAL_Driver/Src/stm32h7xx_hal_i2c.c **** 
 419:./Drivers/STM32H7xx_HAL_Driver/Src/stm32h7xx_hal_i2c.c **** /* Private function to Convert Specific options */
 420:./Drivers/STM32H7xx_HAL_Driver/Src/stm32h7xx_hal_i2c.c **** static void I2C_ConvertOtherXferOptions(I2C_HandleTypeDef *hi2c);
 421:./Drivers/STM32H7xx_HAL_Driver/Src/stm32h7xx_hal_i2c.c **** /**
 422:./Drivers/STM32H7xx_HAL_Driver/Src/stm32h7xx_hal_i2c.c ****   * @}
 423:./Drivers/STM32H7xx_HAL_Driver/Src/stm32h7xx_hal_i2c.c ****   */
 424:./Drivers/STM32H7xx_HAL_Driver/Src/stm32h7xx_hal_i2c.c **** 
 425:./Drivers/STM32H7xx_HAL_Driver/Src/stm32h7xx_hal_i2c.c **** /* Exported functions --------------------------------------------------------*/
 426:./Drivers/STM32H7xx_HAL_Driver/Src/stm32h7xx_hal_i2c.c **** 
 427:./Drivers/STM32H7xx_HAL_Driver/Src/stm32h7xx_hal_i2c.c **** /** @defgroup I2C_Exported_Functions I2C Exported Functions
 428:./Drivers/STM32H7xx_HAL_Driver/Src/stm32h7xx_hal_i2c.c ****   * @{
 429:./Drivers/STM32H7xx_HAL_Driver/Src/stm32h7xx_hal_i2c.c ****   */
 430:./Drivers/STM32H7xx_HAL_Driver/Src/stm32h7xx_hal_i2c.c **** 
ARM GAS  /tmp/ccHvg3ba.s 			page 9


 431:./Drivers/STM32H7xx_HAL_Driver/Src/stm32h7xx_hal_i2c.c **** /** @defgroup I2C_Exported_Functions_Group1 Initialization and de-initialization functions
 432:./Drivers/STM32H7xx_HAL_Driver/Src/stm32h7xx_hal_i2c.c ****  *  @brief    Initialization and Configuration functions
 433:./Drivers/STM32H7xx_HAL_Driver/Src/stm32h7xx_hal_i2c.c ****  *
 434:./Drivers/STM32H7xx_HAL_Driver/Src/stm32h7xx_hal_i2c.c **** @verbatim
 435:./Drivers/STM32H7xx_HAL_Driver/Src/stm32h7xx_hal_i2c.c ****  ===============================================================================
 436:./Drivers/STM32H7xx_HAL_Driver/Src/stm32h7xx_hal_i2c.c ****               ##### Initialization and de-initialization functions #####
 437:./Drivers/STM32H7xx_HAL_Driver/Src/stm32h7xx_hal_i2c.c ****  ===============================================================================
 438:./Drivers/STM32H7xx_HAL_Driver/Src/stm32h7xx_hal_i2c.c ****     [..]  This subsection provides a set of functions allowing to initialize and
 439:./Drivers/STM32H7xx_HAL_Driver/Src/stm32h7xx_hal_i2c.c ****           deinitialize the I2Cx peripheral:
 440:./Drivers/STM32H7xx_HAL_Driver/Src/stm32h7xx_hal_i2c.c **** 
 441:./Drivers/STM32H7xx_HAL_Driver/Src/stm32h7xx_hal_i2c.c ****       (+) User must Implement HAL_I2C_MspInit() function in which he configures
 442:./Drivers/STM32H7xx_HAL_Driver/Src/stm32h7xx_hal_i2c.c ****           all related peripherals resources (CLOCK, GPIO, DMA, IT and NVIC ).
 443:./Drivers/STM32H7xx_HAL_Driver/Src/stm32h7xx_hal_i2c.c **** 
 444:./Drivers/STM32H7xx_HAL_Driver/Src/stm32h7xx_hal_i2c.c ****       (+) Call the function HAL_I2C_Init() to configure the selected device with
 445:./Drivers/STM32H7xx_HAL_Driver/Src/stm32h7xx_hal_i2c.c ****           the selected configuration:
 446:./Drivers/STM32H7xx_HAL_Driver/Src/stm32h7xx_hal_i2c.c ****         (++) Clock Timing
 447:./Drivers/STM32H7xx_HAL_Driver/Src/stm32h7xx_hal_i2c.c ****         (++) Own Address 1
 448:./Drivers/STM32H7xx_HAL_Driver/Src/stm32h7xx_hal_i2c.c ****         (++) Addressing mode (Master, Slave)
 449:./Drivers/STM32H7xx_HAL_Driver/Src/stm32h7xx_hal_i2c.c ****         (++) Dual Addressing mode
 450:./Drivers/STM32H7xx_HAL_Driver/Src/stm32h7xx_hal_i2c.c ****         (++) Own Address 2
 451:./Drivers/STM32H7xx_HAL_Driver/Src/stm32h7xx_hal_i2c.c ****         (++) Own Address 2 Mask
 452:./Drivers/STM32H7xx_HAL_Driver/Src/stm32h7xx_hal_i2c.c ****         (++) General call mode
 453:./Drivers/STM32H7xx_HAL_Driver/Src/stm32h7xx_hal_i2c.c ****         (++) Nostretch mode
 454:./Drivers/STM32H7xx_HAL_Driver/Src/stm32h7xx_hal_i2c.c **** 
 455:./Drivers/STM32H7xx_HAL_Driver/Src/stm32h7xx_hal_i2c.c ****       (+) Call the function HAL_I2C_DeInit() to restore the default configuration
 456:./Drivers/STM32H7xx_HAL_Driver/Src/stm32h7xx_hal_i2c.c ****           of the selected I2Cx peripheral.
 457:./Drivers/STM32H7xx_HAL_Driver/Src/stm32h7xx_hal_i2c.c **** 
 458:./Drivers/STM32H7xx_HAL_Driver/Src/stm32h7xx_hal_i2c.c **** @endverbatim
 459:./Drivers/STM32H7xx_HAL_Driver/Src/stm32h7xx_hal_i2c.c ****   * @{
 460:./Drivers/STM32H7xx_HAL_Driver/Src/stm32h7xx_hal_i2c.c ****   */
 461:./Drivers/STM32H7xx_HAL_Driver/Src/stm32h7xx_hal_i2c.c **** 
 462:./Drivers/STM32H7xx_HAL_Driver/Src/stm32h7xx_hal_i2c.c **** /**
 463:./Drivers/STM32H7xx_HAL_Driver/Src/stm32h7xx_hal_i2c.c ****   * @brief  Initializes the I2C according to the specified parameters
 464:./Drivers/STM32H7xx_HAL_Driver/Src/stm32h7xx_hal_i2c.c ****   *         in the I2C_InitTypeDef and initialize the associated handle.
 465:./Drivers/STM32H7xx_HAL_Driver/Src/stm32h7xx_hal_i2c.c ****   * @param  hi2c Pointer to a I2C_HandleTypeDef structure that contains
 466:./Drivers/STM32H7xx_HAL_Driver/Src/stm32h7xx_hal_i2c.c ****   *                the configuration information for the specified I2C.
 467:./Drivers/STM32H7xx_HAL_Driver/Src/stm32h7xx_hal_i2c.c ****   * @retval HAL status
 468:./Drivers/STM32H7xx_HAL_Driver/Src/stm32h7xx_hal_i2c.c ****   */
 469:./Drivers/STM32H7xx_HAL_Driver/Src/stm32h7xx_hal_i2c.c **** HAL_StatusTypeDef HAL_I2C_Init(I2C_HandleTypeDef *hi2c)
 470:./Drivers/STM32H7xx_HAL_Driver/Src/stm32h7xx_hal_i2c.c **** {
  28              		.loc 1 470 1
  29              		.cfi_startproc
  30              		@ args = 0, pretend = 0, frame = 8
  31              		@ frame_needed = 1, uses_anonymous_args = 0
  32 0000 80B5     		push	{r7, lr}
  33              		.cfi_def_cfa_offset 8
  34              		.cfi_offset 7, -8
  35              		.cfi_offset 14, -4
  36 0002 82B0     		sub	sp, sp, #8
  37              		.cfi_def_cfa_offset 16
  38 0004 00AF     		add	r7, sp, #0
  39              		.cfi_def_cfa_register 7
  40 0006 7860     		str	r0, [r7, #4]
 471:./Drivers/STM32H7xx_HAL_Driver/Src/stm32h7xx_hal_i2c.c ****   /* Check the I2C handle allocation */
 472:./Drivers/STM32H7xx_HAL_Driver/Src/stm32h7xx_hal_i2c.c ****   if (hi2c == NULL)
  41              		.loc 1 472 6
  42 0008 7B68     		ldr	r3, [r7, #4]
ARM GAS  /tmp/ccHvg3ba.s 			page 10


  43 000a 002B     		cmp	r3, #0
  44 000c 01D1     		bne	.L2
 473:./Drivers/STM32H7xx_HAL_Driver/Src/stm32h7xx_hal_i2c.c ****   {
 474:./Drivers/STM32H7xx_HAL_Driver/Src/stm32h7xx_hal_i2c.c ****     return HAL_ERROR;
  45              		.loc 1 474 12
  46 000e 0123     		movs	r3, #1
  47 0010 7FE0     		b	.L3
  48              	.L2:
 475:./Drivers/STM32H7xx_HAL_Driver/Src/stm32h7xx_hal_i2c.c ****   }
 476:./Drivers/STM32H7xx_HAL_Driver/Src/stm32h7xx_hal_i2c.c **** 
 477:./Drivers/STM32H7xx_HAL_Driver/Src/stm32h7xx_hal_i2c.c ****   /* Check the parameters */
 478:./Drivers/STM32H7xx_HAL_Driver/Src/stm32h7xx_hal_i2c.c ****   assert_param(IS_I2C_ALL_INSTANCE(hi2c->Instance));
 479:./Drivers/STM32H7xx_HAL_Driver/Src/stm32h7xx_hal_i2c.c ****   assert_param(IS_I2C_OWN_ADDRESS1(hi2c->Init.OwnAddress1));
 480:./Drivers/STM32H7xx_HAL_Driver/Src/stm32h7xx_hal_i2c.c ****   assert_param(IS_I2C_ADDRESSING_MODE(hi2c->Init.AddressingMode));
 481:./Drivers/STM32H7xx_HAL_Driver/Src/stm32h7xx_hal_i2c.c ****   assert_param(IS_I2C_DUAL_ADDRESS(hi2c->Init.DualAddressMode));
 482:./Drivers/STM32H7xx_HAL_Driver/Src/stm32h7xx_hal_i2c.c ****   assert_param(IS_I2C_OWN_ADDRESS2(hi2c->Init.OwnAddress2));
 483:./Drivers/STM32H7xx_HAL_Driver/Src/stm32h7xx_hal_i2c.c ****   assert_param(IS_I2C_OWN_ADDRESS2_MASK(hi2c->Init.OwnAddress2Masks));
 484:./Drivers/STM32H7xx_HAL_Driver/Src/stm32h7xx_hal_i2c.c ****   assert_param(IS_I2C_GENERAL_CALL(hi2c->Init.GeneralCallMode));
 485:./Drivers/STM32H7xx_HAL_Driver/Src/stm32h7xx_hal_i2c.c ****   assert_param(IS_I2C_NO_STRETCH(hi2c->Init.NoStretchMode));
 486:./Drivers/STM32H7xx_HAL_Driver/Src/stm32h7xx_hal_i2c.c **** 
 487:./Drivers/STM32H7xx_HAL_Driver/Src/stm32h7xx_hal_i2c.c ****   if (hi2c->State == HAL_I2C_STATE_RESET)
  49              		.loc 1 487 11
  50 0012 7B68     		ldr	r3, [r7, #4]
  51 0014 93F84130 		ldrb	r3, [r3, #65]
  52 0018 DBB2     		uxtb	r3, r3
  53              		.loc 1 487 6
  54 001a 002B     		cmp	r3, #0
  55 001c 06D1     		bne	.L4
 488:./Drivers/STM32H7xx_HAL_Driver/Src/stm32h7xx_hal_i2c.c ****   {
 489:./Drivers/STM32H7xx_HAL_Driver/Src/stm32h7xx_hal_i2c.c ****     /* Allocate lock resource and initialize it */
 490:./Drivers/STM32H7xx_HAL_Driver/Src/stm32h7xx_hal_i2c.c ****     hi2c->Lock = HAL_UNLOCKED;
  56              		.loc 1 490 16
  57 001e 7B68     		ldr	r3, [r7, #4]
  58 0020 0022     		movs	r2, #0
  59 0022 83F84020 		strb	r2, [r3, #64]
 491:./Drivers/STM32H7xx_HAL_Driver/Src/stm32h7xx_hal_i2c.c **** 
 492:./Drivers/STM32H7xx_HAL_Driver/Src/stm32h7xx_hal_i2c.c **** #if (USE_HAL_I2C_REGISTER_CALLBACKS == 1)
 493:./Drivers/STM32H7xx_HAL_Driver/Src/stm32h7xx_hal_i2c.c ****     /* Init the I2C Callback settings */
 494:./Drivers/STM32H7xx_HAL_Driver/Src/stm32h7xx_hal_i2c.c ****     hi2c->MasterTxCpltCallback = HAL_I2C_MasterTxCpltCallback; /* Legacy weak MasterTxCpltCallback 
 495:./Drivers/STM32H7xx_HAL_Driver/Src/stm32h7xx_hal_i2c.c ****     hi2c->MasterRxCpltCallback = HAL_I2C_MasterRxCpltCallback; /* Legacy weak MasterRxCpltCallback 
 496:./Drivers/STM32H7xx_HAL_Driver/Src/stm32h7xx_hal_i2c.c ****     hi2c->SlaveTxCpltCallback  = HAL_I2C_SlaveTxCpltCallback;  /* Legacy weak SlaveTxCpltCallback  
 497:./Drivers/STM32H7xx_HAL_Driver/Src/stm32h7xx_hal_i2c.c ****     hi2c->SlaveRxCpltCallback  = HAL_I2C_SlaveRxCpltCallback;  /* Legacy weak SlaveRxCpltCallback  
 498:./Drivers/STM32H7xx_HAL_Driver/Src/stm32h7xx_hal_i2c.c ****     hi2c->ListenCpltCallback   = HAL_I2C_ListenCpltCallback;   /* Legacy weak ListenCpltCallback   
 499:./Drivers/STM32H7xx_HAL_Driver/Src/stm32h7xx_hal_i2c.c ****     hi2c->MemTxCpltCallback    = HAL_I2C_MemTxCpltCallback;    /* Legacy weak MemTxCpltCallback    
 500:./Drivers/STM32H7xx_HAL_Driver/Src/stm32h7xx_hal_i2c.c ****     hi2c->MemRxCpltCallback    = HAL_I2C_MemRxCpltCallback;    /* Legacy weak MemRxCpltCallback    
 501:./Drivers/STM32H7xx_HAL_Driver/Src/stm32h7xx_hal_i2c.c ****     hi2c->ErrorCallback        = HAL_I2C_ErrorCallback;        /* Legacy weak ErrorCallback        
 502:./Drivers/STM32H7xx_HAL_Driver/Src/stm32h7xx_hal_i2c.c ****     hi2c->AbortCpltCallback    = HAL_I2C_AbortCpltCallback;    /* Legacy weak AbortCpltCallback    
 503:./Drivers/STM32H7xx_HAL_Driver/Src/stm32h7xx_hal_i2c.c ****     hi2c->AddrCallback         = HAL_I2C_AddrCallback;         /* Legacy weak AddrCallback         
 504:./Drivers/STM32H7xx_HAL_Driver/Src/stm32h7xx_hal_i2c.c **** 
 505:./Drivers/STM32H7xx_HAL_Driver/Src/stm32h7xx_hal_i2c.c ****     if (hi2c->MspInitCallback == NULL)
 506:./Drivers/STM32H7xx_HAL_Driver/Src/stm32h7xx_hal_i2c.c ****     {
 507:./Drivers/STM32H7xx_HAL_Driver/Src/stm32h7xx_hal_i2c.c ****       hi2c->MspInitCallback = HAL_I2C_MspInit; /* Legacy weak MspInit  */
 508:./Drivers/STM32H7xx_HAL_Driver/Src/stm32h7xx_hal_i2c.c ****     }
 509:./Drivers/STM32H7xx_HAL_Driver/Src/stm32h7xx_hal_i2c.c **** 
 510:./Drivers/STM32H7xx_HAL_Driver/Src/stm32h7xx_hal_i2c.c ****     /* Init the low level hardware : GPIO, CLOCK, CORTEX...etc */
 511:./Drivers/STM32H7xx_HAL_Driver/Src/stm32h7xx_hal_i2c.c ****     hi2c->MspInitCallback(hi2c);
 512:./Drivers/STM32H7xx_HAL_Driver/Src/stm32h7xx_hal_i2c.c **** #else
ARM GAS  /tmp/ccHvg3ba.s 			page 11


 513:./Drivers/STM32H7xx_HAL_Driver/Src/stm32h7xx_hal_i2c.c ****     /* Init the low level hardware : GPIO, CLOCK, CORTEX...etc */
 514:./Drivers/STM32H7xx_HAL_Driver/Src/stm32h7xx_hal_i2c.c ****     HAL_I2C_MspInit(hi2c);
  60              		.loc 1 514 5
  61 0026 7868     		ldr	r0, [r7, #4]
  62 0028 FFF7FEFF 		bl	HAL_I2C_MspInit
  63              	.L4:
 515:./Drivers/STM32H7xx_HAL_Driver/Src/stm32h7xx_hal_i2c.c **** #endif /* USE_HAL_I2C_REGISTER_CALLBACKS */
 516:./Drivers/STM32H7xx_HAL_Driver/Src/stm32h7xx_hal_i2c.c ****   }
 517:./Drivers/STM32H7xx_HAL_Driver/Src/stm32h7xx_hal_i2c.c **** 
 518:./Drivers/STM32H7xx_HAL_Driver/Src/stm32h7xx_hal_i2c.c ****   hi2c->State = HAL_I2C_STATE_BUSY;
  64              		.loc 1 518 15
  65 002c 7B68     		ldr	r3, [r7, #4]
  66 002e 2422     		movs	r2, #36
  67 0030 83F84120 		strb	r2, [r3, #65]
 519:./Drivers/STM32H7xx_HAL_Driver/Src/stm32h7xx_hal_i2c.c **** 
 520:./Drivers/STM32H7xx_HAL_Driver/Src/stm32h7xx_hal_i2c.c ****   /* Disable the selected I2C peripheral */
 521:./Drivers/STM32H7xx_HAL_Driver/Src/stm32h7xx_hal_i2c.c ****   __HAL_I2C_DISABLE(hi2c);
  68              		.loc 1 521 3
  69 0034 7B68     		ldr	r3, [r7, #4]
  70 0036 1B68     		ldr	r3, [r3]
  71 0038 1A68     		ldr	r2, [r3]
  72 003a 7B68     		ldr	r3, [r7, #4]
  73 003c 1B68     		ldr	r3, [r3]
  74 003e 22F00102 		bic	r2, r2, #1
  75 0042 1A60     		str	r2, [r3]
 522:./Drivers/STM32H7xx_HAL_Driver/Src/stm32h7xx_hal_i2c.c **** 
 523:./Drivers/STM32H7xx_HAL_Driver/Src/stm32h7xx_hal_i2c.c ****   /*---------------------------- I2Cx TIMINGR Configuration ------------------*/
 524:./Drivers/STM32H7xx_HAL_Driver/Src/stm32h7xx_hal_i2c.c ****   /* Configure I2Cx: Frequency range */
 525:./Drivers/STM32H7xx_HAL_Driver/Src/stm32h7xx_hal_i2c.c ****   hi2c->Instance->TIMINGR = hi2c->Init.Timing & TIMING_CLEAR_MASK;
  76              		.loc 1 525 39
  77 0044 7B68     		ldr	r3, [r7, #4]
  78 0046 5A68     		ldr	r2, [r3, #4]
  79              		.loc 1 525 7
  80 0048 7B68     		ldr	r3, [r7, #4]
  81 004a 1B68     		ldr	r3, [r3]
  82              		.loc 1 525 47
  83 004c 22F07062 		bic	r2, r2, #251658240
  84              		.loc 1 525 27
  85 0050 1A61     		str	r2, [r3, #16]
 526:./Drivers/STM32H7xx_HAL_Driver/Src/stm32h7xx_hal_i2c.c **** 
 527:./Drivers/STM32H7xx_HAL_Driver/Src/stm32h7xx_hal_i2c.c ****   /*---------------------------- I2Cx OAR1 Configuration ---------------------*/
 528:./Drivers/STM32H7xx_HAL_Driver/Src/stm32h7xx_hal_i2c.c ****   /* Disable Own Address1 before set the Own Address1 configuration */
 529:./Drivers/STM32H7xx_HAL_Driver/Src/stm32h7xx_hal_i2c.c ****   hi2c->Instance->OAR1 &= ~I2C_OAR1_OA1EN;
  86              		.loc 1 529 7
  87 0052 7B68     		ldr	r3, [r7, #4]
  88 0054 1B68     		ldr	r3, [r3]
  89              		.loc 1 529 24
  90 0056 9A68     		ldr	r2, [r3, #8]
  91              		.loc 1 529 7
  92 0058 7B68     		ldr	r3, [r7, #4]
  93 005a 1B68     		ldr	r3, [r3]
  94              		.loc 1 529 24
  95 005c 22F40042 		bic	r2, r2, #32768
  96 0060 9A60     		str	r2, [r3, #8]
 530:./Drivers/STM32H7xx_HAL_Driver/Src/stm32h7xx_hal_i2c.c **** 
 531:./Drivers/STM32H7xx_HAL_Driver/Src/stm32h7xx_hal_i2c.c ****   /* Configure I2Cx: Own Address1 and ack own address1 mode */
 532:./Drivers/STM32H7xx_HAL_Driver/Src/stm32h7xx_hal_i2c.c ****   if (hi2c->Init.AddressingMode == I2C_ADDRESSINGMODE_7BIT)
ARM GAS  /tmp/ccHvg3ba.s 			page 12


  97              		.loc 1 532 17
  98 0062 7B68     		ldr	r3, [r7, #4]
  99 0064 DB68     		ldr	r3, [r3, #12]
 100              		.loc 1 532 6
 101 0066 012B     		cmp	r3, #1
 102 0068 07D1     		bne	.L5
 533:./Drivers/STM32H7xx_HAL_Driver/Src/stm32h7xx_hal_i2c.c ****   {
 534:./Drivers/STM32H7xx_HAL_Driver/Src/stm32h7xx_hal_i2c.c ****     hi2c->Instance->OAR1 = (I2C_OAR1_OA1EN | hi2c->Init.OwnAddress1);
 103              		.loc 1 534 56
 104 006a 7B68     		ldr	r3, [r7, #4]
 105 006c 9A68     		ldr	r2, [r3, #8]
 106              		.loc 1 534 9
 107 006e 7B68     		ldr	r3, [r7, #4]
 108 0070 1B68     		ldr	r3, [r3]
 109              		.loc 1 534 44
 110 0072 42F40042 		orr	r2, r2, #32768
 111              		.loc 1 534 26
 112 0076 9A60     		str	r2, [r3, #8]
 113 0078 06E0     		b	.L6
 114              	.L5:
 535:./Drivers/STM32H7xx_HAL_Driver/Src/stm32h7xx_hal_i2c.c ****   }
 536:./Drivers/STM32H7xx_HAL_Driver/Src/stm32h7xx_hal_i2c.c ****   else /* I2C_ADDRESSINGMODE_10BIT */
 537:./Drivers/STM32H7xx_HAL_Driver/Src/stm32h7xx_hal_i2c.c ****   {
 538:./Drivers/STM32H7xx_HAL_Driver/Src/stm32h7xx_hal_i2c.c ****     hi2c->Instance->OAR1 = (I2C_OAR1_OA1EN | I2C_OAR1_OA1MODE | hi2c->Init.OwnAddress1);
 115              		.loc 1 538 75
 116 007a 7B68     		ldr	r3, [r7, #4]
 117 007c 9A68     		ldr	r2, [r3, #8]
 118              		.loc 1 538 9
 119 007e 7B68     		ldr	r3, [r7, #4]
 120 0080 1B68     		ldr	r3, [r3]
 121              		.loc 1 538 63
 122 0082 42F40442 		orr	r2, r2, #33792
 123              		.loc 1 538 26
 124 0086 9A60     		str	r2, [r3, #8]
 125              	.L6:
 539:./Drivers/STM32H7xx_HAL_Driver/Src/stm32h7xx_hal_i2c.c ****   }
 540:./Drivers/STM32H7xx_HAL_Driver/Src/stm32h7xx_hal_i2c.c **** 
 541:./Drivers/STM32H7xx_HAL_Driver/Src/stm32h7xx_hal_i2c.c ****   /*---------------------------- I2Cx CR2 Configuration ----------------------*/
 542:./Drivers/STM32H7xx_HAL_Driver/Src/stm32h7xx_hal_i2c.c ****   /* Configure I2Cx: Addressing Master mode */
 543:./Drivers/STM32H7xx_HAL_Driver/Src/stm32h7xx_hal_i2c.c ****   if (hi2c->Init.AddressingMode == I2C_ADDRESSINGMODE_10BIT)
 126              		.loc 1 543 17
 127 0088 7B68     		ldr	r3, [r7, #4]
 128 008a DB68     		ldr	r3, [r3, #12]
 129              		.loc 1 543 6
 130 008c 022B     		cmp	r3, #2
 131 008e 04D1     		bne	.L7
 544:./Drivers/STM32H7xx_HAL_Driver/Src/stm32h7xx_hal_i2c.c ****   {
 545:./Drivers/STM32H7xx_HAL_Driver/Src/stm32h7xx_hal_i2c.c ****     hi2c->Instance->CR2 = (I2C_CR2_ADD10);
 132              		.loc 1 545 9
 133 0090 7B68     		ldr	r3, [r7, #4]
 134 0092 1B68     		ldr	r3, [r3]
 135              		.loc 1 545 25
 136 0094 4FF40062 		mov	r2, #2048
 137 0098 5A60     		str	r2, [r3, #4]
 138              	.L7:
 546:./Drivers/STM32H7xx_HAL_Driver/Src/stm32h7xx_hal_i2c.c ****   }
 547:./Drivers/STM32H7xx_HAL_Driver/Src/stm32h7xx_hal_i2c.c ****   /* Enable the AUTOEND by default, and enable NACK (should be disable only during Slave process */
ARM GAS  /tmp/ccHvg3ba.s 			page 13


 548:./Drivers/STM32H7xx_HAL_Driver/Src/stm32h7xx_hal_i2c.c ****   hi2c->Instance->CR2 |= (I2C_CR2_AUTOEND | I2C_CR2_NACK);
 139              		.loc 1 548 7
 140 009a 7B68     		ldr	r3, [r7, #4]
 141 009c 1B68     		ldr	r3, [r3]
 142              		.loc 1 548 23
 143 009e 5968     		ldr	r1, [r3, #4]
 144              		.loc 1 548 7
 145 00a0 7B68     		ldr	r3, [r7, #4]
 146 00a2 1A68     		ldr	r2, [r3]
 147              		.loc 1 548 23
 148 00a4 1D4B     		ldr	r3, .L8
 149 00a6 0B43     		orrs	r3, r3, r1
 150 00a8 5360     		str	r3, [r2, #4]
 549:./Drivers/STM32H7xx_HAL_Driver/Src/stm32h7xx_hal_i2c.c **** 
 550:./Drivers/STM32H7xx_HAL_Driver/Src/stm32h7xx_hal_i2c.c ****   /*---------------------------- I2Cx OAR2 Configuration ---------------------*/
 551:./Drivers/STM32H7xx_HAL_Driver/Src/stm32h7xx_hal_i2c.c ****   /* Disable Own Address2 before set the Own Address2 configuration */
 552:./Drivers/STM32H7xx_HAL_Driver/Src/stm32h7xx_hal_i2c.c ****   hi2c->Instance->OAR2 &= ~I2C_DUALADDRESS_ENABLE;
 151              		.loc 1 552 7
 152 00aa 7B68     		ldr	r3, [r7, #4]
 153 00ac 1B68     		ldr	r3, [r3]
 154              		.loc 1 552 24
 155 00ae DA68     		ldr	r2, [r3, #12]
 156              		.loc 1 552 7
 157 00b0 7B68     		ldr	r3, [r7, #4]
 158 00b2 1B68     		ldr	r3, [r3]
 159              		.loc 1 552 24
 160 00b4 22F40042 		bic	r2, r2, #32768
 161 00b8 DA60     		str	r2, [r3, #12]
 553:./Drivers/STM32H7xx_HAL_Driver/Src/stm32h7xx_hal_i2c.c **** 
 554:./Drivers/STM32H7xx_HAL_Driver/Src/stm32h7xx_hal_i2c.c ****   /* Configure I2Cx: Dual mode and Own Address2 */
 555:./Drivers/STM32H7xx_HAL_Driver/Src/stm32h7xx_hal_i2c.c ****   hi2c->Instance->OAR2 = (hi2c->Init.DualAddressMode | hi2c->Init.OwnAddress2 | (hi2c->Init.OwnAddr
 162              		.loc 1 555 37
 163 00ba 7B68     		ldr	r3, [r7, #4]
 164 00bc 1A69     		ldr	r2, [r3, #16]
 165              		.loc 1 555 66
 166 00be 7B68     		ldr	r3, [r7, #4]
 167 00c0 5B69     		ldr	r3, [r3, #20]
 168              		.loc 1 555 54
 169 00c2 42EA0301 		orr	r1, r2, r3
 170              		.loc 1 555 92
 171 00c6 7B68     		ldr	r3, [r7, #4]
 172 00c8 9B69     		ldr	r3, [r3, #24]
 173              		.loc 1 555 110
 174 00ca 1A02     		lsls	r2, r3, #8
 175              		.loc 1 555 7
 176 00cc 7B68     		ldr	r3, [r7, #4]
 177 00ce 1B68     		ldr	r3, [r3]
 178              		.loc 1 555 79
 179 00d0 0A43     		orrs	r2, r2, r1
 180              		.loc 1 555 24
 181 00d2 DA60     		str	r2, [r3, #12]
 556:./Drivers/STM32H7xx_HAL_Driver/Src/stm32h7xx_hal_i2c.c **** 
 557:./Drivers/STM32H7xx_HAL_Driver/Src/stm32h7xx_hal_i2c.c ****   /*---------------------------- I2Cx CR1 Configuration ----------------------*/
 558:./Drivers/STM32H7xx_HAL_Driver/Src/stm32h7xx_hal_i2c.c ****   /* Configure I2Cx: Generalcall and NoStretch mode */
 559:./Drivers/STM32H7xx_HAL_Driver/Src/stm32h7xx_hal_i2c.c ****   hi2c->Instance->CR1 = (hi2c->Init.GeneralCallMode | hi2c->Init.NoStretchMode);
 182              		.loc 1 559 36
 183 00d4 7B68     		ldr	r3, [r7, #4]
ARM GAS  /tmp/ccHvg3ba.s 			page 14


 184 00d6 D969     		ldr	r1, [r3, #28]
 185              		.loc 1 559 65
 186 00d8 7B68     		ldr	r3, [r7, #4]
 187 00da 1A6A     		ldr	r2, [r3, #32]
 188              		.loc 1 559 7
 189 00dc 7B68     		ldr	r3, [r7, #4]
 190 00de 1B68     		ldr	r3, [r3]
 191              		.loc 1 559 53
 192 00e0 0A43     		orrs	r2, r2, r1
 193              		.loc 1 559 23
 194 00e2 1A60     		str	r2, [r3]
 560:./Drivers/STM32H7xx_HAL_Driver/Src/stm32h7xx_hal_i2c.c **** 
 561:./Drivers/STM32H7xx_HAL_Driver/Src/stm32h7xx_hal_i2c.c ****   /* Enable the selected I2C peripheral */
 562:./Drivers/STM32H7xx_HAL_Driver/Src/stm32h7xx_hal_i2c.c ****   __HAL_I2C_ENABLE(hi2c);
 195              		.loc 1 562 3
 196 00e4 7B68     		ldr	r3, [r7, #4]
 197 00e6 1B68     		ldr	r3, [r3]
 198 00e8 1A68     		ldr	r2, [r3]
 199 00ea 7B68     		ldr	r3, [r7, #4]
 200 00ec 1B68     		ldr	r3, [r3]
 201 00ee 42F00102 		orr	r2, r2, #1
 202 00f2 1A60     		str	r2, [r3]
 563:./Drivers/STM32H7xx_HAL_Driver/Src/stm32h7xx_hal_i2c.c **** 
 564:./Drivers/STM32H7xx_HAL_Driver/Src/stm32h7xx_hal_i2c.c ****   hi2c->ErrorCode = HAL_I2C_ERROR_NONE;
 203              		.loc 1 564 19
 204 00f4 7B68     		ldr	r3, [r7, #4]
 205 00f6 0022     		movs	r2, #0
 206 00f8 5A64     		str	r2, [r3, #68]
 565:./Drivers/STM32H7xx_HAL_Driver/Src/stm32h7xx_hal_i2c.c ****   hi2c->State = HAL_I2C_STATE_READY;
 207              		.loc 1 565 15
 208 00fa 7B68     		ldr	r3, [r7, #4]
 209 00fc 2022     		movs	r2, #32
 210 00fe 83F84120 		strb	r2, [r3, #65]
 566:./Drivers/STM32H7xx_HAL_Driver/Src/stm32h7xx_hal_i2c.c ****   hi2c->PreviousState = I2C_STATE_NONE;
 211              		.loc 1 566 23
 212 0102 7B68     		ldr	r3, [r7, #4]
 213 0104 0022     		movs	r2, #0
 214 0106 1A63     		str	r2, [r3, #48]
 567:./Drivers/STM32H7xx_HAL_Driver/Src/stm32h7xx_hal_i2c.c ****   hi2c->Mode = HAL_I2C_MODE_NONE;
 215              		.loc 1 567 14
 216 0108 7B68     		ldr	r3, [r7, #4]
 217 010a 0022     		movs	r2, #0
 218 010c 83F84220 		strb	r2, [r3, #66]
 568:./Drivers/STM32H7xx_HAL_Driver/Src/stm32h7xx_hal_i2c.c **** 
 569:./Drivers/STM32H7xx_HAL_Driver/Src/stm32h7xx_hal_i2c.c ****   return HAL_OK;
 219              		.loc 1 569 10
 220 0110 0023     		movs	r3, #0
 221              	.L3:
 570:./Drivers/STM32H7xx_HAL_Driver/Src/stm32h7xx_hal_i2c.c **** }
 222              		.loc 1 570 1
 223 0112 1846     		mov	r0, r3
 224 0114 0837     		adds	r7, r7, #8
 225              		.cfi_def_cfa_offset 8
 226 0116 BD46     		mov	sp, r7
 227              		.cfi_def_cfa_register 13
 228              		@ sp needed
 229 0118 80BD     		pop	{r7, pc}
ARM GAS  /tmp/ccHvg3ba.s 			page 15


 230              	.L9:
 231 011a 00BF     		.align	2
 232              	.L8:
 233 011c 00800002 		.word	33587200
 234              		.cfi_endproc
 235              	.LFE134:
 237              		.section	.text.HAL_I2C_DeInit,"ax",%progbits
 238              		.align	1
 239              		.global	HAL_I2C_DeInit
 240              		.syntax unified
 241              		.thumb
 242              		.thumb_func
 243              		.fpu fpv5-d16
 245              	HAL_I2C_DeInit:
 246              	.LFB135:
 571:./Drivers/STM32H7xx_HAL_Driver/Src/stm32h7xx_hal_i2c.c **** 
 572:./Drivers/STM32H7xx_HAL_Driver/Src/stm32h7xx_hal_i2c.c **** /**
 573:./Drivers/STM32H7xx_HAL_Driver/Src/stm32h7xx_hal_i2c.c ****   * @brief  DeInitialize the I2C peripheral.
 574:./Drivers/STM32H7xx_HAL_Driver/Src/stm32h7xx_hal_i2c.c ****   * @param  hi2c Pointer to a I2C_HandleTypeDef structure that contains
 575:./Drivers/STM32H7xx_HAL_Driver/Src/stm32h7xx_hal_i2c.c ****   *                the configuration information for the specified I2C.
 576:./Drivers/STM32H7xx_HAL_Driver/Src/stm32h7xx_hal_i2c.c ****   * @retval HAL status
 577:./Drivers/STM32H7xx_HAL_Driver/Src/stm32h7xx_hal_i2c.c ****   */
 578:./Drivers/STM32H7xx_HAL_Driver/Src/stm32h7xx_hal_i2c.c **** HAL_StatusTypeDef HAL_I2C_DeInit(I2C_HandleTypeDef *hi2c)
 579:./Drivers/STM32H7xx_HAL_Driver/Src/stm32h7xx_hal_i2c.c **** {
 247              		.loc 1 579 1
 248              		.cfi_startproc
 249              		@ args = 0, pretend = 0, frame = 8
 250              		@ frame_needed = 1, uses_anonymous_args = 0
 251 0000 80B5     		push	{r7, lr}
 252              		.cfi_def_cfa_offset 8
 253              		.cfi_offset 7, -8
 254              		.cfi_offset 14, -4
 255 0002 82B0     		sub	sp, sp, #8
 256              		.cfi_def_cfa_offset 16
 257 0004 00AF     		add	r7, sp, #0
 258              		.cfi_def_cfa_register 7
 259 0006 7860     		str	r0, [r7, #4]
 580:./Drivers/STM32H7xx_HAL_Driver/Src/stm32h7xx_hal_i2c.c ****   /* Check the I2C handle allocation */
 581:./Drivers/STM32H7xx_HAL_Driver/Src/stm32h7xx_hal_i2c.c ****   if (hi2c == NULL)
 260              		.loc 1 581 6
 261 0008 7B68     		ldr	r3, [r7, #4]
 262 000a 002B     		cmp	r3, #0
 263 000c 01D1     		bne	.L11
 582:./Drivers/STM32H7xx_HAL_Driver/Src/stm32h7xx_hal_i2c.c ****   {
 583:./Drivers/STM32H7xx_HAL_Driver/Src/stm32h7xx_hal_i2c.c ****     return HAL_ERROR;
 264              		.loc 1 583 12
 265 000e 0123     		movs	r3, #1
 266 0010 21E0     		b	.L12
 267              	.L11:
 584:./Drivers/STM32H7xx_HAL_Driver/Src/stm32h7xx_hal_i2c.c ****   }
 585:./Drivers/STM32H7xx_HAL_Driver/Src/stm32h7xx_hal_i2c.c **** 
 586:./Drivers/STM32H7xx_HAL_Driver/Src/stm32h7xx_hal_i2c.c ****   /* Check the parameters */
 587:./Drivers/STM32H7xx_HAL_Driver/Src/stm32h7xx_hal_i2c.c ****   assert_param(IS_I2C_ALL_INSTANCE(hi2c->Instance));
 588:./Drivers/STM32H7xx_HAL_Driver/Src/stm32h7xx_hal_i2c.c **** 
 589:./Drivers/STM32H7xx_HAL_Driver/Src/stm32h7xx_hal_i2c.c ****   hi2c->State = HAL_I2C_STATE_BUSY;
 268              		.loc 1 589 15
 269 0012 7B68     		ldr	r3, [r7, #4]
ARM GAS  /tmp/ccHvg3ba.s 			page 16


 270 0014 2422     		movs	r2, #36
 271 0016 83F84120 		strb	r2, [r3, #65]
 590:./Drivers/STM32H7xx_HAL_Driver/Src/stm32h7xx_hal_i2c.c **** 
 591:./Drivers/STM32H7xx_HAL_Driver/Src/stm32h7xx_hal_i2c.c ****   /* Disable the I2C Peripheral Clock */
 592:./Drivers/STM32H7xx_HAL_Driver/Src/stm32h7xx_hal_i2c.c ****   __HAL_I2C_DISABLE(hi2c);
 272              		.loc 1 592 3
 273 001a 7B68     		ldr	r3, [r7, #4]
 274 001c 1B68     		ldr	r3, [r3]
 275 001e 1A68     		ldr	r2, [r3]
 276 0020 7B68     		ldr	r3, [r7, #4]
 277 0022 1B68     		ldr	r3, [r3]
 278 0024 22F00102 		bic	r2, r2, #1
 279 0028 1A60     		str	r2, [r3]
 593:./Drivers/STM32H7xx_HAL_Driver/Src/stm32h7xx_hal_i2c.c **** 
 594:./Drivers/STM32H7xx_HAL_Driver/Src/stm32h7xx_hal_i2c.c **** #if (USE_HAL_I2C_REGISTER_CALLBACKS == 1)
 595:./Drivers/STM32H7xx_HAL_Driver/Src/stm32h7xx_hal_i2c.c ****   if (hi2c->MspDeInitCallback == NULL)
 596:./Drivers/STM32H7xx_HAL_Driver/Src/stm32h7xx_hal_i2c.c ****   {
 597:./Drivers/STM32H7xx_HAL_Driver/Src/stm32h7xx_hal_i2c.c ****     hi2c->MspDeInitCallback = HAL_I2C_MspDeInit; /* Legacy weak MspDeInit  */
 598:./Drivers/STM32H7xx_HAL_Driver/Src/stm32h7xx_hal_i2c.c ****   }
 599:./Drivers/STM32H7xx_HAL_Driver/Src/stm32h7xx_hal_i2c.c **** 
 600:./Drivers/STM32H7xx_HAL_Driver/Src/stm32h7xx_hal_i2c.c ****   /* DeInit the low level hardware: GPIO, CLOCK, NVIC */
 601:./Drivers/STM32H7xx_HAL_Driver/Src/stm32h7xx_hal_i2c.c ****   hi2c->MspDeInitCallback(hi2c);
 602:./Drivers/STM32H7xx_HAL_Driver/Src/stm32h7xx_hal_i2c.c **** #else
 603:./Drivers/STM32H7xx_HAL_Driver/Src/stm32h7xx_hal_i2c.c ****   /* DeInit the low level hardware: GPIO, CLOCK, NVIC */
 604:./Drivers/STM32H7xx_HAL_Driver/Src/stm32h7xx_hal_i2c.c ****   HAL_I2C_MspDeInit(hi2c);
 280              		.loc 1 604 3
 281 002a 7868     		ldr	r0, [r7, #4]
 282 002c FFF7FEFF 		bl	HAL_I2C_MspDeInit
 605:./Drivers/STM32H7xx_HAL_Driver/Src/stm32h7xx_hal_i2c.c **** #endif /* USE_HAL_I2C_REGISTER_CALLBACKS */
 606:./Drivers/STM32H7xx_HAL_Driver/Src/stm32h7xx_hal_i2c.c **** 
 607:./Drivers/STM32H7xx_HAL_Driver/Src/stm32h7xx_hal_i2c.c ****   hi2c->ErrorCode = HAL_I2C_ERROR_NONE;
 283              		.loc 1 607 19
 284 0030 7B68     		ldr	r3, [r7, #4]
 285 0032 0022     		movs	r2, #0
 286 0034 5A64     		str	r2, [r3, #68]
 608:./Drivers/STM32H7xx_HAL_Driver/Src/stm32h7xx_hal_i2c.c ****   hi2c->State = HAL_I2C_STATE_RESET;
 287              		.loc 1 608 15
 288 0036 7B68     		ldr	r3, [r7, #4]
 289 0038 0022     		movs	r2, #0
 290 003a 83F84120 		strb	r2, [r3, #65]
 609:./Drivers/STM32H7xx_HAL_Driver/Src/stm32h7xx_hal_i2c.c ****   hi2c->PreviousState = I2C_STATE_NONE;
 291              		.loc 1 609 23
 292 003e 7B68     		ldr	r3, [r7, #4]
 293 0040 0022     		movs	r2, #0
 294 0042 1A63     		str	r2, [r3, #48]
 610:./Drivers/STM32H7xx_HAL_Driver/Src/stm32h7xx_hal_i2c.c ****   hi2c->Mode = HAL_I2C_MODE_NONE;
 295              		.loc 1 610 14
 296 0044 7B68     		ldr	r3, [r7, #4]
 297 0046 0022     		movs	r2, #0
 298 0048 83F84220 		strb	r2, [r3, #66]
 611:./Drivers/STM32H7xx_HAL_Driver/Src/stm32h7xx_hal_i2c.c **** 
 612:./Drivers/STM32H7xx_HAL_Driver/Src/stm32h7xx_hal_i2c.c ****   /* Release Lock */
 613:./Drivers/STM32H7xx_HAL_Driver/Src/stm32h7xx_hal_i2c.c ****   __HAL_UNLOCK(hi2c);
 299              		.loc 1 613 3
 300 004c 7B68     		ldr	r3, [r7, #4]
 301 004e 0022     		movs	r2, #0
 302 0050 83F84020 		strb	r2, [r3, #64]
ARM GAS  /tmp/ccHvg3ba.s 			page 17


 614:./Drivers/STM32H7xx_HAL_Driver/Src/stm32h7xx_hal_i2c.c **** 
 615:./Drivers/STM32H7xx_HAL_Driver/Src/stm32h7xx_hal_i2c.c ****   return HAL_OK;
 303              		.loc 1 615 10
 304 0054 0023     		movs	r3, #0
 305              	.L12:
 616:./Drivers/STM32H7xx_HAL_Driver/Src/stm32h7xx_hal_i2c.c **** }
 306              		.loc 1 616 1
 307 0056 1846     		mov	r0, r3
 308 0058 0837     		adds	r7, r7, #8
 309              		.cfi_def_cfa_offset 8
 310 005a BD46     		mov	sp, r7
 311              		.cfi_def_cfa_register 13
 312              		@ sp needed
 313 005c 80BD     		pop	{r7, pc}
 314              		.cfi_endproc
 315              	.LFE135:
 317              		.section	.text.HAL_I2C_MspInit,"ax",%progbits
 318              		.align	1
 319              		.weak	HAL_I2C_MspInit
 320              		.syntax unified
 321              		.thumb
 322              		.thumb_func
 323              		.fpu fpv5-d16
 325              	HAL_I2C_MspInit:
 326              	.LFB136:
 617:./Drivers/STM32H7xx_HAL_Driver/Src/stm32h7xx_hal_i2c.c **** 
 618:./Drivers/STM32H7xx_HAL_Driver/Src/stm32h7xx_hal_i2c.c **** /**
 619:./Drivers/STM32H7xx_HAL_Driver/Src/stm32h7xx_hal_i2c.c ****   * @brief Initialize the I2C MSP.
 620:./Drivers/STM32H7xx_HAL_Driver/Src/stm32h7xx_hal_i2c.c ****   * @param  hi2c Pointer to a I2C_HandleTypeDef structure that contains
 621:./Drivers/STM32H7xx_HAL_Driver/Src/stm32h7xx_hal_i2c.c ****   *                the configuration information for the specified I2C.
 622:./Drivers/STM32H7xx_HAL_Driver/Src/stm32h7xx_hal_i2c.c ****   * @retval None
 623:./Drivers/STM32H7xx_HAL_Driver/Src/stm32h7xx_hal_i2c.c ****   */
 624:./Drivers/STM32H7xx_HAL_Driver/Src/stm32h7xx_hal_i2c.c **** __weak void HAL_I2C_MspInit(I2C_HandleTypeDef *hi2c)
 625:./Drivers/STM32H7xx_HAL_Driver/Src/stm32h7xx_hal_i2c.c **** {
 327              		.loc 1 625 1
 328              		.cfi_startproc
 329              		@ args = 0, pretend = 0, frame = 8
 330              		@ frame_needed = 1, uses_anonymous_args = 0
 331              		@ link register save eliminated.
 332 0000 80B4     		push	{r7}
 333              		.cfi_def_cfa_offset 4
 334              		.cfi_offset 7, -4
 335 0002 83B0     		sub	sp, sp, #12
 336              		.cfi_def_cfa_offset 16
 337 0004 00AF     		add	r7, sp, #0
 338              		.cfi_def_cfa_register 7
 339 0006 7860     		str	r0, [r7, #4]
 626:./Drivers/STM32H7xx_HAL_Driver/Src/stm32h7xx_hal_i2c.c ****   /* Prevent unused argument(s) compilation warning */
 627:./Drivers/STM32H7xx_HAL_Driver/Src/stm32h7xx_hal_i2c.c ****   UNUSED(hi2c);
 628:./Drivers/STM32H7xx_HAL_Driver/Src/stm32h7xx_hal_i2c.c **** 
 629:./Drivers/STM32H7xx_HAL_Driver/Src/stm32h7xx_hal_i2c.c ****   /* NOTE : This function should not be modified, when the callback is needed,
 630:./Drivers/STM32H7xx_HAL_Driver/Src/stm32h7xx_hal_i2c.c ****             the HAL_I2C_MspInit could be implemented in the user file
 631:./Drivers/STM32H7xx_HAL_Driver/Src/stm32h7xx_hal_i2c.c ****    */
 632:./Drivers/STM32H7xx_HAL_Driver/Src/stm32h7xx_hal_i2c.c **** }
 340              		.loc 1 632 1
 341 0008 00BF     		nop
 342 000a 0C37     		adds	r7, r7, #12
ARM GAS  /tmp/ccHvg3ba.s 			page 18


 343              		.cfi_def_cfa_offset 4
 344 000c BD46     		mov	sp, r7
 345              		.cfi_def_cfa_register 13
 346              		@ sp needed
 347 000e 5DF8047B 		ldr	r7, [sp], #4
 348              		.cfi_restore 7
 349              		.cfi_def_cfa_offset 0
 350 0012 7047     		bx	lr
 351              		.cfi_endproc
 352              	.LFE136:
 354              		.section	.text.HAL_I2C_MspDeInit,"ax",%progbits
 355              		.align	1
 356              		.weak	HAL_I2C_MspDeInit
 357              		.syntax unified
 358              		.thumb
 359              		.thumb_func
 360              		.fpu fpv5-d16
 362              	HAL_I2C_MspDeInit:
 363              	.LFB137:
 633:./Drivers/STM32H7xx_HAL_Driver/Src/stm32h7xx_hal_i2c.c **** 
 634:./Drivers/STM32H7xx_HAL_Driver/Src/stm32h7xx_hal_i2c.c **** /**
 635:./Drivers/STM32H7xx_HAL_Driver/Src/stm32h7xx_hal_i2c.c ****   * @brief DeInitialize the I2C MSP.
 636:./Drivers/STM32H7xx_HAL_Driver/Src/stm32h7xx_hal_i2c.c ****   * @param  hi2c Pointer to a I2C_HandleTypeDef structure that contains
 637:./Drivers/STM32H7xx_HAL_Driver/Src/stm32h7xx_hal_i2c.c ****   *                the configuration information for the specified I2C.
 638:./Drivers/STM32H7xx_HAL_Driver/Src/stm32h7xx_hal_i2c.c ****   * @retval None
 639:./Drivers/STM32H7xx_HAL_Driver/Src/stm32h7xx_hal_i2c.c ****   */
 640:./Drivers/STM32H7xx_HAL_Driver/Src/stm32h7xx_hal_i2c.c **** __weak void HAL_I2C_MspDeInit(I2C_HandleTypeDef *hi2c)
 641:./Drivers/STM32H7xx_HAL_Driver/Src/stm32h7xx_hal_i2c.c **** {
 364              		.loc 1 641 1
 365              		.cfi_startproc
 366              		@ args = 0, pretend = 0, frame = 8
 367              		@ frame_needed = 1, uses_anonymous_args = 0
 368              		@ link register save eliminated.
 369 0000 80B4     		push	{r7}
 370              		.cfi_def_cfa_offset 4
 371              		.cfi_offset 7, -4
 372 0002 83B0     		sub	sp, sp, #12
 373              		.cfi_def_cfa_offset 16
 374 0004 00AF     		add	r7, sp, #0
 375              		.cfi_def_cfa_register 7
 376 0006 7860     		str	r0, [r7, #4]
 642:./Drivers/STM32H7xx_HAL_Driver/Src/stm32h7xx_hal_i2c.c ****   /* Prevent unused argument(s) compilation warning */
 643:./Drivers/STM32H7xx_HAL_Driver/Src/stm32h7xx_hal_i2c.c ****   UNUSED(hi2c);
 644:./Drivers/STM32H7xx_HAL_Driver/Src/stm32h7xx_hal_i2c.c **** 
 645:./Drivers/STM32H7xx_HAL_Driver/Src/stm32h7xx_hal_i2c.c ****   /* NOTE : This function should not be modified, when the callback is needed,
 646:./Drivers/STM32H7xx_HAL_Driver/Src/stm32h7xx_hal_i2c.c ****             the HAL_I2C_MspDeInit could be implemented in the user file
 647:./Drivers/STM32H7xx_HAL_Driver/Src/stm32h7xx_hal_i2c.c ****    */
 648:./Drivers/STM32H7xx_HAL_Driver/Src/stm32h7xx_hal_i2c.c **** }
 377              		.loc 1 648 1
 378 0008 00BF     		nop
 379 000a 0C37     		adds	r7, r7, #12
 380              		.cfi_def_cfa_offset 4
 381 000c BD46     		mov	sp, r7
 382              		.cfi_def_cfa_register 13
 383              		@ sp needed
 384 000e 5DF8047B 		ldr	r7, [sp], #4
 385              		.cfi_restore 7
ARM GAS  /tmp/ccHvg3ba.s 			page 19


 386              		.cfi_def_cfa_offset 0
 387 0012 7047     		bx	lr
 388              		.cfi_endproc
 389              	.LFE137:
 391              		.section	.text.HAL_I2C_Master_Transmit,"ax",%progbits
 392              		.align	1
 393              		.global	HAL_I2C_Master_Transmit
 394              		.syntax unified
 395              		.thumb
 396              		.thumb_func
 397              		.fpu fpv5-d16
 399              	HAL_I2C_Master_Transmit:
 400              	.LFB138:
 649:./Drivers/STM32H7xx_HAL_Driver/Src/stm32h7xx_hal_i2c.c **** 
 650:./Drivers/STM32H7xx_HAL_Driver/Src/stm32h7xx_hal_i2c.c **** #if (USE_HAL_I2C_REGISTER_CALLBACKS == 1)
 651:./Drivers/STM32H7xx_HAL_Driver/Src/stm32h7xx_hal_i2c.c **** /**
 652:./Drivers/STM32H7xx_HAL_Driver/Src/stm32h7xx_hal_i2c.c ****   * @brief  Register a User I2C Callback
 653:./Drivers/STM32H7xx_HAL_Driver/Src/stm32h7xx_hal_i2c.c ****   *         To be used instead of the weak predefined callback
 654:./Drivers/STM32H7xx_HAL_Driver/Src/stm32h7xx_hal_i2c.c ****   * @param  hi2c Pointer to a I2C_HandleTypeDef structure that contains
 655:./Drivers/STM32H7xx_HAL_Driver/Src/stm32h7xx_hal_i2c.c ****   *                the configuration information for the specified I2C.
 656:./Drivers/STM32H7xx_HAL_Driver/Src/stm32h7xx_hal_i2c.c ****   * @param  CallbackID ID of the callback to be registered
 657:./Drivers/STM32H7xx_HAL_Driver/Src/stm32h7xx_hal_i2c.c ****   *         This parameter can be one of the following values:
 658:./Drivers/STM32H7xx_HAL_Driver/Src/stm32h7xx_hal_i2c.c ****   *          @arg @ref HAL_I2C_MASTER_TX_COMPLETE_CB_ID Master Tx Transfer completed callback ID
 659:./Drivers/STM32H7xx_HAL_Driver/Src/stm32h7xx_hal_i2c.c ****   *          @arg @ref HAL_I2C_MASTER_RX_COMPLETE_CB_ID Master Rx Transfer completed callback ID
 660:./Drivers/STM32H7xx_HAL_Driver/Src/stm32h7xx_hal_i2c.c ****   *          @arg @ref HAL_I2C_SLAVE_TX_COMPLETE_CB_ID Slave Tx Transfer completed callback ID
 661:./Drivers/STM32H7xx_HAL_Driver/Src/stm32h7xx_hal_i2c.c ****   *          @arg @ref HAL_I2C_SLAVE_RX_COMPLETE_CB_ID Slave Rx Transfer completed callback ID
 662:./Drivers/STM32H7xx_HAL_Driver/Src/stm32h7xx_hal_i2c.c ****   *          @arg @ref HAL_I2C_LISTEN_COMPLETE_CB_ID Listen Complete callback ID
 663:./Drivers/STM32H7xx_HAL_Driver/Src/stm32h7xx_hal_i2c.c ****   *          @arg @ref HAL_I2C_MEM_TX_COMPLETE_CB_ID Memory Tx Transfer callback ID
 664:./Drivers/STM32H7xx_HAL_Driver/Src/stm32h7xx_hal_i2c.c ****   *          @arg @ref HAL_I2C_MEM_RX_COMPLETE_CB_ID Memory Rx Transfer completed callback ID
 665:./Drivers/STM32H7xx_HAL_Driver/Src/stm32h7xx_hal_i2c.c ****   *          @arg @ref HAL_I2C_ERROR_CB_ID Error callback ID
 666:./Drivers/STM32H7xx_HAL_Driver/Src/stm32h7xx_hal_i2c.c ****   *          @arg @ref HAL_I2C_ABORT_CB_ID Abort callback ID
 667:./Drivers/STM32H7xx_HAL_Driver/Src/stm32h7xx_hal_i2c.c ****   *          @arg @ref HAL_I2C_MSPINIT_CB_ID MspInit callback ID
 668:./Drivers/STM32H7xx_HAL_Driver/Src/stm32h7xx_hal_i2c.c ****   *          @arg @ref HAL_I2C_MSPDEINIT_CB_ID MspDeInit callback ID
 669:./Drivers/STM32H7xx_HAL_Driver/Src/stm32h7xx_hal_i2c.c ****   * @param  pCallback pointer to the Callback function
 670:./Drivers/STM32H7xx_HAL_Driver/Src/stm32h7xx_hal_i2c.c ****   * @retval HAL status
 671:./Drivers/STM32H7xx_HAL_Driver/Src/stm32h7xx_hal_i2c.c ****   */
 672:./Drivers/STM32H7xx_HAL_Driver/Src/stm32h7xx_hal_i2c.c **** HAL_StatusTypeDef HAL_I2C_RegisterCallback(I2C_HandleTypeDef *hi2c, HAL_I2C_CallbackIDTypeDef Callb
 673:./Drivers/STM32H7xx_HAL_Driver/Src/stm32h7xx_hal_i2c.c **** {
 674:./Drivers/STM32H7xx_HAL_Driver/Src/stm32h7xx_hal_i2c.c ****   HAL_StatusTypeDef status = HAL_OK;
 675:./Drivers/STM32H7xx_HAL_Driver/Src/stm32h7xx_hal_i2c.c **** 
 676:./Drivers/STM32H7xx_HAL_Driver/Src/stm32h7xx_hal_i2c.c ****   if (pCallback == NULL)
 677:./Drivers/STM32H7xx_HAL_Driver/Src/stm32h7xx_hal_i2c.c ****   {
 678:./Drivers/STM32H7xx_HAL_Driver/Src/stm32h7xx_hal_i2c.c ****     /* Update the error code */
 679:./Drivers/STM32H7xx_HAL_Driver/Src/stm32h7xx_hal_i2c.c ****     hi2c->ErrorCode |= HAL_I2C_ERROR_INVALID_CALLBACK;
 680:./Drivers/STM32H7xx_HAL_Driver/Src/stm32h7xx_hal_i2c.c **** 
 681:./Drivers/STM32H7xx_HAL_Driver/Src/stm32h7xx_hal_i2c.c ****     return HAL_ERROR;
 682:./Drivers/STM32H7xx_HAL_Driver/Src/stm32h7xx_hal_i2c.c ****   }
 683:./Drivers/STM32H7xx_HAL_Driver/Src/stm32h7xx_hal_i2c.c ****   /* Process locked */
 684:./Drivers/STM32H7xx_HAL_Driver/Src/stm32h7xx_hal_i2c.c ****   __HAL_LOCK(hi2c);
 685:./Drivers/STM32H7xx_HAL_Driver/Src/stm32h7xx_hal_i2c.c **** 
 686:./Drivers/STM32H7xx_HAL_Driver/Src/stm32h7xx_hal_i2c.c ****   if (HAL_I2C_STATE_READY == hi2c->State)
 687:./Drivers/STM32H7xx_HAL_Driver/Src/stm32h7xx_hal_i2c.c ****   {
 688:./Drivers/STM32H7xx_HAL_Driver/Src/stm32h7xx_hal_i2c.c ****     switch (CallbackID)
 689:./Drivers/STM32H7xx_HAL_Driver/Src/stm32h7xx_hal_i2c.c ****     {
 690:./Drivers/STM32H7xx_HAL_Driver/Src/stm32h7xx_hal_i2c.c ****       case HAL_I2C_MASTER_TX_COMPLETE_CB_ID :
 691:./Drivers/STM32H7xx_HAL_Driver/Src/stm32h7xx_hal_i2c.c ****         hi2c->MasterTxCpltCallback = pCallback;
 692:./Drivers/STM32H7xx_HAL_Driver/Src/stm32h7xx_hal_i2c.c ****         break;
ARM GAS  /tmp/ccHvg3ba.s 			page 20


 693:./Drivers/STM32H7xx_HAL_Driver/Src/stm32h7xx_hal_i2c.c **** 
 694:./Drivers/STM32H7xx_HAL_Driver/Src/stm32h7xx_hal_i2c.c ****       case HAL_I2C_MASTER_RX_COMPLETE_CB_ID :
 695:./Drivers/STM32H7xx_HAL_Driver/Src/stm32h7xx_hal_i2c.c ****         hi2c->MasterRxCpltCallback = pCallback;
 696:./Drivers/STM32H7xx_HAL_Driver/Src/stm32h7xx_hal_i2c.c ****         break;
 697:./Drivers/STM32H7xx_HAL_Driver/Src/stm32h7xx_hal_i2c.c **** 
 698:./Drivers/STM32H7xx_HAL_Driver/Src/stm32h7xx_hal_i2c.c ****       case HAL_I2C_SLAVE_TX_COMPLETE_CB_ID :
 699:./Drivers/STM32H7xx_HAL_Driver/Src/stm32h7xx_hal_i2c.c ****         hi2c->SlaveTxCpltCallback = pCallback;
 700:./Drivers/STM32H7xx_HAL_Driver/Src/stm32h7xx_hal_i2c.c ****         break;
 701:./Drivers/STM32H7xx_HAL_Driver/Src/stm32h7xx_hal_i2c.c **** 
 702:./Drivers/STM32H7xx_HAL_Driver/Src/stm32h7xx_hal_i2c.c ****       case HAL_I2C_SLAVE_RX_COMPLETE_CB_ID :
 703:./Drivers/STM32H7xx_HAL_Driver/Src/stm32h7xx_hal_i2c.c ****         hi2c->SlaveRxCpltCallback = pCallback;
 704:./Drivers/STM32H7xx_HAL_Driver/Src/stm32h7xx_hal_i2c.c ****         break;
 705:./Drivers/STM32H7xx_HAL_Driver/Src/stm32h7xx_hal_i2c.c **** 
 706:./Drivers/STM32H7xx_HAL_Driver/Src/stm32h7xx_hal_i2c.c ****       case HAL_I2C_LISTEN_COMPLETE_CB_ID :
 707:./Drivers/STM32H7xx_HAL_Driver/Src/stm32h7xx_hal_i2c.c ****         hi2c->ListenCpltCallback = pCallback;
 708:./Drivers/STM32H7xx_HAL_Driver/Src/stm32h7xx_hal_i2c.c ****         break;
 709:./Drivers/STM32H7xx_HAL_Driver/Src/stm32h7xx_hal_i2c.c **** 
 710:./Drivers/STM32H7xx_HAL_Driver/Src/stm32h7xx_hal_i2c.c ****       case HAL_I2C_MEM_TX_COMPLETE_CB_ID :
 711:./Drivers/STM32H7xx_HAL_Driver/Src/stm32h7xx_hal_i2c.c ****         hi2c->MemTxCpltCallback = pCallback;
 712:./Drivers/STM32H7xx_HAL_Driver/Src/stm32h7xx_hal_i2c.c ****         break;
 713:./Drivers/STM32H7xx_HAL_Driver/Src/stm32h7xx_hal_i2c.c **** 
 714:./Drivers/STM32H7xx_HAL_Driver/Src/stm32h7xx_hal_i2c.c ****       case HAL_I2C_MEM_RX_COMPLETE_CB_ID :
 715:./Drivers/STM32H7xx_HAL_Driver/Src/stm32h7xx_hal_i2c.c ****         hi2c->MemRxCpltCallback = pCallback;
 716:./Drivers/STM32H7xx_HAL_Driver/Src/stm32h7xx_hal_i2c.c ****         break;
 717:./Drivers/STM32H7xx_HAL_Driver/Src/stm32h7xx_hal_i2c.c **** 
 718:./Drivers/STM32H7xx_HAL_Driver/Src/stm32h7xx_hal_i2c.c ****       case HAL_I2C_ERROR_CB_ID :
 719:./Drivers/STM32H7xx_HAL_Driver/Src/stm32h7xx_hal_i2c.c ****         hi2c->ErrorCallback = pCallback;
 720:./Drivers/STM32H7xx_HAL_Driver/Src/stm32h7xx_hal_i2c.c ****         break;
 721:./Drivers/STM32H7xx_HAL_Driver/Src/stm32h7xx_hal_i2c.c **** 
 722:./Drivers/STM32H7xx_HAL_Driver/Src/stm32h7xx_hal_i2c.c ****       case HAL_I2C_ABORT_CB_ID :
 723:./Drivers/STM32H7xx_HAL_Driver/Src/stm32h7xx_hal_i2c.c ****         hi2c->AbortCpltCallback = pCallback;
 724:./Drivers/STM32H7xx_HAL_Driver/Src/stm32h7xx_hal_i2c.c ****         break;
 725:./Drivers/STM32H7xx_HAL_Driver/Src/stm32h7xx_hal_i2c.c **** 
 726:./Drivers/STM32H7xx_HAL_Driver/Src/stm32h7xx_hal_i2c.c ****       case HAL_I2C_MSPINIT_CB_ID :
 727:./Drivers/STM32H7xx_HAL_Driver/Src/stm32h7xx_hal_i2c.c ****         hi2c->MspInitCallback = pCallback;
 728:./Drivers/STM32H7xx_HAL_Driver/Src/stm32h7xx_hal_i2c.c ****         break;
 729:./Drivers/STM32H7xx_HAL_Driver/Src/stm32h7xx_hal_i2c.c **** 
 730:./Drivers/STM32H7xx_HAL_Driver/Src/stm32h7xx_hal_i2c.c ****       case HAL_I2C_MSPDEINIT_CB_ID :
 731:./Drivers/STM32H7xx_HAL_Driver/Src/stm32h7xx_hal_i2c.c ****         hi2c->MspDeInitCallback = pCallback;
 732:./Drivers/STM32H7xx_HAL_Driver/Src/stm32h7xx_hal_i2c.c ****         break;
 733:./Drivers/STM32H7xx_HAL_Driver/Src/stm32h7xx_hal_i2c.c **** 
 734:./Drivers/STM32H7xx_HAL_Driver/Src/stm32h7xx_hal_i2c.c ****       default :
 735:./Drivers/STM32H7xx_HAL_Driver/Src/stm32h7xx_hal_i2c.c ****         /* Update the error code */
 736:./Drivers/STM32H7xx_HAL_Driver/Src/stm32h7xx_hal_i2c.c ****         hi2c->ErrorCode |= HAL_I2C_ERROR_INVALID_CALLBACK;
 737:./Drivers/STM32H7xx_HAL_Driver/Src/stm32h7xx_hal_i2c.c **** 
 738:./Drivers/STM32H7xx_HAL_Driver/Src/stm32h7xx_hal_i2c.c ****         /* Return error status */
 739:./Drivers/STM32H7xx_HAL_Driver/Src/stm32h7xx_hal_i2c.c ****         status =  HAL_ERROR;
 740:./Drivers/STM32H7xx_HAL_Driver/Src/stm32h7xx_hal_i2c.c ****         break;
 741:./Drivers/STM32H7xx_HAL_Driver/Src/stm32h7xx_hal_i2c.c ****     }
 742:./Drivers/STM32H7xx_HAL_Driver/Src/stm32h7xx_hal_i2c.c ****   }
 743:./Drivers/STM32H7xx_HAL_Driver/Src/stm32h7xx_hal_i2c.c ****   else if (HAL_I2C_STATE_RESET == hi2c->State)
 744:./Drivers/STM32H7xx_HAL_Driver/Src/stm32h7xx_hal_i2c.c ****   {
 745:./Drivers/STM32H7xx_HAL_Driver/Src/stm32h7xx_hal_i2c.c ****     switch (CallbackID)
 746:./Drivers/STM32H7xx_HAL_Driver/Src/stm32h7xx_hal_i2c.c ****     {
 747:./Drivers/STM32H7xx_HAL_Driver/Src/stm32h7xx_hal_i2c.c ****       case HAL_I2C_MSPINIT_CB_ID :
 748:./Drivers/STM32H7xx_HAL_Driver/Src/stm32h7xx_hal_i2c.c ****         hi2c->MspInitCallback = pCallback;
 749:./Drivers/STM32H7xx_HAL_Driver/Src/stm32h7xx_hal_i2c.c ****         break;
ARM GAS  /tmp/ccHvg3ba.s 			page 21


 750:./Drivers/STM32H7xx_HAL_Driver/Src/stm32h7xx_hal_i2c.c **** 
 751:./Drivers/STM32H7xx_HAL_Driver/Src/stm32h7xx_hal_i2c.c ****       case HAL_I2C_MSPDEINIT_CB_ID :
 752:./Drivers/STM32H7xx_HAL_Driver/Src/stm32h7xx_hal_i2c.c ****         hi2c->MspDeInitCallback = pCallback;
 753:./Drivers/STM32H7xx_HAL_Driver/Src/stm32h7xx_hal_i2c.c ****         break;
 754:./Drivers/STM32H7xx_HAL_Driver/Src/stm32h7xx_hal_i2c.c **** 
 755:./Drivers/STM32H7xx_HAL_Driver/Src/stm32h7xx_hal_i2c.c ****       default :
 756:./Drivers/STM32H7xx_HAL_Driver/Src/stm32h7xx_hal_i2c.c ****         /* Update the error code */
 757:./Drivers/STM32H7xx_HAL_Driver/Src/stm32h7xx_hal_i2c.c ****         hi2c->ErrorCode |= HAL_I2C_ERROR_INVALID_CALLBACK;
 758:./Drivers/STM32H7xx_HAL_Driver/Src/stm32h7xx_hal_i2c.c **** 
 759:./Drivers/STM32H7xx_HAL_Driver/Src/stm32h7xx_hal_i2c.c ****         /* Return error status */
 760:./Drivers/STM32H7xx_HAL_Driver/Src/stm32h7xx_hal_i2c.c ****         status =  HAL_ERROR;
 761:./Drivers/STM32H7xx_HAL_Driver/Src/stm32h7xx_hal_i2c.c ****         break;
 762:./Drivers/STM32H7xx_HAL_Driver/Src/stm32h7xx_hal_i2c.c ****     }
 763:./Drivers/STM32H7xx_HAL_Driver/Src/stm32h7xx_hal_i2c.c ****   }
 764:./Drivers/STM32H7xx_HAL_Driver/Src/stm32h7xx_hal_i2c.c ****   else
 765:./Drivers/STM32H7xx_HAL_Driver/Src/stm32h7xx_hal_i2c.c ****   {
 766:./Drivers/STM32H7xx_HAL_Driver/Src/stm32h7xx_hal_i2c.c ****     /* Update the error code */
 767:./Drivers/STM32H7xx_HAL_Driver/Src/stm32h7xx_hal_i2c.c ****     hi2c->ErrorCode |= HAL_I2C_ERROR_INVALID_CALLBACK;
 768:./Drivers/STM32H7xx_HAL_Driver/Src/stm32h7xx_hal_i2c.c **** 
 769:./Drivers/STM32H7xx_HAL_Driver/Src/stm32h7xx_hal_i2c.c ****     /* Return error status */
 770:./Drivers/STM32H7xx_HAL_Driver/Src/stm32h7xx_hal_i2c.c ****     status =  HAL_ERROR;
 771:./Drivers/STM32H7xx_HAL_Driver/Src/stm32h7xx_hal_i2c.c ****   }
 772:./Drivers/STM32H7xx_HAL_Driver/Src/stm32h7xx_hal_i2c.c **** 
 773:./Drivers/STM32H7xx_HAL_Driver/Src/stm32h7xx_hal_i2c.c ****   /* Release Lock */
 774:./Drivers/STM32H7xx_HAL_Driver/Src/stm32h7xx_hal_i2c.c ****   __HAL_UNLOCK(hi2c);
 775:./Drivers/STM32H7xx_HAL_Driver/Src/stm32h7xx_hal_i2c.c ****   return status;
 776:./Drivers/STM32H7xx_HAL_Driver/Src/stm32h7xx_hal_i2c.c **** }
 777:./Drivers/STM32H7xx_HAL_Driver/Src/stm32h7xx_hal_i2c.c **** 
 778:./Drivers/STM32H7xx_HAL_Driver/Src/stm32h7xx_hal_i2c.c **** /**
 779:./Drivers/STM32H7xx_HAL_Driver/Src/stm32h7xx_hal_i2c.c ****   * @brief  Unregister an I2C Callback
 780:./Drivers/STM32H7xx_HAL_Driver/Src/stm32h7xx_hal_i2c.c ****   *         I2C callback is redirected to the weak predefined callback
 781:./Drivers/STM32H7xx_HAL_Driver/Src/stm32h7xx_hal_i2c.c ****   * @param  hi2c Pointer to a I2C_HandleTypeDef structure that contains
 782:./Drivers/STM32H7xx_HAL_Driver/Src/stm32h7xx_hal_i2c.c ****   *                the configuration information for the specified I2C.
 783:./Drivers/STM32H7xx_HAL_Driver/Src/stm32h7xx_hal_i2c.c ****   * @param  CallbackID ID of the callback to be unregistered
 784:./Drivers/STM32H7xx_HAL_Driver/Src/stm32h7xx_hal_i2c.c ****   *         This parameter can be one of the following values:
 785:./Drivers/STM32H7xx_HAL_Driver/Src/stm32h7xx_hal_i2c.c ****   *         This parameter can be one of the following values:
 786:./Drivers/STM32H7xx_HAL_Driver/Src/stm32h7xx_hal_i2c.c ****   *          @arg @ref HAL_I2C_MASTER_TX_COMPLETE_CB_ID Master Tx Transfer completed callback ID
 787:./Drivers/STM32H7xx_HAL_Driver/Src/stm32h7xx_hal_i2c.c ****   *          @arg @ref HAL_I2C_MASTER_RX_COMPLETE_CB_ID Master Rx Transfer completed callback ID
 788:./Drivers/STM32H7xx_HAL_Driver/Src/stm32h7xx_hal_i2c.c ****   *          @arg @ref HAL_I2C_SLAVE_TX_COMPLETE_CB_ID Slave Tx Transfer completed callback ID
 789:./Drivers/STM32H7xx_HAL_Driver/Src/stm32h7xx_hal_i2c.c ****   *          @arg @ref HAL_I2C_SLAVE_RX_COMPLETE_CB_ID Slave Rx Transfer completed callback ID
 790:./Drivers/STM32H7xx_HAL_Driver/Src/stm32h7xx_hal_i2c.c ****   *          @arg @ref HAL_I2C_LISTEN_COMPLETE_CB_ID Listen Complete callback ID
 791:./Drivers/STM32H7xx_HAL_Driver/Src/stm32h7xx_hal_i2c.c ****   *          @arg @ref HAL_I2C_MEM_TX_COMPLETE_CB_ID Memory Tx Transfer callback ID
 792:./Drivers/STM32H7xx_HAL_Driver/Src/stm32h7xx_hal_i2c.c ****   *          @arg @ref HAL_I2C_MEM_RX_COMPLETE_CB_ID Memory Rx Transfer completed callback ID
 793:./Drivers/STM32H7xx_HAL_Driver/Src/stm32h7xx_hal_i2c.c ****   *          @arg @ref HAL_I2C_ERROR_CB_ID Error callback ID
 794:./Drivers/STM32H7xx_HAL_Driver/Src/stm32h7xx_hal_i2c.c ****   *          @arg @ref HAL_I2C_ABORT_CB_ID Abort callback ID
 795:./Drivers/STM32H7xx_HAL_Driver/Src/stm32h7xx_hal_i2c.c ****   *          @arg @ref HAL_I2C_MSPINIT_CB_ID MspInit callback ID
 796:./Drivers/STM32H7xx_HAL_Driver/Src/stm32h7xx_hal_i2c.c ****   *          @arg @ref HAL_I2C_MSPDEINIT_CB_ID MspDeInit callback ID
 797:./Drivers/STM32H7xx_HAL_Driver/Src/stm32h7xx_hal_i2c.c ****   * @retval HAL status
 798:./Drivers/STM32H7xx_HAL_Driver/Src/stm32h7xx_hal_i2c.c ****   */
 799:./Drivers/STM32H7xx_HAL_Driver/Src/stm32h7xx_hal_i2c.c **** HAL_StatusTypeDef HAL_I2C_UnRegisterCallback(I2C_HandleTypeDef *hi2c, HAL_I2C_CallbackIDTypeDef Cal
 800:./Drivers/STM32H7xx_HAL_Driver/Src/stm32h7xx_hal_i2c.c **** {
 801:./Drivers/STM32H7xx_HAL_Driver/Src/stm32h7xx_hal_i2c.c ****   HAL_StatusTypeDef status = HAL_OK;
 802:./Drivers/STM32H7xx_HAL_Driver/Src/stm32h7xx_hal_i2c.c **** 
 803:./Drivers/STM32H7xx_HAL_Driver/Src/stm32h7xx_hal_i2c.c ****   /* Process locked */
 804:./Drivers/STM32H7xx_HAL_Driver/Src/stm32h7xx_hal_i2c.c ****   __HAL_LOCK(hi2c);
 805:./Drivers/STM32H7xx_HAL_Driver/Src/stm32h7xx_hal_i2c.c **** 
 806:./Drivers/STM32H7xx_HAL_Driver/Src/stm32h7xx_hal_i2c.c ****   if (HAL_I2C_STATE_READY == hi2c->State)
ARM GAS  /tmp/ccHvg3ba.s 			page 22


 807:./Drivers/STM32H7xx_HAL_Driver/Src/stm32h7xx_hal_i2c.c ****   {
 808:./Drivers/STM32H7xx_HAL_Driver/Src/stm32h7xx_hal_i2c.c ****     switch (CallbackID)
 809:./Drivers/STM32H7xx_HAL_Driver/Src/stm32h7xx_hal_i2c.c ****     {
 810:./Drivers/STM32H7xx_HAL_Driver/Src/stm32h7xx_hal_i2c.c ****       case HAL_I2C_MASTER_TX_COMPLETE_CB_ID :
 811:./Drivers/STM32H7xx_HAL_Driver/Src/stm32h7xx_hal_i2c.c ****         hi2c->MasterTxCpltCallback = HAL_I2C_MasterTxCpltCallback; /* Legacy weak MasterTxCpltCallb
 812:./Drivers/STM32H7xx_HAL_Driver/Src/stm32h7xx_hal_i2c.c ****         break;
 813:./Drivers/STM32H7xx_HAL_Driver/Src/stm32h7xx_hal_i2c.c **** 
 814:./Drivers/STM32H7xx_HAL_Driver/Src/stm32h7xx_hal_i2c.c ****       case HAL_I2C_MASTER_RX_COMPLETE_CB_ID :
 815:./Drivers/STM32H7xx_HAL_Driver/Src/stm32h7xx_hal_i2c.c ****         hi2c->MasterRxCpltCallback = HAL_I2C_MasterRxCpltCallback; /* Legacy weak MasterRxCpltCallb
 816:./Drivers/STM32H7xx_HAL_Driver/Src/stm32h7xx_hal_i2c.c ****         break;
 817:./Drivers/STM32H7xx_HAL_Driver/Src/stm32h7xx_hal_i2c.c **** 
 818:./Drivers/STM32H7xx_HAL_Driver/Src/stm32h7xx_hal_i2c.c ****       case HAL_I2C_SLAVE_TX_COMPLETE_CB_ID :
 819:./Drivers/STM32H7xx_HAL_Driver/Src/stm32h7xx_hal_i2c.c ****         hi2c->SlaveTxCpltCallback = HAL_I2C_SlaveTxCpltCallback;   /* Legacy weak SlaveTxCpltCallba
 820:./Drivers/STM32H7xx_HAL_Driver/Src/stm32h7xx_hal_i2c.c ****         break;
 821:./Drivers/STM32H7xx_HAL_Driver/Src/stm32h7xx_hal_i2c.c **** 
 822:./Drivers/STM32H7xx_HAL_Driver/Src/stm32h7xx_hal_i2c.c ****       case HAL_I2C_SLAVE_RX_COMPLETE_CB_ID :
 823:./Drivers/STM32H7xx_HAL_Driver/Src/stm32h7xx_hal_i2c.c ****         hi2c->SlaveRxCpltCallback = HAL_I2C_SlaveRxCpltCallback;   /* Legacy weak SlaveRxCpltCallba
 824:./Drivers/STM32H7xx_HAL_Driver/Src/stm32h7xx_hal_i2c.c ****         break;
 825:./Drivers/STM32H7xx_HAL_Driver/Src/stm32h7xx_hal_i2c.c **** 
 826:./Drivers/STM32H7xx_HAL_Driver/Src/stm32h7xx_hal_i2c.c ****       case HAL_I2C_LISTEN_COMPLETE_CB_ID :
 827:./Drivers/STM32H7xx_HAL_Driver/Src/stm32h7xx_hal_i2c.c ****         hi2c->ListenCpltCallback = HAL_I2C_ListenCpltCallback;     /* Legacy weak ListenCpltCallbac
 828:./Drivers/STM32H7xx_HAL_Driver/Src/stm32h7xx_hal_i2c.c ****         break;
 829:./Drivers/STM32H7xx_HAL_Driver/Src/stm32h7xx_hal_i2c.c **** 
 830:./Drivers/STM32H7xx_HAL_Driver/Src/stm32h7xx_hal_i2c.c ****       case HAL_I2C_MEM_TX_COMPLETE_CB_ID :
 831:./Drivers/STM32H7xx_HAL_Driver/Src/stm32h7xx_hal_i2c.c ****         hi2c->MemTxCpltCallback = HAL_I2C_MemTxCpltCallback;       /* Legacy weak MemTxCpltCallback
 832:./Drivers/STM32H7xx_HAL_Driver/Src/stm32h7xx_hal_i2c.c ****         break;
 833:./Drivers/STM32H7xx_HAL_Driver/Src/stm32h7xx_hal_i2c.c **** 
 834:./Drivers/STM32H7xx_HAL_Driver/Src/stm32h7xx_hal_i2c.c ****       case HAL_I2C_MEM_RX_COMPLETE_CB_ID :
 835:./Drivers/STM32H7xx_HAL_Driver/Src/stm32h7xx_hal_i2c.c ****         hi2c->MemRxCpltCallback = HAL_I2C_MemRxCpltCallback;       /* Legacy weak MemRxCpltCallback
 836:./Drivers/STM32H7xx_HAL_Driver/Src/stm32h7xx_hal_i2c.c ****         break;
 837:./Drivers/STM32H7xx_HAL_Driver/Src/stm32h7xx_hal_i2c.c **** 
 838:./Drivers/STM32H7xx_HAL_Driver/Src/stm32h7xx_hal_i2c.c ****       case HAL_I2C_ERROR_CB_ID :
 839:./Drivers/STM32H7xx_HAL_Driver/Src/stm32h7xx_hal_i2c.c ****         hi2c->ErrorCallback = HAL_I2C_ErrorCallback;               /* Legacy weak ErrorCallback    
 840:./Drivers/STM32H7xx_HAL_Driver/Src/stm32h7xx_hal_i2c.c ****         break;
 841:./Drivers/STM32H7xx_HAL_Driver/Src/stm32h7xx_hal_i2c.c **** 
 842:./Drivers/STM32H7xx_HAL_Driver/Src/stm32h7xx_hal_i2c.c ****       case HAL_I2C_ABORT_CB_ID :
 843:./Drivers/STM32H7xx_HAL_Driver/Src/stm32h7xx_hal_i2c.c ****         hi2c->AbortCpltCallback = HAL_I2C_AbortCpltCallback;       /* Legacy weak AbortCpltCallback
 844:./Drivers/STM32H7xx_HAL_Driver/Src/stm32h7xx_hal_i2c.c ****         break;
 845:./Drivers/STM32H7xx_HAL_Driver/Src/stm32h7xx_hal_i2c.c **** 
 846:./Drivers/STM32H7xx_HAL_Driver/Src/stm32h7xx_hal_i2c.c ****       case HAL_I2C_MSPINIT_CB_ID :
 847:./Drivers/STM32H7xx_HAL_Driver/Src/stm32h7xx_hal_i2c.c ****         hi2c->MspInitCallback = HAL_I2C_MspInit;                   /* Legacy weak MspInit          
 848:./Drivers/STM32H7xx_HAL_Driver/Src/stm32h7xx_hal_i2c.c ****         break;
 849:./Drivers/STM32H7xx_HAL_Driver/Src/stm32h7xx_hal_i2c.c **** 
 850:./Drivers/STM32H7xx_HAL_Driver/Src/stm32h7xx_hal_i2c.c ****       case HAL_I2C_MSPDEINIT_CB_ID :
 851:./Drivers/STM32H7xx_HAL_Driver/Src/stm32h7xx_hal_i2c.c ****         hi2c->MspDeInitCallback = HAL_I2C_MspDeInit;               /* Legacy weak MspDeInit        
 852:./Drivers/STM32H7xx_HAL_Driver/Src/stm32h7xx_hal_i2c.c ****         break;
 853:./Drivers/STM32H7xx_HAL_Driver/Src/stm32h7xx_hal_i2c.c **** 
 854:./Drivers/STM32H7xx_HAL_Driver/Src/stm32h7xx_hal_i2c.c ****       default :
 855:./Drivers/STM32H7xx_HAL_Driver/Src/stm32h7xx_hal_i2c.c ****         /* Update the error code */
 856:./Drivers/STM32H7xx_HAL_Driver/Src/stm32h7xx_hal_i2c.c ****         hi2c->ErrorCode |= HAL_I2C_ERROR_INVALID_CALLBACK;
 857:./Drivers/STM32H7xx_HAL_Driver/Src/stm32h7xx_hal_i2c.c **** 
 858:./Drivers/STM32H7xx_HAL_Driver/Src/stm32h7xx_hal_i2c.c ****         /* Return error status */
 859:./Drivers/STM32H7xx_HAL_Driver/Src/stm32h7xx_hal_i2c.c ****         status =  HAL_ERROR;
 860:./Drivers/STM32H7xx_HAL_Driver/Src/stm32h7xx_hal_i2c.c ****         break;
 861:./Drivers/STM32H7xx_HAL_Driver/Src/stm32h7xx_hal_i2c.c ****     }
 862:./Drivers/STM32H7xx_HAL_Driver/Src/stm32h7xx_hal_i2c.c ****   }
 863:./Drivers/STM32H7xx_HAL_Driver/Src/stm32h7xx_hal_i2c.c ****   else if (HAL_I2C_STATE_RESET == hi2c->State)
ARM GAS  /tmp/ccHvg3ba.s 			page 23


 864:./Drivers/STM32H7xx_HAL_Driver/Src/stm32h7xx_hal_i2c.c ****   {
 865:./Drivers/STM32H7xx_HAL_Driver/Src/stm32h7xx_hal_i2c.c ****     switch (CallbackID)
 866:./Drivers/STM32H7xx_HAL_Driver/Src/stm32h7xx_hal_i2c.c ****     {
 867:./Drivers/STM32H7xx_HAL_Driver/Src/stm32h7xx_hal_i2c.c ****       case HAL_I2C_MSPINIT_CB_ID :
 868:./Drivers/STM32H7xx_HAL_Driver/Src/stm32h7xx_hal_i2c.c ****         hi2c->MspInitCallback = HAL_I2C_MspInit;                   /* Legacy weak MspInit          
 869:./Drivers/STM32H7xx_HAL_Driver/Src/stm32h7xx_hal_i2c.c ****         break;
 870:./Drivers/STM32H7xx_HAL_Driver/Src/stm32h7xx_hal_i2c.c **** 
 871:./Drivers/STM32H7xx_HAL_Driver/Src/stm32h7xx_hal_i2c.c ****       case HAL_I2C_MSPDEINIT_CB_ID :
 872:./Drivers/STM32H7xx_HAL_Driver/Src/stm32h7xx_hal_i2c.c ****         hi2c->MspDeInitCallback = HAL_I2C_MspDeInit;               /* Legacy weak MspDeInit        
 873:./Drivers/STM32H7xx_HAL_Driver/Src/stm32h7xx_hal_i2c.c ****         break;
 874:./Drivers/STM32H7xx_HAL_Driver/Src/stm32h7xx_hal_i2c.c **** 
 875:./Drivers/STM32H7xx_HAL_Driver/Src/stm32h7xx_hal_i2c.c ****       default :
 876:./Drivers/STM32H7xx_HAL_Driver/Src/stm32h7xx_hal_i2c.c ****         /* Update the error code */
 877:./Drivers/STM32H7xx_HAL_Driver/Src/stm32h7xx_hal_i2c.c ****         hi2c->ErrorCode |= HAL_I2C_ERROR_INVALID_CALLBACK;
 878:./Drivers/STM32H7xx_HAL_Driver/Src/stm32h7xx_hal_i2c.c **** 
 879:./Drivers/STM32H7xx_HAL_Driver/Src/stm32h7xx_hal_i2c.c ****         /* Return error status */
 880:./Drivers/STM32H7xx_HAL_Driver/Src/stm32h7xx_hal_i2c.c ****         status =  HAL_ERROR;
 881:./Drivers/STM32H7xx_HAL_Driver/Src/stm32h7xx_hal_i2c.c ****         break;
 882:./Drivers/STM32H7xx_HAL_Driver/Src/stm32h7xx_hal_i2c.c ****     }
 883:./Drivers/STM32H7xx_HAL_Driver/Src/stm32h7xx_hal_i2c.c ****   }
 884:./Drivers/STM32H7xx_HAL_Driver/Src/stm32h7xx_hal_i2c.c ****   else
 885:./Drivers/STM32H7xx_HAL_Driver/Src/stm32h7xx_hal_i2c.c ****   {
 886:./Drivers/STM32H7xx_HAL_Driver/Src/stm32h7xx_hal_i2c.c ****     /* Update the error code */
 887:./Drivers/STM32H7xx_HAL_Driver/Src/stm32h7xx_hal_i2c.c ****     hi2c->ErrorCode |= HAL_I2C_ERROR_INVALID_CALLBACK;
 888:./Drivers/STM32H7xx_HAL_Driver/Src/stm32h7xx_hal_i2c.c **** 
 889:./Drivers/STM32H7xx_HAL_Driver/Src/stm32h7xx_hal_i2c.c ****     /* Return error status */
 890:./Drivers/STM32H7xx_HAL_Driver/Src/stm32h7xx_hal_i2c.c ****     status =  HAL_ERROR;
 891:./Drivers/STM32H7xx_HAL_Driver/Src/stm32h7xx_hal_i2c.c ****   }
 892:./Drivers/STM32H7xx_HAL_Driver/Src/stm32h7xx_hal_i2c.c **** 
 893:./Drivers/STM32H7xx_HAL_Driver/Src/stm32h7xx_hal_i2c.c ****   /* Release Lock */
 894:./Drivers/STM32H7xx_HAL_Driver/Src/stm32h7xx_hal_i2c.c ****   __HAL_UNLOCK(hi2c);
 895:./Drivers/STM32H7xx_HAL_Driver/Src/stm32h7xx_hal_i2c.c ****   return status;
 896:./Drivers/STM32H7xx_HAL_Driver/Src/stm32h7xx_hal_i2c.c **** }
 897:./Drivers/STM32H7xx_HAL_Driver/Src/stm32h7xx_hal_i2c.c **** 
 898:./Drivers/STM32H7xx_HAL_Driver/Src/stm32h7xx_hal_i2c.c **** /**
 899:./Drivers/STM32H7xx_HAL_Driver/Src/stm32h7xx_hal_i2c.c ****   * @brief  Register the Slave Address Match I2C Callback
 900:./Drivers/STM32H7xx_HAL_Driver/Src/stm32h7xx_hal_i2c.c ****   *         To be used instead of the weak HAL_I2C_AddrCallback() predefined callback
 901:./Drivers/STM32H7xx_HAL_Driver/Src/stm32h7xx_hal_i2c.c ****   * @param  hi2c Pointer to a I2C_HandleTypeDef structure that contains
 902:./Drivers/STM32H7xx_HAL_Driver/Src/stm32h7xx_hal_i2c.c ****   *                the configuration information for the specified I2C.
 903:./Drivers/STM32H7xx_HAL_Driver/Src/stm32h7xx_hal_i2c.c ****   * @param  pCallback pointer to the Address Match Callback function
 904:./Drivers/STM32H7xx_HAL_Driver/Src/stm32h7xx_hal_i2c.c ****   * @retval HAL status
 905:./Drivers/STM32H7xx_HAL_Driver/Src/stm32h7xx_hal_i2c.c ****   */
 906:./Drivers/STM32H7xx_HAL_Driver/Src/stm32h7xx_hal_i2c.c **** HAL_StatusTypeDef HAL_I2C_RegisterAddrCallback(I2C_HandleTypeDef *hi2c, pI2C_AddrCallbackTypeDef pC
 907:./Drivers/STM32H7xx_HAL_Driver/Src/stm32h7xx_hal_i2c.c **** {
 908:./Drivers/STM32H7xx_HAL_Driver/Src/stm32h7xx_hal_i2c.c ****   HAL_StatusTypeDef status = HAL_OK;
 909:./Drivers/STM32H7xx_HAL_Driver/Src/stm32h7xx_hal_i2c.c **** 
 910:./Drivers/STM32H7xx_HAL_Driver/Src/stm32h7xx_hal_i2c.c ****   if (pCallback == NULL)
 911:./Drivers/STM32H7xx_HAL_Driver/Src/stm32h7xx_hal_i2c.c ****   {
 912:./Drivers/STM32H7xx_HAL_Driver/Src/stm32h7xx_hal_i2c.c ****     /* Update the error code */
 913:./Drivers/STM32H7xx_HAL_Driver/Src/stm32h7xx_hal_i2c.c ****     hi2c->ErrorCode |= HAL_I2C_ERROR_INVALID_CALLBACK;
 914:./Drivers/STM32H7xx_HAL_Driver/Src/stm32h7xx_hal_i2c.c **** 
 915:./Drivers/STM32H7xx_HAL_Driver/Src/stm32h7xx_hal_i2c.c ****     return HAL_ERROR;
 916:./Drivers/STM32H7xx_HAL_Driver/Src/stm32h7xx_hal_i2c.c ****   }
 917:./Drivers/STM32H7xx_HAL_Driver/Src/stm32h7xx_hal_i2c.c ****   /* Process locked */
 918:./Drivers/STM32H7xx_HAL_Driver/Src/stm32h7xx_hal_i2c.c ****   __HAL_LOCK(hi2c);
 919:./Drivers/STM32H7xx_HAL_Driver/Src/stm32h7xx_hal_i2c.c **** 
 920:./Drivers/STM32H7xx_HAL_Driver/Src/stm32h7xx_hal_i2c.c ****   if (HAL_I2C_STATE_READY == hi2c->State)
ARM GAS  /tmp/ccHvg3ba.s 			page 24


 921:./Drivers/STM32H7xx_HAL_Driver/Src/stm32h7xx_hal_i2c.c ****   {
 922:./Drivers/STM32H7xx_HAL_Driver/Src/stm32h7xx_hal_i2c.c ****     hi2c->AddrCallback = pCallback;
 923:./Drivers/STM32H7xx_HAL_Driver/Src/stm32h7xx_hal_i2c.c ****   }
 924:./Drivers/STM32H7xx_HAL_Driver/Src/stm32h7xx_hal_i2c.c ****   else
 925:./Drivers/STM32H7xx_HAL_Driver/Src/stm32h7xx_hal_i2c.c ****   {
 926:./Drivers/STM32H7xx_HAL_Driver/Src/stm32h7xx_hal_i2c.c ****     /* Update the error code */
 927:./Drivers/STM32H7xx_HAL_Driver/Src/stm32h7xx_hal_i2c.c ****     hi2c->ErrorCode |= HAL_I2C_ERROR_INVALID_CALLBACK;
 928:./Drivers/STM32H7xx_HAL_Driver/Src/stm32h7xx_hal_i2c.c **** 
 929:./Drivers/STM32H7xx_HAL_Driver/Src/stm32h7xx_hal_i2c.c ****     /* Return error status */
 930:./Drivers/STM32H7xx_HAL_Driver/Src/stm32h7xx_hal_i2c.c ****     status =  HAL_ERROR;
 931:./Drivers/STM32H7xx_HAL_Driver/Src/stm32h7xx_hal_i2c.c ****   }
 932:./Drivers/STM32H7xx_HAL_Driver/Src/stm32h7xx_hal_i2c.c **** 
 933:./Drivers/STM32H7xx_HAL_Driver/Src/stm32h7xx_hal_i2c.c ****   /* Release Lock */
 934:./Drivers/STM32H7xx_HAL_Driver/Src/stm32h7xx_hal_i2c.c ****   __HAL_UNLOCK(hi2c);
 935:./Drivers/STM32H7xx_HAL_Driver/Src/stm32h7xx_hal_i2c.c ****   return status;
 936:./Drivers/STM32H7xx_HAL_Driver/Src/stm32h7xx_hal_i2c.c **** }
 937:./Drivers/STM32H7xx_HAL_Driver/Src/stm32h7xx_hal_i2c.c **** 
 938:./Drivers/STM32H7xx_HAL_Driver/Src/stm32h7xx_hal_i2c.c **** /**
 939:./Drivers/STM32H7xx_HAL_Driver/Src/stm32h7xx_hal_i2c.c ****   * @brief  UnRegister the Slave Address Match I2C Callback
 940:./Drivers/STM32H7xx_HAL_Driver/Src/stm32h7xx_hal_i2c.c ****   *         Info Ready I2C Callback is redirected to the weak HAL_I2C_AddrCallback() predefined cal
 941:./Drivers/STM32H7xx_HAL_Driver/Src/stm32h7xx_hal_i2c.c ****   * @param  hi2c Pointer to a I2C_HandleTypeDef structure that contains
 942:./Drivers/STM32H7xx_HAL_Driver/Src/stm32h7xx_hal_i2c.c ****   *                the configuration information for the specified I2C.
 943:./Drivers/STM32H7xx_HAL_Driver/Src/stm32h7xx_hal_i2c.c ****   * @retval HAL status
 944:./Drivers/STM32H7xx_HAL_Driver/Src/stm32h7xx_hal_i2c.c ****   */
 945:./Drivers/STM32H7xx_HAL_Driver/Src/stm32h7xx_hal_i2c.c **** HAL_StatusTypeDef HAL_I2C_UnRegisterAddrCallback(I2C_HandleTypeDef *hi2c)
 946:./Drivers/STM32H7xx_HAL_Driver/Src/stm32h7xx_hal_i2c.c **** {
 947:./Drivers/STM32H7xx_HAL_Driver/Src/stm32h7xx_hal_i2c.c ****   HAL_StatusTypeDef status = HAL_OK;
 948:./Drivers/STM32H7xx_HAL_Driver/Src/stm32h7xx_hal_i2c.c **** 
 949:./Drivers/STM32H7xx_HAL_Driver/Src/stm32h7xx_hal_i2c.c ****   /* Process locked */
 950:./Drivers/STM32H7xx_HAL_Driver/Src/stm32h7xx_hal_i2c.c ****   __HAL_LOCK(hi2c);
 951:./Drivers/STM32H7xx_HAL_Driver/Src/stm32h7xx_hal_i2c.c **** 
 952:./Drivers/STM32H7xx_HAL_Driver/Src/stm32h7xx_hal_i2c.c ****   if (HAL_I2C_STATE_READY == hi2c->State)
 953:./Drivers/STM32H7xx_HAL_Driver/Src/stm32h7xx_hal_i2c.c ****   {
 954:./Drivers/STM32H7xx_HAL_Driver/Src/stm32h7xx_hal_i2c.c ****     hi2c->AddrCallback = HAL_I2C_AddrCallback; /* Legacy weak AddrCallback  */
 955:./Drivers/STM32H7xx_HAL_Driver/Src/stm32h7xx_hal_i2c.c ****   }
 956:./Drivers/STM32H7xx_HAL_Driver/Src/stm32h7xx_hal_i2c.c ****   else
 957:./Drivers/STM32H7xx_HAL_Driver/Src/stm32h7xx_hal_i2c.c ****   {
 958:./Drivers/STM32H7xx_HAL_Driver/Src/stm32h7xx_hal_i2c.c ****     /* Update the error code */
 959:./Drivers/STM32H7xx_HAL_Driver/Src/stm32h7xx_hal_i2c.c ****     hi2c->ErrorCode |= HAL_I2C_ERROR_INVALID_CALLBACK;
 960:./Drivers/STM32H7xx_HAL_Driver/Src/stm32h7xx_hal_i2c.c **** 
 961:./Drivers/STM32H7xx_HAL_Driver/Src/stm32h7xx_hal_i2c.c ****     /* Return error status */
 962:./Drivers/STM32H7xx_HAL_Driver/Src/stm32h7xx_hal_i2c.c ****     status =  HAL_ERROR;
 963:./Drivers/STM32H7xx_HAL_Driver/Src/stm32h7xx_hal_i2c.c ****   }
 964:./Drivers/STM32H7xx_HAL_Driver/Src/stm32h7xx_hal_i2c.c **** 
 965:./Drivers/STM32H7xx_HAL_Driver/Src/stm32h7xx_hal_i2c.c ****   /* Release Lock */
 966:./Drivers/STM32H7xx_HAL_Driver/Src/stm32h7xx_hal_i2c.c ****   __HAL_UNLOCK(hi2c);
 967:./Drivers/STM32H7xx_HAL_Driver/Src/stm32h7xx_hal_i2c.c ****   return status;
 968:./Drivers/STM32H7xx_HAL_Driver/Src/stm32h7xx_hal_i2c.c **** }
 969:./Drivers/STM32H7xx_HAL_Driver/Src/stm32h7xx_hal_i2c.c **** 
 970:./Drivers/STM32H7xx_HAL_Driver/Src/stm32h7xx_hal_i2c.c **** #endif /* USE_HAL_I2C_REGISTER_CALLBACKS */
 971:./Drivers/STM32H7xx_HAL_Driver/Src/stm32h7xx_hal_i2c.c **** 
 972:./Drivers/STM32H7xx_HAL_Driver/Src/stm32h7xx_hal_i2c.c **** /**
 973:./Drivers/STM32H7xx_HAL_Driver/Src/stm32h7xx_hal_i2c.c ****   * @}
 974:./Drivers/STM32H7xx_HAL_Driver/Src/stm32h7xx_hal_i2c.c ****   */
 975:./Drivers/STM32H7xx_HAL_Driver/Src/stm32h7xx_hal_i2c.c **** 
 976:./Drivers/STM32H7xx_HAL_Driver/Src/stm32h7xx_hal_i2c.c **** /** @defgroup I2C_Exported_Functions_Group2 Input and Output operation functions
 977:./Drivers/STM32H7xx_HAL_Driver/Src/stm32h7xx_hal_i2c.c ****  *  @brief   Data transfers functions
ARM GAS  /tmp/ccHvg3ba.s 			page 25


 978:./Drivers/STM32H7xx_HAL_Driver/Src/stm32h7xx_hal_i2c.c ****  *
 979:./Drivers/STM32H7xx_HAL_Driver/Src/stm32h7xx_hal_i2c.c **** @verbatim
 980:./Drivers/STM32H7xx_HAL_Driver/Src/stm32h7xx_hal_i2c.c ****  ===============================================================================
 981:./Drivers/STM32H7xx_HAL_Driver/Src/stm32h7xx_hal_i2c.c ****                       ##### IO operation functions #####
 982:./Drivers/STM32H7xx_HAL_Driver/Src/stm32h7xx_hal_i2c.c ****  ===============================================================================
 983:./Drivers/STM32H7xx_HAL_Driver/Src/stm32h7xx_hal_i2c.c ****     [..]
 984:./Drivers/STM32H7xx_HAL_Driver/Src/stm32h7xx_hal_i2c.c ****     This subsection provides a set of functions allowing to manage the I2C data
 985:./Drivers/STM32H7xx_HAL_Driver/Src/stm32h7xx_hal_i2c.c ****     transfers.
 986:./Drivers/STM32H7xx_HAL_Driver/Src/stm32h7xx_hal_i2c.c **** 
 987:./Drivers/STM32H7xx_HAL_Driver/Src/stm32h7xx_hal_i2c.c ****     (#) There are two modes of transfer:
 988:./Drivers/STM32H7xx_HAL_Driver/Src/stm32h7xx_hal_i2c.c ****        (++) Blocking mode : The communication is performed in the polling mode.
 989:./Drivers/STM32H7xx_HAL_Driver/Src/stm32h7xx_hal_i2c.c ****             The status of all data processing is returned by the same function
 990:./Drivers/STM32H7xx_HAL_Driver/Src/stm32h7xx_hal_i2c.c ****             after finishing transfer.
 991:./Drivers/STM32H7xx_HAL_Driver/Src/stm32h7xx_hal_i2c.c ****        (++) No-Blocking mode : The communication is performed using Interrupts
 992:./Drivers/STM32H7xx_HAL_Driver/Src/stm32h7xx_hal_i2c.c ****             or DMA. These functions return the status of the transfer startup.
 993:./Drivers/STM32H7xx_HAL_Driver/Src/stm32h7xx_hal_i2c.c ****             The end of the data processing will be indicated through the
 994:./Drivers/STM32H7xx_HAL_Driver/Src/stm32h7xx_hal_i2c.c ****             dedicated I2C IRQ when using Interrupt mode or the DMA IRQ when
 995:./Drivers/STM32H7xx_HAL_Driver/Src/stm32h7xx_hal_i2c.c ****             using DMA mode.
 996:./Drivers/STM32H7xx_HAL_Driver/Src/stm32h7xx_hal_i2c.c **** 
 997:./Drivers/STM32H7xx_HAL_Driver/Src/stm32h7xx_hal_i2c.c ****     (#) Blocking mode functions are :
 998:./Drivers/STM32H7xx_HAL_Driver/Src/stm32h7xx_hal_i2c.c ****         (++) HAL_I2C_Master_Transmit()
 999:./Drivers/STM32H7xx_HAL_Driver/Src/stm32h7xx_hal_i2c.c ****         (++) HAL_I2C_Master_Receive()
1000:./Drivers/STM32H7xx_HAL_Driver/Src/stm32h7xx_hal_i2c.c ****         (++) HAL_I2C_Slave_Transmit()
1001:./Drivers/STM32H7xx_HAL_Driver/Src/stm32h7xx_hal_i2c.c ****         (++) HAL_I2C_Slave_Receive()
1002:./Drivers/STM32H7xx_HAL_Driver/Src/stm32h7xx_hal_i2c.c ****         (++) HAL_I2C_Mem_Write()
1003:./Drivers/STM32H7xx_HAL_Driver/Src/stm32h7xx_hal_i2c.c ****         (++) HAL_I2C_Mem_Read()
1004:./Drivers/STM32H7xx_HAL_Driver/Src/stm32h7xx_hal_i2c.c ****         (++) HAL_I2C_IsDeviceReady()
1005:./Drivers/STM32H7xx_HAL_Driver/Src/stm32h7xx_hal_i2c.c **** 
1006:./Drivers/STM32H7xx_HAL_Driver/Src/stm32h7xx_hal_i2c.c ****     (#) No-Blocking mode functions with Interrupt are :
1007:./Drivers/STM32H7xx_HAL_Driver/Src/stm32h7xx_hal_i2c.c ****         (++) HAL_I2C_Master_Transmit_IT()
1008:./Drivers/STM32H7xx_HAL_Driver/Src/stm32h7xx_hal_i2c.c ****         (++) HAL_I2C_Master_Receive_IT()
1009:./Drivers/STM32H7xx_HAL_Driver/Src/stm32h7xx_hal_i2c.c ****         (++) HAL_I2C_Slave_Transmit_IT()
1010:./Drivers/STM32H7xx_HAL_Driver/Src/stm32h7xx_hal_i2c.c ****         (++) HAL_I2C_Slave_Receive_IT()
1011:./Drivers/STM32H7xx_HAL_Driver/Src/stm32h7xx_hal_i2c.c ****         (++) HAL_I2C_Mem_Write_IT()
1012:./Drivers/STM32H7xx_HAL_Driver/Src/stm32h7xx_hal_i2c.c ****         (++) HAL_I2C_Mem_Read_IT()
1013:./Drivers/STM32H7xx_HAL_Driver/Src/stm32h7xx_hal_i2c.c ****         (++) HAL_I2C_Master_Seq_Transmit_IT()
1014:./Drivers/STM32H7xx_HAL_Driver/Src/stm32h7xx_hal_i2c.c ****         (++) HAL_I2C_Master_Seq_Receive_IT()
1015:./Drivers/STM32H7xx_HAL_Driver/Src/stm32h7xx_hal_i2c.c ****         (++) HAL_I2C_Slave_Seq_Transmit_IT()
1016:./Drivers/STM32H7xx_HAL_Driver/Src/stm32h7xx_hal_i2c.c ****         (++) HAL_I2C_Slave_Seq_Receive_IT()
1017:./Drivers/STM32H7xx_HAL_Driver/Src/stm32h7xx_hal_i2c.c ****         (++) HAL_I2C_EnableListen_IT()
1018:./Drivers/STM32H7xx_HAL_Driver/Src/stm32h7xx_hal_i2c.c ****         (++) HAL_I2C_DisableListen_IT()
1019:./Drivers/STM32H7xx_HAL_Driver/Src/stm32h7xx_hal_i2c.c ****         (++) HAL_I2C_Master_Abort_IT()
1020:./Drivers/STM32H7xx_HAL_Driver/Src/stm32h7xx_hal_i2c.c **** 
1021:./Drivers/STM32H7xx_HAL_Driver/Src/stm32h7xx_hal_i2c.c ****     (#) No-Blocking mode functions with DMA are :
1022:./Drivers/STM32H7xx_HAL_Driver/Src/stm32h7xx_hal_i2c.c ****         (++) HAL_I2C_Master_Transmit_DMA()
1023:./Drivers/STM32H7xx_HAL_Driver/Src/stm32h7xx_hal_i2c.c ****         (++) HAL_I2C_Master_Receive_DMA()
1024:./Drivers/STM32H7xx_HAL_Driver/Src/stm32h7xx_hal_i2c.c ****         (++) HAL_I2C_Slave_Transmit_DMA()
1025:./Drivers/STM32H7xx_HAL_Driver/Src/stm32h7xx_hal_i2c.c ****         (++) HAL_I2C_Slave_Receive_DMA()
1026:./Drivers/STM32H7xx_HAL_Driver/Src/stm32h7xx_hal_i2c.c ****         (++) HAL_I2C_Mem_Write_DMA()
1027:./Drivers/STM32H7xx_HAL_Driver/Src/stm32h7xx_hal_i2c.c ****         (++) HAL_I2C_Mem_Read_DMA()
1028:./Drivers/STM32H7xx_HAL_Driver/Src/stm32h7xx_hal_i2c.c ****         (++) HAL_I2C_Master_Seq_Transmit_DMA()
1029:./Drivers/STM32H7xx_HAL_Driver/Src/stm32h7xx_hal_i2c.c ****         (++) HAL_I2C_Master_Seq_Receive_DMA()
1030:./Drivers/STM32H7xx_HAL_Driver/Src/stm32h7xx_hal_i2c.c ****         (++) HAL_I2C_Slave_Seq_Transmit_DMA()
1031:./Drivers/STM32H7xx_HAL_Driver/Src/stm32h7xx_hal_i2c.c ****         (++) HAL_I2C_Slave_Seq_Receive_DMA()
1032:./Drivers/STM32H7xx_HAL_Driver/Src/stm32h7xx_hal_i2c.c **** 
1033:./Drivers/STM32H7xx_HAL_Driver/Src/stm32h7xx_hal_i2c.c ****     (#) A set of Transfer Complete Callbacks are provided in non Blocking mode:
1034:./Drivers/STM32H7xx_HAL_Driver/Src/stm32h7xx_hal_i2c.c ****         (++) HAL_I2C_MasterTxCpltCallback()
ARM GAS  /tmp/ccHvg3ba.s 			page 26


1035:./Drivers/STM32H7xx_HAL_Driver/Src/stm32h7xx_hal_i2c.c ****         (++) HAL_I2C_MasterRxCpltCallback()
1036:./Drivers/STM32H7xx_HAL_Driver/Src/stm32h7xx_hal_i2c.c ****         (++) HAL_I2C_SlaveTxCpltCallback()
1037:./Drivers/STM32H7xx_HAL_Driver/Src/stm32h7xx_hal_i2c.c ****         (++) HAL_I2C_SlaveRxCpltCallback()
1038:./Drivers/STM32H7xx_HAL_Driver/Src/stm32h7xx_hal_i2c.c ****         (++) HAL_I2C_MemTxCpltCallback()
1039:./Drivers/STM32H7xx_HAL_Driver/Src/stm32h7xx_hal_i2c.c ****         (++) HAL_I2C_MemRxCpltCallback()
1040:./Drivers/STM32H7xx_HAL_Driver/Src/stm32h7xx_hal_i2c.c ****         (++) HAL_I2C_AddrCallback()
1041:./Drivers/STM32H7xx_HAL_Driver/Src/stm32h7xx_hal_i2c.c ****         (++) HAL_I2C_ListenCpltCallback()
1042:./Drivers/STM32H7xx_HAL_Driver/Src/stm32h7xx_hal_i2c.c ****         (++) HAL_I2C_ErrorCallback()
1043:./Drivers/STM32H7xx_HAL_Driver/Src/stm32h7xx_hal_i2c.c ****         (++) HAL_I2C_AbortCpltCallback()
1044:./Drivers/STM32H7xx_HAL_Driver/Src/stm32h7xx_hal_i2c.c **** 
1045:./Drivers/STM32H7xx_HAL_Driver/Src/stm32h7xx_hal_i2c.c **** @endverbatim
1046:./Drivers/STM32H7xx_HAL_Driver/Src/stm32h7xx_hal_i2c.c ****   * @{
1047:./Drivers/STM32H7xx_HAL_Driver/Src/stm32h7xx_hal_i2c.c ****   */
1048:./Drivers/STM32H7xx_HAL_Driver/Src/stm32h7xx_hal_i2c.c **** 
1049:./Drivers/STM32H7xx_HAL_Driver/Src/stm32h7xx_hal_i2c.c **** /**
1050:./Drivers/STM32H7xx_HAL_Driver/Src/stm32h7xx_hal_i2c.c ****   * @brief  Transmits in master mode an amount of data in blocking mode.
1051:./Drivers/STM32H7xx_HAL_Driver/Src/stm32h7xx_hal_i2c.c ****   * @param  hi2c Pointer to a I2C_HandleTypeDef structure that contains
1052:./Drivers/STM32H7xx_HAL_Driver/Src/stm32h7xx_hal_i2c.c ****   *                the configuration information for the specified I2C.
1053:./Drivers/STM32H7xx_HAL_Driver/Src/stm32h7xx_hal_i2c.c ****   * @param  DevAddress Target device address: The device 7 bits address value
1054:./Drivers/STM32H7xx_HAL_Driver/Src/stm32h7xx_hal_i2c.c ****   *         in datasheet must be shifted to the left before calling the interface
1055:./Drivers/STM32H7xx_HAL_Driver/Src/stm32h7xx_hal_i2c.c ****   * @param  pData Pointer to data buffer
1056:./Drivers/STM32H7xx_HAL_Driver/Src/stm32h7xx_hal_i2c.c ****   * @param  Size Amount of data to be sent
1057:./Drivers/STM32H7xx_HAL_Driver/Src/stm32h7xx_hal_i2c.c ****   * @param  Timeout Timeout duration
1058:./Drivers/STM32H7xx_HAL_Driver/Src/stm32h7xx_hal_i2c.c ****   * @retval HAL status
1059:./Drivers/STM32H7xx_HAL_Driver/Src/stm32h7xx_hal_i2c.c ****   */
1060:./Drivers/STM32H7xx_HAL_Driver/Src/stm32h7xx_hal_i2c.c **** HAL_StatusTypeDef HAL_I2C_Master_Transmit(I2C_HandleTypeDef *hi2c, uint16_t DevAddress, uint8_t *pD
1061:./Drivers/STM32H7xx_HAL_Driver/Src/stm32h7xx_hal_i2c.c **** {
 401              		.loc 1 1061 1
 402              		.cfi_startproc
 403              		@ args = 4, pretend = 0, frame = 24
 404              		@ frame_needed = 1, uses_anonymous_args = 0
 405 0000 80B5     		push	{r7, lr}
 406              		.cfi_def_cfa_offset 8
 407              		.cfi_offset 7, -8
 408              		.cfi_offset 14, -4
 409 0002 88B0     		sub	sp, sp, #32
 410              		.cfi_def_cfa_offset 40
 411 0004 02AF     		add	r7, sp, #8
 412              		.cfi_def_cfa 7, 32
 413 0006 F860     		str	r0, [r7, #12]
 414 0008 7A60     		str	r2, [r7, #4]
 415 000a 1A46     		mov	r2, r3
 416 000c 0B46     		mov	r3, r1	@ movhi
 417 000e 7B81     		strh	r3, [r7, #10]	@ movhi
 418 0010 1346     		mov	r3, r2	@ movhi
 419 0012 3B81     		strh	r3, [r7, #8]	@ movhi
1062:./Drivers/STM32H7xx_HAL_Driver/Src/stm32h7xx_hal_i2c.c ****   uint32_t tickstart;
1063:./Drivers/STM32H7xx_HAL_Driver/Src/stm32h7xx_hal_i2c.c **** 
1064:./Drivers/STM32H7xx_HAL_Driver/Src/stm32h7xx_hal_i2c.c ****   if (hi2c->State == HAL_I2C_STATE_READY)
 420              		.loc 1 1064 11
 421 0014 FB68     		ldr	r3, [r7, #12]
 422 0016 93F84130 		ldrb	r3, [r3, #65]
 423 001a DBB2     		uxtb	r3, r3
 424              		.loc 1 1064 6
 425 001c 202B     		cmp	r3, #32
 426 001e 40F0DA80 		bne	.L16
1065:./Drivers/STM32H7xx_HAL_Driver/Src/stm32h7xx_hal_i2c.c ****   {
ARM GAS  /tmp/ccHvg3ba.s 			page 27


1066:./Drivers/STM32H7xx_HAL_Driver/Src/stm32h7xx_hal_i2c.c ****     /* Process Locked */
1067:./Drivers/STM32H7xx_HAL_Driver/Src/stm32h7xx_hal_i2c.c ****     __HAL_LOCK(hi2c);
 427              		.loc 1 1067 5
 428 0022 FB68     		ldr	r3, [r7, #12]
 429 0024 93F84030 		ldrb	r3, [r3, #64]	@ zero_extendqisi2
 430 0028 012B     		cmp	r3, #1
 431 002a 01D1     		bne	.L17
 432              		.loc 1 1067 5 is_stmt 0 discriminator 1
 433 002c 0223     		movs	r3, #2
 434 002e D3E0     		b	.L18
 435              	.L17:
 436              		.loc 1 1067 5 discriminator 2
 437 0030 FB68     		ldr	r3, [r7, #12]
 438 0032 0122     		movs	r2, #1
 439 0034 83F84020 		strb	r2, [r3, #64]
1068:./Drivers/STM32H7xx_HAL_Driver/Src/stm32h7xx_hal_i2c.c **** 
1069:./Drivers/STM32H7xx_HAL_Driver/Src/stm32h7xx_hal_i2c.c ****     /* Init tickstart for timeout management*/
1070:./Drivers/STM32H7xx_HAL_Driver/Src/stm32h7xx_hal_i2c.c ****     tickstart = HAL_GetTick();
 440              		.loc 1 1070 17 is_stmt 1 discriminator 2
 441 0038 FFF7FEFF 		bl	HAL_GetTick
 442 003c 7861     		str	r0, [r7, #20]
1071:./Drivers/STM32H7xx_HAL_Driver/Src/stm32h7xx_hal_i2c.c **** 
1072:./Drivers/STM32H7xx_HAL_Driver/Src/stm32h7xx_hal_i2c.c ****     if (I2C_WaitOnFlagUntilTimeout(hi2c, I2C_FLAG_BUSY, SET, I2C_TIMEOUT_BUSY, tickstart) != HAL_OK
 443              		.loc 1 1072 9 discriminator 2
 444 003e 7B69     		ldr	r3, [r7, #20]
 445 0040 0093     		str	r3, [sp]
 446 0042 1923     		movs	r3, #25
 447 0044 0122     		movs	r2, #1
 448 0046 4FF40041 		mov	r1, #32768
 449 004a F868     		ldr	r0, [r7, #12]
 450 004c FFF7FEFF 		bl	I2C_WaitOnFlagUntilTimeout
 451 0050 0346     		mov	r3, r0
 452              		.loc 1 1072 8 discriminator 2
 453 0052 002B     		cmp	r3, #0
 454 0054 01D0     		beq	.L19
1073:./Drivers/STM32H7xx_HAL_Driver/Src/stm32h7xx_hal_i2c.c ****     {
1074:./Drivers/STM32H7xx_HAL_Driver/Src/stm32h7xx_hal_i2c.c ****       return HAL_ERROR;
 455              		.loc 1 1074 14
 456 0056 0123     		movs	r3, #1
 457 0058 BEE0     		b	.L18
 458              	.L19:
1075:./Drivers/STM32H7xx_HAL_Driver/Src/stm32h7xx_hal_i2c.c ****     }
1076:./Drivers/STM32H7xx_HAL_Driver/Src/stm32h7xx_hal_i2c.c **** 
1077:./Drivers/STM32H7xx_HAL_Driver/Src/stm32h7xx_hal_i2c.c ****     hi2c->State     = HAL_I2C_STATE_BUSY_TX;
 459              		.loc 1 1077 21
 460 005a FB68     		ldr	r3, [r7, #12]
 461 005c 2122     		movs	r2, #33
 462 005e 83F84120 		strb	r2, [r3, #65]
1078:./Drivers/STM32H7xx_HAL_Driver/Src/stm32h7xx_hal_i2c.c ****     hi2c->Mode      = HAL_I2C_MODE_MASTER;
 463              		.loc 1 1078 21
 464 0062 FB68     		ldr	r3, [r7, #12]
 465 0064 1022     		movs	r2, #16
 466 0066 83F84220 		strb	r2, [r3, #66]
1079:./Drivers/STM32H7xx_HAL_Driver/Src/stm32h7xx_hal_i2c.c ****     hi2c->ErrorCode = HAL_I2C_ERROR_NONE;
 467              		.loc 1 1079 21
 468 006a FB68     		ldr	r3, [r7, #12]
 469 006c 0022     		movs	r2, #0
ARM GAS  /tmp/ccHvg3ba.s 			page 28


 470 006e 5A64     		str	r2, [r3, #68]
1080:./Drivers/STM32H7xx_HAL_Driver/Src/stm32h7xx_hal_i2c.c **** 
1081:./Drivers/STM32H7xx_HAL_Driver/Src/stm32h7xx_hal_i2c.c ****     /* Prepare transfer parameters */
1082:./Drivers/STM32H7xx_HAL_Driver/Src/stm32h7xx_hal_i2c.c ****     hi2c->pBuffPtr  = pData;
 471              		.loc 1 1082 21
 472 0070 FB68     		ldr	r3, [r7, #12]
 473 0072 7A68     		ldr	r2, [r7, #4]
 474 0074 5A62     		str	r2, [r3, #36]
1083:./Drivers/STM32H7xx_HAL_Driver/Src/stm32h7xx_hal_i2c.c ****     hi2c->XferCount = Size;
 475              		.loc 1 1083 21
 476 0076 FB68     		ldr	r3, [r7, #12]
 477 0078 3A89     		ldrh	r2, [r7, #8]	@ movhi
 478 007a 5A85     		strh	r2, [r3, #42]	@ movhi
1084:./Drivers/STM32H7xx_HAL_Driver/Src/stm32h7xx_hal_i2c.c ****     hi2c->XferISR   = NULL;
 479              		.loc 1 1084 21
 480 007c FB68     		ldr	r3, [r7, #12]
 481 007e 0022     		movs	r2, #0
 482 0080 5A63     		str	r2, [r3, #52]
1085:./Drivers/STM32H7xx_HAL_Driver/Src/stm32h7xx_hal_i2c.c **** 
1086:./Drivers/STM32H7xx_HAL_Driver/Src/stm32h7xx_hal_i2c.c ****     /* Send Slave Address */
1087:./Drivers/STM32H7xx_HAL_Driver/Src/stm32h7xx_hal_i2c.c ****     /* Set NBYTES to write and reload if hi2c->XferCount > MAX_NBYTE_SIZE and generate RESTART */
1088:./Drivers/STM32H7xx_HAL_Driver/Src/stm32h7xx_hal_i2c.c ****     if (hi2c->XferCount > MAX_NBYTE_SIZE)
 483              		.loc 1 1088 13
 484 0082 FB68     		ldr	r3, [r7, #12]
 485 0084 5B8D     		ldrh	r3, [r3, #42]	@ movhi
 486 0086 9BB2     		uxth	r3, r3
 487              		.loc 1 1088 8
 488 0088 FF2B     		cmp	r3, #255
 489 008a 0ED9     		bls	.L20
1089:./Drivers/STM32H7xx_HAL_Driver/Src/stm32h7xx_hal_i2c.c ****     {
1090:./Drivers/STM32H7xx_HAL_Driver/Src/stm32h7xx_hal_i2c.c ****       hi2c->XferSize = MAX_NBYTE_SIZE;
 490              		.loc 1 1090 22
 491 008c FB68     		ldr	r3, [r7, #12]
 492 008e FF22     		movs	r2, #255
 493 0090 1A85     		strh	r2, [r3, #40]	@ movhi
1091:./Drivers/STM32H7xx_HAL_Driver/Src/stm32h7xx_hal_i2c.c ****       I2C_TransferConfig(hi2c, DevAddress, (uint8_t)hi2c->XferSize, I2C_RELOAD_MODE, I2C_GENERATE_S
 494              		.loc 1 1091 57
 495 0092 FB68     		ldr	r3, [r7, #12]
 496 0094 1B8D     		ldrh	r3, [r3, #40]
 497              		.loc 1 1091 7
 498 0096 DAB2     		uxtb	r2, r3
 499 0098 7989     		ldrh	r1, [r7, #10]
 500 009a 514B     		ldr	r3, .L28
 501 009c 0093     		str	r3, [sp]
 502 009e 4FF08073 		mov	r3, #16777216
 503 00a2 F868     		ldr	r0, [r7, #12]
 504 00a4 FFF7FEFF 		bl	I2C_TransferConfig
 505 00a8 6CE0     		b	.L22
 506              	.L20:
1092:./Drivers/STM32H7xx_HAL_Driver/Src/stm32h7xx_hal_i2c.c ****     }
1093:./Drivers/STM32H7xx_HAL_Driver/Src/stm32h7xx_hal_i2c.c ****     else
1094:./Drivers/STM32H7xx_HAL_Driver/Src/stm32h7xx_hal_i2c.c ****     {
1095:./Drivers/STM32H7xx_HAL_Driver/Src/stm32h7xx_hal_i2c.c ****       hi2c->XferSize = hi2c->XferCount;
 507              		.loc 1 1095 28
 508 00aa FB68     		ldr	r3, [r7, #12]
 509 00ac 5B8D     		ldrh	r3, [r3, #42]	@ movhi
 510 00ae 9AB2     		uxth	r2, r3
ARM GAS  /tmp/ccHvg3ba.s 			page 29


 511              		.loc 1 1095 22
 512 00b0 FB68     		ldr	r3, [r7, #12]
 513 00b2 1A85     		strh	r2, [r3, #40]	@ movhi
1096:./Drivers/STM32H7xx_HAL_Driver/Src/stm32h7xx_hal_i2c.c ****       I2C_TransferConfig(hi2c, DevAddress, (uint8_t)hi2c->XferSize, I2C_AUTOEND_MODE, I2C_GENERATE_
 514              		.loc 1 1096 57
 515 00b4 FB68     		ldr	r3, [r7, #12]
 516 00b6 1B8D     		ldrh	r3, [r3, #40]
 517              		.loc 1 1096 7
 518 00b8 DAB2     		uxtb	r2, r3
 519 00ba 7989     		ldrh	r1, [r7, #10]
 520 00bc 484B     		ldr	r3, .L28
 521 00be 0093     		str	r3, [sp]
 522 00c0 4FF00073 		mov	r3, #33554432
 523 00c4 F868     		ldr	r0, [r7, #12]
 524 00c6 FFF7FEFF 		bl	I2C_TransferConfig
1097:./Drivers/STM32H7xx_HAL_Driver/Src/stm32h7xx_hal_i2c.c ****     }
1098:./Drivers/STM32H7xx_HAL_Driver/Src/stm32h7xx_hal_i2c.c **** 
1099:./Drivers/STM32H7xx_HAL_Driver/Src/stm32h7xx_hal_i2c.c ****     while (hi2c->XferCount > 0U)
 525              		.loc 1 1099 11
 526 00ca 5BE0     		b	.L22
 527              	.L26:
1100:./Drivers/STM32H7xx_HAL_Driver/Src/stm32h7xx_hal_i2c.c ****     {
1101:./Drivers/STM32H7xx_HAL_Driver/Src/stm32h7xx_hal_i2c.c ****       /* Wait until TXIS flag is set */
1102:./Drivers/STM32H7xx_HAL_Driver/Src/stm32h7xx_hal_i2c.c ****       if (I2C_WaitOnTXISFlagUntilTimeout(hi2c, Timeout, tickstart) != HAL_OK)
 528              		.loc 1 1102 11
 529 00cc 7A69     		ldr	r2, [r7, #20]
 530 00ce 396A     		ldr	r1, [r7, #32]
 531 00d0 F868     		ldr	r0, [r7, #12]
 532 00d2 FFF7FEFF 		bl	I2C_WaitOnTXISFlagUntilTimeout
 533 00d6 0346     		mov	r3, r0
 534              		.loc 1 1102 10
 535 00d8 002B     		cmp	r3, #0
 536 00da 01D0     		beq	.L23
1103:./Drivers/STM32H7xx_HAL_Driver/Src/stm32h7xx_hal_i2c.c ****       {
1104:./Drivers/STM32H7xx_HAL_Driver/Src/stm32h7xx_hal_i2c.c ****         return HAL_ERROR;
 537              		.loc 1 1104 16
 538 00dc 0123     		movs	r3, #1
 539 00de 7BE0     		b	.L18
 540              	.L23:
1105:./Drivers/STM32H7xx_HAL_Driver/Src/stm32h7xx_hal_i2c.c ****       }
1106:./Drivers/STM32H7xx_HAL_Driver/Src/stm32h7xx_hal_i2c.c ****       /* Write data to TXDR */
1107:./Drivers/STM32H7xx_HAL_Driver/Src/stm32h7xx_hal_i2c.c ****       hi2c->Instance->TXDR = *hi2c->pBuffPtr;
 541              		.loc 1 1107 35
 542 00e0 FB68     		ldr	r3, [r7, #12]
 543 00e2 5B6A     		ldr	r3, [r3, #36]
 544              		.loc 1 1107 30
 545 00e4 1A78     		ldrb	r2, [r3]	@ zero_extendqisi2
 546              		.loc 1 1107 11
 547 00e6 FB68     		ldr	r3, [r7, #12]
 548 00e8 1B68     		ldr	r3, [r3]
 549              		.loc 1 1107 28
 550 00ea 9A62     		str	r2, [r3, #40]
1108:./Drivers/STM32H7xx_HAL_Driver/Src/stm32h7xx_hal_i2c.c **** 
1109:./Drivers/STM32H7xx_HAL_Driver/Src/stm32h7xx_hal_i2c.c ****       /* Increment Buffer pointer */
1110:./Drivers/STM32H7xx_HAL_Driver/Src/stm32h7xx_hal_i2c.c ****       hi2c->pBuffPtr++;
 551              		.loc 1 1110 11
 552 00ec FB68     		ldr	r3, [r7, #12]
ARM GAS  /tmp/ccHvg3ba.s 			page 30


 553 00ee 5B6A     		ldr	r3, [r3, #36]
 554              		.loc 1 1110 21
 555 00f0 5A1C     		adds	r2, r3, #1
 556 00f2 FB68     		ldr	r3, [r7, #12]
 557 00f4 5A62     		str	r2, [r3, #36]
1111:./Drivers/STM32H7xx_HAL_Driver/Src/stm32h7xx_hal_i2c.c **** 
1112:./Drivers/STM32H7xx_HAL_Driver/Src/stm32h7xx_hal_i2c.c ****       hi2c->XferCount--;
 558              		.loc 1 1112 11
 559 00f6 FB68     		ldr	r3, [r7, #12]
 560 00f8 5B8D     		ldrh	r3, [r3, #42]	@ movhi
 561 00fa 9BB2     		uxth	r3, r3
 562              		.loc 1 1112 22
 563 00fc 013B     		subs	r3, r3, #1
 564 00fe 9AB2     		uxth	r2, r3
 565 0100 FB68     		ldr	r3, [r7, #12]
 566 0102 5A85     		strh	r2, [r3, #42]	@ movhi
1113:./Drivers/STM32H7xx_HAL_Driver/Src/stm32h7xx_hal_i2c.c ****       hi2c->XferSize--;
 567              		.loc 1 1113 11
 568 0104 FB68     		ldr	r3, [r7, #12]
 569 0106 1B8D     		ldrh	r3, [r3, #40]
 570              		.loc 1 1113 21
 571 0108 013B     		subs	r3, r3, #1
 572 010a 9AB2     		uxth	r2, r3
 573 010c FB68     		ldr	r3, [r7, #12]
 574 010e 1A85     		strh	r2, [r3, #40]	@ movhi
1114:./Drivers/STM32H7xx_HAL_Driver/Src/stm32h7xx_hal_i2c.c **** 
1115:./Drivers/STM32H7xx_HAL_Driver/Src/stm32h7xx_hal_i2c.c ****       if ((hi2c->XferCount != 0U) && (hi2c->XferSize == 0U))
 575              		.loc 1 1115 16
 576 0110 FB68     		ldr	r3, [r7, #12]
 577 0112 5B8D     		ldrh	r3, [r3, #42]	@ movhi
 578 0114 9BB2     		uxth	r3, r3
 579              		.loc 1 1115 10
 580 0116 002B     		cmp	r3, #0
 581 0118 34D0     		beq	.L22
 582              		.loc 1 1115 43 discriminator 1
 583 011a FB68     		ldr	r3, [r7, #12]
 584 011c 1B8D     		ldrh	r3, [r3, #40]
 585              		.loc 1 1115 35 discriminator 1
 586 011e 002B     		cmp	r3, #0
 587 0120 30D1     		bne	.L22
1116:./Drivers/STM32H7xx_HAL_Driver/Src/stm32h7xx_hal_i2c.c ****       {
1117:./Drivers/STM32H7xx_HAL_Driver/Src/stm32h7xx_hal_i2c.c ****         /* Wait until TCR flag is set */
1118:./Drivers/STM32H7xx_HAL_Driver/Src/stm32h7xx_hal_i2c.c ****         if (I2C_WaitOnFlagUntilTimeout(hi2c, I2C_FLAG_TCR, RESET, Timeout, tickstart) != HAL_OK)
 588              		.loc 1 1118 13
 589 0122 7B69     		ldr	r3, [r7, #20]
 590 0124 0093     		str	r3, [sp]
 591 0126 3B6A     		ldr	r3, [r7, #32]
 592 0128 0022     		movs	r2, #0
 593 012a 8021     		movs	r1, #128
 594 012c F868     		ldr	r0, [r7, #12]
 595 012e FFF7FEFF 		bl	I2C_WaitOnFlagUntilTimeout
 596 0132 0346     		mov	r3, r0
 597              		.loc 1 1118 12
 598 0134 002B     		cmp	r3, #0
 599 0136 01D0     		beq	.L24
1119:./Drivers/STM32H7xx_HAL_Driver/Src/stm32h7xx_hal_i2c.c ****         {
1120:./Drivers/STM32H7xx_HAL_Driver/Src/stm32h7xx_hal_i2c.c ****           return HAL_ERROR;
ARM GAS  /tmp/ccHvg3ba.s 			page 31


 600              		.loc 1 1120 18
 601 0138 0123     		movs	r3, #1
 602 013a 4DE0     		b	.L18
 603              	.L24:
1121:./Drivers/STM32H7xx_HAL_Driver/Src/stm32h7xx_hal_i2c.c ****         }
1122:./Drivers/STM32H7xx_HAL_Driver/Src/stm32h7xx_hal_i2c.c **** 
1123:./Drivers/STM32H7xx_HAL_Driver/Src/stm32h7xx_hal_i2c.c ****         if (hi2c->XferCount > MAX_NBYTE_SIZE)
 604              		.loc 1 1123 17
 605 013c FB68     		ldr	r3, [r7, #12]
 606 013e 5B8D     		ldrh	r3, [r3, #42]	@ movhi
 607 0140 9BB2     		uxth	r3, r3
 608              		.loc 1 1123 12
 609 0142 FF2B     		cmp	r3, #255
 610 0144 0ED9     		bls	.L25
1124:./Drivers/STM32H7xx_HAL_Driver/Src/stm32h7xx_hal_i2c.c ****         {
1125:./Drivers/STM32H7xx_HAL_Driver/Src/stm32h7xx_hal_i2c.c ****           hi2c->XferSize = MAX_NBYTE_SIZE;
 611              		.loc 1 1125 26
 612 0146 FB68     		ldr	r3, [r7, #12]
 613 0148 FF22     		movs	r2, #255
 614 014a 1A85     		strh	r2, [r3, #40]	@ movhi
1126:./Drivers/STM32H7xx_HAL_Driver/Src/stm32h7xx_hal_i2c.c ****           I2C_TransferConfig(hi2c, DevAddress, (uint8_t)hi2c->XferSize, I2C_RELOAD_MODE, I2C_NO_STA
 615              		.loc 1 1126 61
 616 014c FB68     		ldr	r3, [r7, #12]
 617 014e 1B8D     		ldrh	r3, [r3, #40]
 618              		.loc 1 1126 11
 619 0150 DAB2     		uxtb	r2, r3
 620 0152 7989     		ldrh	r1, [r7, #10]
 621 0154 0023     		movs	r3, #0
 622 0156 0093     		str	r3, [sp]
 623 0158 4FF08073 		mov	r3, #16777216
 624 015c F868     		ldr	r0, [r7, #12]
 625 015e FFF7FEFF 		bl	I2C_TransferConfig
 626 0162 0FE0     		b	.L22
 627              	.L25:
1127:./Drivers/STM32H7xx_HAL_Driver/Src/stm32h7xx_hal_i2c.c ****         }
1128:./Drivers/STM32H7xx_HAL_Driver/Src/stm32h7xx_hal_i2c.c ****         else
1129:./Drivers/STM32H7xx_HAL_Driver/Src/stm32h7xx_hal_i2c.c ****         {
1130:./Drivers/STM32H7xx_HAL_Driver/Src/stm32h7xx_hal_i2c.c ****           hi2c->XferSize = hi2c->XferCount;
 628              		.loc 1 1130 32
 629 0164 FB68     		ldr	r3, [r7, #12]
 630 0166 5B8D     		ldrh	r3, [r3, #42]	@ movhi
 631 0168 9AB2     		uxth	r2, r3
 632              		.loc 1 1130 26
 633 016a FB68     		ldr	r3, [r7, #12]
 634 016c 1A85     		strh	r2, [r3, #40]	@ movhi
1131:./Drivers/STM32H7xx_HAL_Driver/Src/stm32h7xx_hal_i2c.c ****           I2C_TransferConfig(hi2c, DevAddress, (uint8_t)hi2c->XferSize, I2C_AUTOEND_MODE, I2C_NO_ST
 635              		.loc 1 1131 61
 636 016e FB68     		ldr	r3, [r7, #12]
 637 0170 1B8D     		ldrh	r3, [r3, #40]
 638              		.loc 1 1131 11
 639 0172 DAB2     		uxtb	r2, r3
 640 0174 7989     		ldrh	r1, [r7, #10]
 641 0176 0023     		movs	r3, #0
 642 0178 0093     		str	r3, [sp]
 643 017a 4FF00073 		mov	r3, #33554432
 644 017e F868     		ldr	r0, [r7, #12]
 645 0180 FFF7FEFF 		bl	I2C_TransferConfig
ARM GAS  /tmp/ccHvg3ba.s 			page 32


 646              	.L22:
1099:./Drivers/STM32H7xx_HAL_Driver/Src/stm32h7xx_hal_i2c.c ****     {
 647              		.loc 1 1099 16
 648 0184 FB68     		ldr	r3, [r7, #12]
 649 0186 5B8D     		ldrh	r3, [r3, #42]	@ movhi
 650 0188 9BB2     		uxth	r3, r3
1099:./Drivers/STM32H7xx_HAL_Driver/Src/stm32h7xx_hal_i2c.c ****     {
 651              		.loc 1 1099 11
 652 018a 002B     		cmp	r3, #0
 653 018c 9ED1     		bne	.L26
1132:./Drivers/STM32H7xx_HAL_Driver/Src/stm32h7xx_hal_i2c.c ****         }
1133:./Drivers/STM32H7xx_HAL_Driver/Src/stm32h7xx_hal_i2c.c ****       }
1134:./Drivers/STM32H7xx_HAL_Driver/Src/stm32h7xx_hal_i2c.c ****     }
1135:./Drivers/STM32H7xx_HAL_Driver/Src/stm32h7xx_hal_i2c.c **** 
1136:./Drivers/STM32H7xx_HAL_Driver/Src/stm32h7xx_hal_i2c.c ****     /* No need to Check TC flag, with AUTOEND mode the stop is automatically generated */
1137:./Drivers/STM32H7xx_HAL_Driver/Src/stm32h7xx_hal_i2c.c ****     /* Wait until STOPF flag is set */
1138:./Drivers/STM32H7xx_HAL_Driver/Src/stm32h7xx_hal_i2c.c ****     if (I2C_WaitOnSTOPFlagUntilTimeout(hi2c, Timeout, tickstart) != HAL_OK)
 654              		.loc 1 1138 9
 655 018e 7A69     		ldr	r2, [r7, #20]
 656 0190 396A     		ldr	r1, [r7, #32]
 657 0192 F868     		ldr	r0, [r7, #12]
 658 0194 FFF7FEFF 		bl	I2C_WaitOnSTOPFlagUntilTimeout
 659 0198 0346     		mov	r3, r0
 660              		.loc 1 1138 8
 661 019a 002B     		cmp	r3, #0
 662 019c 01D0     		beq	.L27
1139:./Drivers/STM32H7xx_HAL_Driver/Src/stm32h7xx_hal_i2c.c ****     {
1140:./Drivers/STM32H7xx_HAL_Driver/Src/stm32h7xx_hal_i2c.c ****       return HAL_ERROR;
 663              		.loc 1 1140 14
 664 019e 0123     		movs	r3, #1
 665 01a0 1AE0     		b	.L18
 666              	.L27:
1141:./Drivers/STM32H7xx_HAL_Driver/Src/stm32h7xx_hal_i2c.c ****     }
1142:./Drivers/STM32H7xx_HAL_Driver/Src/stm32h7xx_hal_i2c.c **** 
1143:./Drivers/STM32H7xx_HAL_Driver/Src/stm32h7xx_hal_i2c.c ****     /* Clear STOP Flag */
1144:./Drivers/STM32H7xx_HAL_Driver/Src/stm32h7xx_hal_i2c.c ****     __HAL_I2C_CLEAR_FLAG(hi2c, I2C_FLAG_STOPF);
 667              		.loc 1 1144 5
 668 01a2 FB68     		ldr	r3, [r7, #12]
 669 01a4 1B68     		ldr	r3, [r3]
 670 01a6 2022     		movs	r2, #32
 671 01a8 DA61     		str	r2, [r3, #28]
1145:./Drivers/STM32H7xx_HAL_Driver/Src/stm32h7xx_hal_i2c.c **** 
1146:./Drivers/STM32H7xx_HAL_Driver/Src/stm32h7xx_hal_i2c.c ****     /* Clear Configuration Register 2 */
1147:./Drivers/STM32H7xx_HAL_Driver/Src/stm32h7xx_hal_i2c.c ****     I2C_RESET_CR2(hi2c);
 672              		.loc 1 1147 5
 673 01aa FB68     		ldr	r3, [r7, #12]
 674 01ac 1B68     		ldr	r3, [r3]
 675 01ae 5968     		ldr	r1, [r3, #4]
 676 01b0 FB68     		ldr	r3, [r7, #12]
 677 01b2 1A68     		ldr	r2, [r3]
 678 01b4 0B4B     		ldr	r3, .L28+4
 679 01b6 0B40     		ands	r3, r3, r1
 680 01b8 5360     		str	r3, [r2, #4]
1148:./Drivers/STM32H7xx_HAL_Driver/Src/stm32h7xx_hal_i2c.c **** 
1149:./Drivers/STM32H7xx_HAL_Driver/Src/stm32h7xx_hal_i2c.c ****     hi2c->State = HAL_I2C_STATE_READY;
 681              		.loc 1 1149 17
 682 01ba FB68     		ldr	r3, [r7, #12]
ARM GAS  /tmp/ccHvg3ba.s 			page 33


 683 01bc 2022     		movs	r2, #32
 684 01be 83F84120 		strb	r2, [r3, #65]
1150:./Drivers/STM32H7xx_HAL_Driver/Src/stm32h7xx_hal_i2c.c ****     hi2c->Mode  = HAL_I2C_MODE_NONE;
 685              		.loc 1 1150 17
 686 01c2 FB68     		ldr	r3, [r7, #12]
 687 01c4 0022     		movs	r2, #0
 688 01c6 83F84220 		strb	r2, [r3, #66]
1151:./Drivers/STM32H7xx_HAL_Driver/Src/stm32h7xx_hal_i2c.c **** 
1152:./Drivers/STM32H7xx_HAL_Driver/Src/stm32h7xx_hal_i2c.c ****     /* Process Unlocked */
1153:./Drivers/STM32H7xx_HAL_Driver/Src/stm32h7xx_hal_i2c.c ****     __HAL_UNLOCK(hi2c);
 689              		.loc 1 1153 5
 690 01ca FB68     		ldr	r3, [r7, #12]
 691 01cc 0022     		movs	r2, #0
 692 01ce 83F84020 		strb	r2, [r3, #64]
1154:./Drivers/STM32H7xx_HAL_Driver/Src/stm32h7xx_hal_i2c.c **** 
1155:./Drivers/STM32H7xx_HAL_Driver/Src/stm32h7xx_hal_i2c.c ****     return HAL_OK;
 693              		.loc 1 1155 12
 694 01d2 0023     		movs	r3, #0
 695 01d4 00E0     		b	.L18
 696              	.L16:
1156:./Drivers/STM32H7xx_HAL_Driver/Src/stm32h7xx_hal_i2c.c ****   }
1157:./Drivers/STM32H7xx_HAL_Driver/Src/stm32h7xx_hal_i2c.c ****   else
1158:./Drivers/STM32H7xx_HAL_Driver/Src/stm32h7xx_hal_i2c.c ****   {
1159:./Drivers/STM32H7xx_HAL_Driver/Src/stm32h7xx_hal_i2c.c ****     return HAL_BUSY;
 697              		.loc 1 1159 12
 698 01d6 0223     		movs	r3, #2
 699              	.L18:
1160:./Drivers/STM32H7xx_HAL_Driver/Src/stm32h7xx_hal_i2c.c ****   }
1161:./Drivers/STM32H7xx_HAL_Driver/Src/stm32h7xx_hal_i2c.c **** }
 700              		.loc 1 1161 1
 701 01d8 1846     		mov	r0, r3
 702 01da 1837     		adds	r7, r7, #24
 703              		.cfi_def_cfa_offset 8
 704 01dc BD46     		mov	sp, r7
 705              		.cfi_def_cfa_register 13
 706              		@ sp needed
 707 01de 80BD     		pop	{r7, pc}
 708              	.L29:
 709              		.align	2
 710              	.L28:
 711 01e0 00200080 		.word	-2147475456
 712 01e4 00E800FE 		.word	-33495040
 713              		.cfi_endproc
 714              	.LFE138:
 716              		.section	.text.HAL_I2C_Master_Receive,"ax",%progbits
 717              		.align	1
 718              		.global	HAL_I2C_Master_Receive
 719              		.syntax unified
 720              		.thumb
 721              		.thumb_func
 722              		.fpu fpv5-d16
 724              	HAL_I2C_Master_Receive:
 725              	.LFB139:
1162:./Drivers/STM32H7xx_HAL_Driver/Src/stm32h7xx_hal_i2c.c **** 
1163:./Drivers/STM32H7xx_HAL_Driver/Src/stm32h7xx_hal_i2c.c **** /**
1164:./Drivers/STM32H7xx_HAL_Driver/Src/stm32h7xx_hal_i2c.c ****   * @brief  Receives in master mode an amount of data in blocking mode.
1165:./Drivers/STM32H7xx_HAL_Driver/Src/stm32h7xx_hal_i2c.c ****   * @param  hi2c Pointer to a I2C_HandleTypeDef structure that contains
ARM GAS  /tmp/ccHvg3ba.s 			page 34


1166:./Drivers/STM32H7xx_HAL_Driver/Src/stm32h7xx_hal_i2c.c ****   *                the configuration information for the specified I2C.
1167:./Drivers/STM32H7xx_HAL_Driver/Src/stm32h7xx_hal_i2c.c ****   * @param  DevAddress Target device address: The device 7 bits address value
1168:./Drivers/STM32H7xx_HAL_Driver/Src/stm32h7xx_hal_i2c.c ****   *         in datasheet must be shifted to the left before calling the interface
1169:./Drivers/STM32H7xx_HAL_Driver/Src/stm32h7xx_hal_i2c.c ****   * @param  pData Pointer to data buffer
1170:./Drivers/STM32H7xx_HAL_Driver/Src/stm32h7xx_hal_i2c.c ****   * @param  Size Amount of data to be sent
1171:./Drivers/STM32H7xx_HAL_Driver/Src/stm32h7xx_hal_i2c.c ****   * @param  Timeout Timeout duration
1172:./Drivers/STM32H7xx_HAL_Driver/Src/stm32h7xx_hal_i2c.c ****   * @retval HAL status
1173:./Drivers/STM32H7xx_HAL_Driver/Src/stm32h7xx_hal_i2c.c ****   */
1174:./Drivers/STM32H7xx_HAL_Driver/Src/stm32h7xx_hal_i2c.c **** HAL_StatusTypeDef HAL_I2C_Master_Receive(I2C_HandleTypeDef *hi2c, uint16_t DevAddress, uint8_t *pDa
1175:./Drivers/STM32H7xx_HAL_Driver/Src/stm32h7xx_hal_i2c.c **** {
 726              		.loc 1 1175 1
 727              		.cfi_startproc
 728              		@ args = 4, pretend = 0, frame = 24
 729              		@ frame_needed = 1, uses_anonymous_args = 0
 730 0000 80B5     		push	{r7, lr}
 731              		.cfi_def_cfa_offset 8
 732              		.cfi_offset 7, -8
 733              		.cfi_offset 14, -4
 734 0002 88B0     		sub	sp, sp, #32
 735              		.cfi_def_cfa_offset 40
 736 0004 02AF     		add	r7, sp, #8
 737              		.cfi_def_cfa 7, 32
 738 0006 F860     		str	r0, [r7, #12]
 739 0008 7A60     		str	r2, [r7, #4]
 740 000a 1A46     		mov	r2, r3
 741 000c 0B46     		mov	r3, r1	@ movhi
 742 000e 7B81     		strh	r3, [r7, #10]	@ movhi
 743 0010 1346     		mov	r3, r2	@ movhi
 744 0012 3B81     		strh	r3, [r7, #8]	@ movhi
1176:./Drivers/STM32H7xx_HAL_Driver/Src/stm32h7xx_hal_i2c.c ****   uint32_t tickstart;
1177:./Drivers/STM32H7xx_HAL_Driver/Src/stm32h7xx_hal_i2c.c **** 
1178:./Drivers/STM32H7xx_HAL_Driver/Src/stm32h7xx_hal_i2c.c ****   if (hi2c->State == HAL_I2C_STATE_READY)
 745              		.loc 1 1178 11
 746 0014 FB68     		ldr	r3, [r7, #12]
 747 0016 93F84130 		ldrb	r3, [r3, #65]
 748 001a DBB2     		uxtb	r3, r3
 749              		.loc 1 1178 6
 750 001c 202B     		cmp	r3, #32
 751 001e 40F0DB80 		bne	.L31
1179:./Drivers/STM32H7xx_HAL_Driver/Src/stm32h7xx_hal_i2c.c ****   {
1180:./Drivers/STM32H7xx_HAL_Driver/Src/stm32h7xx_hal_i2c.c ****     /* Process Locked */
1181:./Drivers/STM32H7xx_HAL_Driver/Src/stm32h7xx_hal_i2c.c ****     __HAL_LOCK(hi2c);
 752              		.loc 1 1181 5
 753 0022 FB68     		ldr	r3, [r7, #12]
 754 0024 93F84030 		ldrb	r3, [r3, #64]	@ zero_extendqisi2
 755 0028 012B     		cmp	r3, #1
 756 002a 01D1     		bne	.L32
 757              		.loc 1 1181 5 is_stmt 0 discriminator 1
 758 002c 0223     		movs	r3, #2
 759 002e D4E0     		b	.L33
 760              	.L32:
 761              		.loc 1 1181 5 discriminator 2
 762 0030 FB68     		ldr	r3, [r7, #12]
 763 0032 0122     		movs	r2, #1
 764 0034 83F84020 		strb	r2, [r3, #64]
1182:./Drivers/STM32H7xx_HAL_Driver/Src/stm32h7xx_hal_i2c.c **** 
1183:./Drivers/STM32H7xx_HAL_Driver/Src/stm32h7xx_hal_i2c.c ****     /* Init tickstart for timeout management*/
ARM GAS  /tmp/ccHvg3ba.s 			page 35


1184:./Drivers/STM32H7xx_HAL_Driver/Src/stm32h7xx_hal_i2c.c ****     tickstart = HAL_GetTick();
 765              		.loc 1 1184 17 is_stmt 1 discriminator 2
 766 0038 FFF7FEFF 		bl	HAL_GetTick
 767 003c 7861     		str	r0, [r7, #20]
1185:./Drivers/STM32H7xx_HAL_Driver/Src/stm32h7xx_hal_i2c.c **** 
1186:./Drivers/STM32H7xx_HAL_Driver/Src/stm32h7xx_hal_i2c.c ****     if (I2C_WaitOnFlagUntilTimeout(hi2c, I2C_FLAG_BUSY, SET, I2C_TIMEOUT_BUSY, tickstart) != HAL_OK
 768              		.loc 1 1186 9 discriminator 2
 769 003e 7B69     		ldr	r3, [r7, #20]
 770 0040 0093     		str	r3, [sp]
 771 0042 1923     		movs	r3, #25
 772 0044 0122     		movs	r2, #1
 773 0046 4FF40041 		mov	r1, #32768
 774 004a F868     		ldr	r0, [r7, #12]
 775 004c FFF7FEFF 		bl	I2C_WaitOnFlagUntilTimeout
 776 0050 0346     		mov	r3, r0
 777              		.loc 1 1186 8 discriminator 2
 778 0052 002B     		cmp	r3, #0
 779 0054 01D0     		beq	.L34
1187:./Drivers/STM32H7xx_HAL_Driver/Src/stm32h7xx_hal_i2c.c ****     {
1188:./Drivers/STM32H7xx_HAL_Driver/Src/stm32h7xx_hal_i2c.c ****       return HAL_ERROR;
 780              		.loc 1 1188 14
 781 0056 0123     		movs	r3, #1
 782 0058 BFE0     		b	.L33
 783              	.L34:
1189:./Drivers/STM32H7xx_HAL_Driver/Src/stm32h7xx_hal_i2c.c ****     }
1190:./Drivers/STM32H7xx_HAL_Driver/Src/stm32h7xx_hal_i2c.c **** 
1191:./Drivers/STM32H7xx_HAL_Driver/Src/stm32h7xx_hal_i2c.c ****     hi2c->State     = HAL_I2C_STATE_BUSY_RX;
 784              		.loc 1 1191 21
 785 005a FB68     		ldr	r3, [r7, #12]
 786 005c 2222     		movs	r2, #34
 787 005e 83F84120 		strb	r2, [r3, #65]
1192:./Drivers/STM32H7xx_HAL_Driver/Src/stm32h7xx_hal_i2c.c ****     hi2c->Mode      = HAL_I2C_MODE_MASTER;
 788              		.loc 1 1192 21
 789 0062 FB68     		ldr	r3, [r7, #12]
 790 0064 1022     		movs	r2, #16
 791 0066 83F84220 		strb	r2, [r3, #66]
1193:./Drivers/STM32H7xx_HAL_Driver/Src/stm32h7xx_hal_i2c.c ****     hi2c->ErrorCode = HAL_I2C_ERROR_NONE;
 792              		.loc 1 1193 21
 793 006a FB68     		ldr	r3, [r7, #12]
 794 006c 0022     		movs	r2, #0
 795 006e 5A64     		str	r2, [r3, #68]
1194:./Drivers/STM32H7xx_HAL_Driver/Src/stm32h7xx_hal_i2c.c **** 
1195:./Drivers/STM32H7xx_HAL_Driver/Src/stm32h7xx_hal_i2c.c ****     /* Prepare transfer parameters */
1196:./Drivers/STM32H7xx_HAL_Driver/Src/stm32h7xx_hal_i2c.c ****     hi2c->pBuffPtr  = pData;
 796              		.loc 1 1196 21
 797 0070 FB68     		ldr	r3, [r7, #12]
 798 0072 7A68     		ldr	r2, [r7, #4]
 799 0074 5A62     		str	r2, [r3, #36]
1197:./Drivers/STM32H7xx_HAL_Driver/Src/stm32h7xx_hal_i2c.c ****     hi2c->XferCount = Size;
 800              		.loc 1 1197 21
 801 0076 FB68     		ldr	r3, [r7, #12]
 802 0078 3A89     		ldrh	r2, [r7, #8]	@ movhi
 803 007a 5A85     		strh	r2, [r3, #42]	@ movhi
1198:./Drivers/STM32H7xx_HAL_Driver/Src/stm32h7xx_hal_i2c.c ****     hi2c->XferISR   = NULL;
 804              		.loc 1 1198 21
 805 007c FB68     		ldr	r3, [r7, #12]
 806 007e 0022     		movs	r2, #0
ARM GAS  /tmp/ccHvg3ba.s 			page 36


 807 0080 5A63     		str	r2, [r3, #52]
1199:./Drivers/STM32H7xx_HAL_Driver/Src/stm32h7xx_hal_i2c.c **** 
1200:./Drivers/STM32H7xx_HAL_Driver/Src/stm32h7xx_hal_i2c.c ****     /* Send Slave Address */
1201:./Drivers/STM32H7xx_HAL_Driver/Src/stm32h7xx_hal_i2c.c ****     /* Set NBYTES to write and reload if hi2c->XferCount > MAX_NBYTE_SIZE and generate RESTART */
1202:./Drivers/STM32H7xx_HAL_Driver/Src/stm32h7xx_hal_i2c.c ****     if (hi2c->XferCount > MAX_NBYTE_SIZE)
 808              		.loc 1 1202 13
 809 0082 FB68     		ldr	r3, [r7, #12]
 810 0084 5B8D     		ldrh	r3, [r3, #42]	@ movhi
 811 0086 9BB2     		uxth	r3, r3
 812              		.loc 1 1202 8
 813 0088 FF2B     		cmp	r3, #255
 814 008a 0ED9     		bls	.L35
1203:./Drivers/STM32H7xx_HAL_Driver/Src/stm32h7xx_hal_i2c.c ****     {
1204:./Drivers/STM32H7xx_HAL_Driver/Src/stm32h7xx_hal_i2c.c ****       hi2c->XferSize = MAX_NBYTE_SIZE;
 815              		.loc 1 1204 22
 816 008c FB68     		ldr	r3, [r7, #12]
 817 008e FF22     		movs	r2, #255
 818 0090 1A85     		strh	r2, [r3, #40]	@ movhi
1205:./Drivers/STM32H7xx_HAL_Driver/Src/stm32h7xx_hal_i2c.c ****       I2C_TransferConfig(hi2c, DevAddress, (uint8_t)hi2c->XferSize, I2C_RELOAD_MODE, I2C_GENERATE_S
 819              		.loc 1 1205 57
 820 0092 FB68     		ldr	r3, [r7, #12]
 821 0094 1B8D     		ldrh	r3, [r3, #40]
 822              		.loc 1 1205 7
 823 0096 DAB2     		uxtb	r2, r3
 824 0098 7989     		ldrh	r1, [r7, #10]
 825 009a 524B     		ldr	r3, .L43
 826 009c 0093     		str	r3, [sp]
 827 009e 4FF08073 		mov	r3, #16777216
 828 00a2 F868     		ldr	r0, [r7, #12]
 829 00a4 FFF7FEFF 		bl	I2C_TransferConfig
 830 00a8 6DE0     		b	.L37
 831              	.L35:
1206:./Drivers/STM32H7xx_HAL_Driver/Src/stm32h7xx_hal_i2c.c ****     }
1207:./Drivers/STM32H7xx_HAL_Driver/Src/stm32h7xx_hal_i2c.c ****     else
1208:./Drivers/STM32H7xx_HAL_Driver/Src/stm32h7xx_hal_i2c.c ****     {
1209:./Drivers/STM32H7xx_HAL_Driver/Src/stm32h7xx_hal_i2c.c ****       hi2c->XferSize = hi2c->XferCount;
 832              		.loc 1 1209 28
 833 00aa FB68     		ldr	r3, [r7, #12]
 834 00ac 5B8D     		ldrh	r3, [r3, #42]	@ movhi
 835 00ae 9AB2     		uxth	r2, r3
 836              		.loc 1 1209 22
 837 00b0 FB68     		ldr	r3, [r7, #12]
 838 00b2 1A85     		strh	r2, [r3, #40]	@ movhi
1210:./Drivers/STM32H7xx_HAL_Driver/Src/stm32h7xx_hal_i2c.c ****       I2C_TransferConfig(hi2c, DevAddress, (uint8_t)hi2c->XferSize, I2C_AUTOEND_MODE, I2C_GENERATE_
 839              		.loc 1 1210 57
 840 00b4 FB68     		ldr	r3, [r7, #12]
 841 00b6 1B8D     		ldrh	r3, [r3, #40]
 842              		.loc 1 1210 7
 843 00b8 DAB2     		uxtb	r2, r3
 844 00ba 7989     		ldrh	r1, [r7, #10]
 845 00bc 494B     		ldr	r3, .L43
 846 00be 0093     		str	r3, [sp]
 847 00c0 4FF00073 		mov	r3, #33554432
 848 00c4 F868     		ldr	r0, [r7, #12]
 849 00c6 FFF7FEFF 		bl	I2C_TransferConfig
1211:./Drivers/STM32H7xx_HAL_Driver/Src/stm32h7xx_hal_i2c.c ****     }
1212:./Drivers/STM32H7xx_HAL_Driver/Src/stm32h7xx_hal_i2c.c **** 
ARM GAS  /tmp/ccHvg3ba.s 			page 37


1213:./Drivers/STM32H7xx_HAL_Driver/Src/stm32h7xx_hal_i2c.c ****     while (hi2c->XferCount > 0U)
 850              		.loc 1 1213 11
 851 00ca 5CE0     		b	.L37
 852              	.L41:
1214:./Drivers/STM32H7xx_HAL_Driver/Src/stm32h7xx_hal_i2c.c ****     {
1215:./Drivers/STM32H7xx_HAL_Driver/Src/stm32h7xx_hal_i2c.c ****       /* Wait until RXNE flag is set */
1216:./Drivers/STM32H7xx_HAL_Driver/Src/stm32h7xx_hal_i2c.c ****       if (I2C_WaitOnRXNEFlagUntilTimeout(hi2c, Timeout, tickstart) != HAL_OK)
 853              		.loc 1 1216 11
 854 00cc 7A69     		ldr	r2, [r7, #20]
 855 00ce 396A     		ldr	r1, [r7, #32]
 856 00d0 F868     		ldr	r0, [r7, #12]
 857 00d2 FFF7FEFF 		bl	I2C_WaitOnRXNEFlagUntilTimeout
 858 00d6 0346     		mov	r3, r0
 859              		.loc 1 1216 10
 860 00d8 002B     		cmp	r3, #0
 861 00da 01D0     		beq	.L38
1217:./Drivers/STM32H7xx_HAL_Driver/Src/stm32h7xx_hal_i2c.c ****       {
1218:./Drivers/STM32H7xx_HAL_Driver/Src/stm32h7xx_hal_i2c.c ****         return HAL_ERROR;
 862              		.loc 1 1218 16
 863 00dc 0123     		movs	r3, #1
 864 00de 7CE0     		b	.L33
 865              	.L38:
1219:./Drivers/STM32H7xx_HAL_Driver/Src/stm32h7xx_hal_i2c.c ****       }
1220:./Drivers/STM32H7xx_HAL_Driver/Src/stm32h7xx_hal_i2c.c **** 
1221:./Drivers/STM32H7xx_HAL_Driver/Src/stm32h7xx_hal_i2c.c ****       /* Read data from RXDR */
1222:./Drivers/STM32H7xx_HAL_Driver/Src/stm32h7xx_hal_i2c.c ****       *hi2c->pBuffPtr = (uint8_t)hi2c->Instance->RXDR;
 866              		.loc 1 1222 38
 867 00e0 FB68     		ldr	r3, [r7, #12]
 868 00e2 1B68     		ldr	r3, [r3]
 869              		.loc 1 1222 48
 870 00e4 5A6A     		ldr	r2, [r3, #36]
 871              		.loc 1 1222 12
 872 00e6 FB68     		ldr	r3, [r7, #12]
 873 00e8 5B6A     		ldr	r3, [r3, #36]
 874              		.loc 1 1222 25
 875 00ea D2B2     		uxtb	r2, r2
 876              		.loc 1 1222 23
 877 00ec 1A70     		strb	r2, [r3]
1223:./Drivers/STM32H7xx_HAL_Driver/Src/stm32h7xx_hal_i2c.c **** 
1224:./Drivers/STM32H7xx_HAL_Driver/Src/stm32h7xx_hal_i2c.c ****       /* Increment Buffer pointer */
1225:./Drivers/STM32H7xx_HAL_Driver/Src/stm32h7xx_hal_i2c.c ****       hi2c->pBuffPtr++;
 878              		.loc 1 1225 11
 879 00ee FB68     		ldr	r3, [r7, #12]
 880 00f0 5B6A     		ldr	r3, [r3, #36]
 881              		.loc 1 1225 21
 882 00f2 5A1C     		adds	r2, r3, #1
 883 00f4 FB68     		ldr	r3, [r7, #12]
 884 00f6 5A62     		str	r2, [r3, #36]
1226:./Drivers/STM32H7xx_HAL_Driver/Src/stm32h7xx_hal_i2c.c **** 
1227:./Drivers/STM32H7xx_HAL_Driver/Src/stm32h7xx_hal_i2c.c ****       hi2c->XferSize--;
 885              		.loc 1 1227 11
 886 00f8 FB68     		ldr	r3, [r7, #12]
 887 00fa 1B8D     		ldrh	r3, [r3, #40]
 888              		.loc 1 1227 21
 889 00fc 013B     		subs	r3, r3, #1
 890 00fe 9AB2     		uxth	r2, r3
 891 0100 FB68     		ldr	r3, [r7, #12]
ARM GAS  /tmp/ccHvg3ba.s 			page 38


 892 0102 1A85     		strh	r2, [r3, #40]	@ movhi
1228:./Drivers/STM32H7xx_HAL_Driver/Src/stm32h7xx_hal_i2c.c ****       hi2c->XferCount--;
 893              		.loc 1 1228 11
 894 0104 FB68     		ldr	r3, [r7, #12]
 895 0106 5B8D     		ldrh	r3, [r3, #42]	@ movhi
 896 0108 9BB2     		uxth	r3, r3
 897              		.loc 1 1228 22
 898 010a 013B     		subs	r3, r3, #1
 899 010c 9AB2     		uxth	r2, r3
 900 010e FB68     		ldr	r3, [r7, #12]
 901 0110 5A85     		strh	r2, [r3, #42]	@ movhi
1229:./Drivers/STM32H7xx_HAL_Driver/Src/stm32h7xx_hal_i2c.c **** 
1230:./Drivers/STM32H7xx_HAL_Driver/Src/stm32h7xx_hal_i2c.c ****       if ((hi2c->XferCount != 0U) && (hi2c->XferSize == 0U))
 902              		.loc 1 1230 16
 903 0112 FB68     		ldr	r3, [r7, #12]
 904 0114 5B8D     		ldrh	r3, [r3, #42]	@ movhi
 905 0116 9BB2     		uxth	r3, r3
 906              		.loc 1 1230 10
 907 0118 002B     		cmp	r3, #0
 908 011a 34D0     		beq	.L37
 909              		.loc 1 1230 43 discriminator 1
 910 011c FB68     		ldr	r3, [r7, #12]
 911 011e 1B8D     		ldrh	r3, [r3, #40]
 912              		.loc 1 1230 35 discriminator 1
 913 0120 002B     		cmp	r3, #0
 914 0122 30D1     		bne	.L37
1231:./Drivers/STM32H7xx_HAL_Driver/Src/stm32h7xx_hal_i2c.c ****       {
1232:./Drivers/STM32H7xx_HAL_Driver/Src/stm32h7xx_hal_i2c.c ****         /* Wait until TCR flag is set */
1233:./Drivers/STM32H7xx_HAL_Driver/Src/stm32h7xx_hal_i2c.c ****         if (I2C_WaitOnFlagUntilTimeout(hi2c, I2C_FLAG_TCR, RESET, Timeout, tickstart) != HAL_OK)
 915              		.loc 1 1233 13
 916 0124 7B69     		ldr	r3, [r7, #20]
 917 0126 0093     		str	r3, [sp]
 918 0128 3B6A     		ldr	r3, [r7, #32]
 919 012a 0022     		movs	r2, #0
 920 012c 8021     		movs	r1, #128
 921 012e F868     		ldr	r0, [r7, #12]
 922 0130 FFF7FEFF 		bl	I2C_WaitOnFlagUntilTimeout
 923 0134 0346     		mov	r3, r0
 924              		.loc 1 1233 12
 925 0136 002B     		cmp	r3, #0
 926 0138 01D0     		beq	.L39
1234:./Drivers/STM32H7xx_HAL_Driver/Src/stm32h7xx_hal_i2c.c ****         {
1235:./Drivers/STM32H7xx_HAL_Driver/Src/stm32h7xx_hal_i2c.c ****           return HAL_ERROR;
 927              		.loc 1 1235 18
 928 013a 0123     		movs	r3, #1
 929 013c 4DE0     		b	.L33
 930              	.L39:
1236:./Drivers/STM32H7xx_HAL_Driver/Src/stm32h7xx_hal_i2c.c ****         }
1237:./Drivers/STM32H7xx_HAL_Driver/Src/stm32h7xx_hal_i2c.c **** 
1238:./Drivers/STM32H7xx_HAL_Driver/Src/stm32h7xx_hal_i2c.c ****         if (hi2c->XferCount > MAX_NBYTE_SIZE)
 931              		.loc 1 1238 17
 932 013e FB68     		ldr	r3, [r7, #12]
 933 0140 5B8D     		ldrh	r3, [r3, #42]	@ movhi
 934 0142 9BB2     		uxth	r3, r3
 935              		.loc 1 1238 12
 936 0144 FF2B     		cmp	r3, #255
 937 0146 0ED9     		bls	.L40
ARM GAS  /tmp/ccHvg3ba.s 			page 39


1239:./Drivers/STM32H7xx_HAL_Driver/Src/stm32h7xx_hal_i2c.c ****         {
1240:./Drivers/STM32H7xx_HAL_Driver/Src/stm32h7xx_hal_i2c.c ****           hi2c->XferSize = MAX_NBYTE_SIZE;
 938              		.loc 1 1240 26
 939 0148 FB68     		ldr	r3, [r7, #12]
 940 014a FF22     		movs	r2, #255
 941 014c 1A85     		strh	r2, [r3, #40]	@ movhi
1241:./Drivers/STM32H7xx_HAL_Driver/Src/stm32h7xx_hal_i2c.c ****           I2C_TransferConfig(hi2c, DevAddress, (uint8_t)hi2c->XferSize, I2C_RELOAD_MODE, I2C_NO_STA
 942              		.loc 1 1241 61
 943 014e FB68     		ldr	r3, [r7, #12]
 944 0150 1B8D     		ldrh	r3, [r3, #40]
 945              		.loc 1 1241 11
 946 0152 DAB2     		uxtb	r2, r3
 947 0154 7989     		ldrh	r1, [r7, #10]
 948 0156 0023     		movs	r3, #0
 949 0158 0093     		str	r3, [sp]
 950 015a 4FF08073 		mov	r3, #16777216
 951 015e F868     		ldr	r0, [r7, #12]
 952 0160 FFF7FEFF 		bl	I2C_TransferConfig
 953 0164 0FE0     		b	.L37
 954              	.L40:
1242:./Drivers/STM32H7xx_HAL_Driver/Src/stm32h7xx_hal_i2c.c ****         }
1243:./Drivers/STM32H7xx_HAL_Driver/Src/stm32h7xx_hal_i2c.c ****         else
1244:./Drivers/STM32H7xx_HAL_Driver/Src/stm32h7xx_hal_i2c.c ****         {
1245:./Drivers/STM32H7xx_HAL_Driver/Src/stm32h7xx_hal_i2c.c ****           hi2c->XferSize = hi2c->XferCount;
 955              		.loc 1 1245 32
 956 0166 FB68     		ldr	r3, [r7, #12]
 957 0168 5B8D     		ldrh	r3, [r3, #42]	@ movhi
 958 016a 9AB2     		uxth	r2, r3
 959              		.loc 1 1245 26
 960 016c FB68     		ldr	r3, [r7, #12]
 961 016e 1A85     		strh	r2, [r3, #40]	@ movhi
1246:./Drivers/STM32H7xx_HAL_Driver/Src/stm32h7xx_hal_i2c.c ****           I2C_TransferConfig(hi2c, DevAddress, (uint8_t)hi2c->XferSize, I2C_AUTOEND_MODE, I2C_NO_ST
 962              		.loc 1 1246 61
 963 0170 FB68     		ldr	r3, [r7, #12]
 964 0172 1B8D     		ldrh	r3, [r3, #40]
 965              		.loc 1 1246 11
 966 0174 DAB2     		uxtb	r2, r3
 967 0176 7989     		ldrh	r1, [r7, #10]
 968 0178 0023     		movs	r3, #0
 969 017a 0093     		str	r3, [sp]
 970 017c 4FF00073 		mov	r3, #33554432
 971 0180 F868     		ldr	r0, [r7, #12]
 972 0182 FFF7FEFF 		bl	I2C_TransferConfig
 973              	.L37:
1213:./Drivers/STM32H7xx_HAL_Driver/Src/stm32h7xx_hal_i2c.c ****     {
 974              		.loc 1 1213 16
 975 0186 FB68     		ldr	r3, [r7, #12]
 976 0188 5B8D     		ldrh	r3, [r3, #42]	@ movhi
 977 018a 9BB2     		uxth	r3, r3
1213:./Drivers/STM32H7xx_HAL_Driver/Src/stm32h7xx_hal_i2c.c ****     {
 978              		.loc 1 1213 11
 979 018c 002B     		cmp	r3, #0
 980 018e 9DD1     		bne	.L41
1247:./Drivers/STM32H7xx_HAL_Driver/Src/stm32h7xx_hal_i2c.c ****         }
1248:./Drivers/STM32H7xx_HAL_Driver/Src/stm32h7xx_hal_i2c.c ****       }
1249:./Drivers/STM32H7xx_HAL_Driver/Src/stm32h7xx_hal_i2c.c ****     }
1250:./Drivers/STM32H7xx_HAL_Driver/Src/stm32h7xx_hal_i2c.c **** 
ARM GAS  /tmp/ccHvg3ba.s 			page 40


1251:./Drivers/STM32H7xx_HAL_Driver/Src/stm32h7xx_hal_i2c.c ****     /* No need to Check TC flag, with AUTOEND mode the stop is automatically generated */
1252:./Drivers/STM32H7xx_HAL_Driver/Src/stm32h7xx_hal_i2c.c ****     /* Wait until STOPF flag is set */
1253:./Drivers/STM32H7xx_HAL_Driver/Src/stm32h7xx_hal_i2c.c ****     if (I2C_WaitOnSTOPFlagUntilTimeout(hi2c, Timeout, tickstart) != HAL_OK)
 981              		.loc 1 1253 9
 982 0190 7A69     		ldr	r2, [r7, #20]
 983 0192 396A     		ldr	r1, [r7, #32]
 984 0194 F868     		ldr	r0, [r7, #12]
 985 0196 FFF7FEFF 		bl	I2C_WaitOnSTOPFlagUntilTimeout
 986 019a 0346     		mov	r3, r0
 987              		.loc 1 1253 8
 988 019c 002B     		cmp	r3, #0
 989 019e 01D0     		beq	.L42
1254:./Drivers/STM32H7xx_HAL_Driver/Src/stm32h7xx_hal_i2c.c ****     {
1255:./Drivers/STM32H7xx_HAL_Driver/Src/stm32h7xx_hal_i2c.c ****       return HAL_ERROR;
 990              		.loc 1 1255 14
 991 01a0 0123     		movs	r3, #1
 992 01a2 1AE0     		b	.L33
 993              	.L42:
1256:./Drivers/STM32H7xx_HAL_Driver/Src/stm32h7xx_hal_i2c.c ****     }
1257:./Drivers/STM32H7xx_HAL_Driver/Src/stm32h7xx_hal_i2c.c **** 
1258:./Drivers/STM32H7xx_HAL_Driver/Src/stm32h7xx_hal_i2c.c ****     /* Clear STOP Flag */
1259:./Drivers/STM32H7xx_HAL_Driver/Src/stm32h7xx_hal_i2c.c ****     __HAL_I2C_CLEAR_FLAG(hi2c, I2C_FLAG_STOPF);
 994              		.loc 1 1259 5
 995 01a4 FB68     		ldr	r3, [r7, #12]
 996 01a6 1B68     		ldr	r3, [r3]
 997 01a8 2022     		movs	r2, #32
 998 01aa DA61     		str	r2, [r3, #28]
1260:./Drivers/STM32H7xx_HAL_Driver/Src/stm32h7xx_hal_i2c.c **** 
1261:./Drivers/STM32H7xx_HAL_Driver/Src/stm32h7xx_hal_i2c.c ****     /* Clear Configuration Register 2 */
1262:./Drivers/STM32H7xx_HAL_Driver/Src/stm32h7xx_hal_i2c.c ****     I2C_RESET_CR2(hi2c);
 999              		.loc 1 1262 5
 1000 01ac FB68     		ldr	r3, [r7, #12]
 1001 01ae 1B68     		ldr	r3, [r3]
 1002 01b0 5968     		ldr	r1, [r3, #4]
 1003 01b2 FB68     		ldr	r3, [r7, #12]
 1004 01b4 1A68     		ldr	r2, [r3]
 1005 01b6 0C4B     		ldr	r3, .L43+4
 1006 01b8 0B40     		ands	r3, r3, r1
 1007 01ba 5360     		str	r3, [r2, #4]
1263:./Drivers/STM32H7xx_HAL_Driver/Src/stm32h7xx_hal_i2c.c **** 
1264:./Drivers/STM32H7xx_HAL_Driver/Src/stm32h7xx_hal_i2c.c ****     hi2c->State = HAL_I2C_STATE_READY;
 1008              		.loc 1 1264 17
 1009 01bc FB68     		ldr	r3, [r7, #12]
 1010 01be 2022     		movs	r2, #32
 1011 01c0 83F84120 		strb	r2, [r3, #65]
1265:./Drivers/STM32H7xx_HAL_Driver/Src/stm32h7xx_hal_i2c.c ****     hi2c->Mode  = HAL_I2C_MODE_NONE;
 1012              		.loc 1 1265 17
 1013 01c4 FB68     		ldr	r3, [r7, #12]
 1014 01c6 0022     		movs	r2, #0
 1015 01c8 83F84220 		strb	r2, [r3, #66]
1266:./Drivers/STM32H7xx_HAL_Driver/Src/stm32h7xx_hal_i2c.c **** 
1267:./Drivers/STM32H7xx_HAL_Driver/Src/stm32h7xx_hal_i2c.c ****     /* Process Unlocked */
1268:./Drivers/STM32H7xx_HAL_Driver/Src/stm32h7xx_hal_i2c.c ****     __HAL_UNLOCK(hi2c);
 1016              		.loc 1 1268 5
 1017 01cc FB68     		ldr	r3, [r7, #12]
 1018 01ce 0022     		movs	r2, #0
 1019 01d0 83F84020 		strb	r2, [r3, #64]
ARM GAS  /tmp/ccHvg3ba.s 			page 41


1269:./Drivers/STM32H7xx_HAL_Driver/Src/stm32h7xx_hal_i2c.c **** 
1270:./Drivers/STM32H7xx_HAL_Driver/Src/stm32h7xx_hal_i2c.c ****     return HAL_OK;
 1020              		.loc 1 1270 12
 1021 01d4 0023     		movs	r3, #0
 1022 01d6 00E0     		b	.L33
 1023              	.L31:
1271:./Drivers/STM32H7xx_HAL_Driver/Src/stm32h7xx_hal_i2c.c ****   }
1272:./Drivers/STM32H7xx_HAL_Driver/Src/stm32h7xx_hal_i2c.c ****   else
1273:./Drivers/STM32H7xx_HAL_Driver/Src/stm32h7xx_hal_i2c.c ****   {
1274:./Drivers/STM32H7xx_HAL_Driver/Src/stm32h7xx_hal_i2c.c ****     return HAL_BUSY;
 1024              		.loc 1 1274 12
 1025 01d8 0223     		movs	r3, #2
 1026              	.L33:
1275:./Drivers/STM32H7xx_HAL_Driver/Src/stm32h7xx_hal_i2c.c ****   }
1276:./Drivers/STM32H7xx_HAL_Driver/Src/stm32h7xx_hal_i2c.c **** }
 1027              		.loc 1 1276 1
 1028 01da 1846     		mov	r0, r3
 1029 01dc 1837     		adds	r7, r7, #24
 1030              		.cfi_def_cfa_offset 8
 1031 01de BD46     		mov	sp, r7
 1032              		.cfi_def_cfa_register 13
 1033              		@ sp needed
 1034 01e0 80BD     		pop	{r7, pc}
 1035              	.L44:
 1036 01e2 00BF     		.align	2
 1037              	.L43:
 1038 01e4 00240080 		.word	-2147474432
 1039 01e8 00E800FE 		.word	-33495040
 1040              		.cfi_endproc
 1041              	.LFE139:
 1043              		.section	.text.HAL_I2C_Slave_Transmit,"ax",%progbits
 1044              		.align	1
 1045              		.global	HAL_I2C_Slave_Transmit
 1046              		.syntax unified
 1047              		.thumb
 1048              		.thumb_func
 1049              		.fpu fpv5-d16
 1051              	HAL_I2C_Slave_Transmit:
 1052              	.LFB140:
1277:./Drivers/STM32H7xx_HAL_Driver/Src/stm32h7xx_hal_i2c.c **** 
1278:./Drivers/STM32H7xx_HAL_Driver/Src/stm32h7xx_hal_i2c.c **** /**
1279:./Drivers/STM32H7xx_HAL_Driver/Src/stm32h7xx_hal_i2c.c ****   * @brief  Transmits in slave mode an amount of data in blocking mode.
1280:./Drivers/STM32H7xx_HAL_Driver/Src/stm32h7xx_hal_i2c.c ****   * @param  hi2c Pointer to a I2C_HandleTypeDef structure that contains
1281:./Drivers/STM32H7xx_HAL_Driver/Src/stm32h7xx_hal_i2c.c ****   *                the configuration information for the specified I2C.
1282:./Drivers/STM32H7xx_HAL_Driver/Src/stm32h7xx_hal_i2c.c ****   * @param  pData Pointer to data buffer
1283:./Drivers/STM32H7xx_HAL_Driver/Src/stm32h7xx_hal_i2c.c ****   * @param  Size Amount of data to be sent
1284:./Drivers/STM32H7xx_HAL_Driver/Src/stm32h7xx_hal_i2c.c ****   * @param  Timeout Timeout duration
1285:./Drivers/STM32H7xx_HAL_Driver/Src/stm32h7xx_hal_i2c.c ****   * @retval HAL status
1286:./Drivers/STM32H7xx_HAL_Driver/Src/stm32h7xx_hal_i2c.c ****   */
1287:./Drivers/STM32H7xx_HAL_Driver/Src/stm32h7xx_hal_i2c.c **** HAL_StatusTypeDef HAL_I2C_Slave_Transmit(I2C_HandleTypeDef *hi2c, uint8_t *pData, uint16_t Size, ui
1288:./Drivers/STM32H7xx_HAL_Driver/Src/stm32h7xx_hal_i2c.c **** {
 1053              		.loc 1 1288 1
 1054              		.cfi_startproc
 1055              		@ args = 0, pretend = 0, frame = 24
 1056              		@ frame_needed = 1, uses_anonymous_args = 0
 1057 0000 80B5     		push	{r7, lr}
 1058              		.cfi_def_cfa_offset 8
ARM GAS  /tmp/ccHvg3ba.s 			page 42


 1059              		.cfi_offset 7, -8
 1060              		.cfi_offset 14, -4
 1061 0002 88B0     		sub	sp, sp, #32
 1062              		.cfi_def_cfa_offset 40
 1063 0004 02AF     		add	r7, sp, #8
 1064              		.cfi_def_cfa 7, 32
 1065 0006 F860     		str	r0, [r7, #12]
 1066 0008 B960     		str	r1, [r7, #8]
 1067 000a 3B60     		str	r3, [r7]
 1068 000c 1346     		mov	r3, r2	@ movhi
 1069 000e FB80     		strh	r3, [r7, #6]	@ movhi
1289:./Drivers/STM32H7xx_HAL_Driver/Src/stm32h7xx_hal_i2c.c ****   uint32_t tickstart;
1290:./Drivers/STM32H7xx_HAL_Driver/Src/stm32h7xx_hal_i2c.c **** 
1291:./Drivers/STM32H7xx_HAL_Driver/Src/stm32h7xx_hal_i2c.c ****   if (hi2c->State == HAL_I2C_STATE_READY)
 1070              		.loc 1 1291 11
 1071 0010 FB68     		ldr	r3, [r7, #12]
 1072 0012 93F84130 		ldrb	r3, [r3, #65]
 1073 0016 DBB2     		uxtb	r3, r3
 1074              		.loc 1 1291 6
 1075 0018 202B     		cmp	r3, #32
 1076 001a 40F0F580 		bne	.L46
1292:./Drivers/STM32H7xx_HAL_Driver/Src/stm32h7xx_hal_i2c.c ****   {
1293:./Drivers/STM32H7xx_HAL_Driver/Src/stm32h7xx_hal_i2c.c ****     if ((pData == NULL) || (Size == 0U))
 1077              		.loc 1 1293 8
 1078 001e BB68     		ldr	r3, [r7, #8]
 1079 0020 002B     		cmp	r3, #0
 1080 0022 02D0     		beq	.L47
 1081              		.loc 1 1293 25 discriminator 1
 1082 0024 FB88     		ldrh	r3, [r7, #6]
 1083 0026 002B     		cmp	r3, #0
 1084 0028 05D1     		bne	.L48
 1085              	.L47:
1294:./Drivers/STM32H7xx_HAL_Driver/Src/stm32h7xx_hal_i2c.c ****     {
1295:./Drivers/STM32H7xx_HAL_Driver/Src/stm32h7xx_hal_i2c.c ****       hi2c->ErrorCode = HAL_I2C_ERROR_INVALID_PARAM;
 1086              		.loc 1 1295 23
 1087 002a FB68     		ldr	r3, [r7, #12]
 1088 002c 4FF40072 		mov	r2, #512
 1089 0030 5A64     		str	r2, [r3, #68]
1296:./Drivers/STM32H7xx_HAL_Driver/Src/stm32h7xx_hal_i2c.c ****       return  HAL_ERROR;
 1090              		.loc 1 1296 15
 1091 0032 0123     		movs	r3, #1
 1092 0034 E9E0     		b	.L49
 1093              	.L48:
1297:./Drivers/STM32H7xx_HAL_Driver/Src/stm32h7xx_hal_i2c.c ****     }
1298:./Drivers/STM32H7xx_HAL_Driver/Src/stm32h7xx_hal_i2c.c ****     /* Process Locked */
1299:./Drivers/STM32H7xx_HAL_Driver/Src/stm32h7xx_hal_i2c.c ****     __HAL_LOCK(hi2c);
 1094              		.loc 1 1299 5
 1095 0036 FB68     		ldr	r3, [r7, #12]
 1096 0038 93F84030 		ldrb	r3, [r3, #64]	@ zero_extendqisi2
 1097 003c 012B     		cmp	r3, #1
 1098 003e 01D1     		bne	.L50
 1099              		.loc 1 1299 5 is_stmt 0 discriminator 1
 1100 0040 0223     		movs	r3, #2
 1101 0042 E2E0     		b	.L49
 1102              	.L50:
 1103              		.loc 1 1299 5 discriminator 2
 1104 0044 FB68     		ldr	r3, [r7, #12]
ARM GAS  /tmp/ccHvg3ba.s 			page 43


 1105 0046 0122     		movs	r2, #1
 1106 0048 83F84020 		strb	r2, [r3, #64]
1300:./Drivers/STM32H7xx_HAL_Driver/Src/stm32h7xx_hal_i2c.c **** 
1301:./Drivers/STM32H7xx_HAL_Driver/Src/stm32h7xx_hal_i2c.c ****     /* Init tickstart for timeout management*/
1302:./Drivers/STM32H7xx_HAL_Driver/Src/stm32h7xx_hal_i2c.c ****     tickstart = HAL_GetTick();
 1107              		.loc 1 1302 17 is_stmt 1 discriminator 2
 1108 004c FFF7FEFF 		bl	HAL_GetTick
 1109 0050 7861     		str	r0, [r7, #20]
1303:./Drivers/STM32H7xx_HAL_Driver/Src/stm32h7xx_hal_i2c.c **** 
1304:./Drivers/STM32H7xx_HAL_Driver/Src/stm32h7xx_hal_i2c.c ****     hi2c->State     = HAL_I2C_STATE_BUSY_TX;
 1110              		.loc 1 1304 21 discriminator 2
 1111 0052 FB68     		ldr	r3, [r7, #12]
 1112 0054 2122     		movs	r2, #33
 1113 0056 83F84120 		strb	r2, [r3, #65]
1305:./Drivers/STM32H7xx_HAL_Driver/Src/stm32h7xx_hal_i2c.c ****     hi2c->Mode      = HAL_I2C_MODE_SLAVE;
 1114              		.loc 1 1305 21 discriminator 2
 1115 005a FB68     		ldr	r3, [r7, #12]
 1116 005c 2022     		movs	r2, #32
 1117 005e 83F84220 		strb	r2, [r3, #66]
1306:./Drivers/STM32H7xx_HAL_Driver/Src/stm32h7xx_hal_i2c.c ****     hi2c->ErrorCode = HAL_I2C_ERROR_NONE;
 1118              		.loc 1 1306 21 discriminator 2
 1119 0062 FB68     		ldr	r3, [r7, #12]
 1120 0064 0022     		movs	r2, #0
 1121 0066 5A64     		str	r2, [r3, #68]
1307:./Drivers/STM32H7xx_HAL_Driver/Src/stm32h7xx_hal_i2c.c **** 
1308:./Drivers/STM32H7xx_HAL_Driver/Src/stm32h7xx_hal_i2c.c ****     /* Prepare transfer parameters */
1309:./Drivers/STM32H7xx_HAL_Driver/Src/stm32h7xx_hal_i2c.c ****     hi2c->pBuffPtr  = pData;
 1122              		.loc 1 1309 21 discriminator 2
 1123 0068 FB68     		ldr	r3, [r7, #12]
 1124 006a BA68     		ldr	r2, [r7, #8]
 1125 006c 5A62     		str	r2, [r3, #36]
1310:./Drivers/STM32H7xx_HAL_Driver/Src/stm32h7xx_hal_i2c.c ****     hi2c->XferCount = Size;
 1126              		.loc 1 1310 21 discriminator 2
 1127 006e FB68     		ldr	r3, [r7, #12]
 1128 0070 FA88     		ldrh	r2, [r7, #6]	@ movhi
 1129 0072 5A85     		strh	r2, [r3, #42]	@ movhi
1311:./Drivers/STM32H7xx_HAL_Driver/Src/stm32h7xx_hal_i2c.c ****     hi2c->XferISR   = NULL;
 1130              		.loc 1 1311 21 discriminator 2
 1131 0074 FB68     		ldr	r3, [r7, #12]
 1132 0076 0022     		movs	r2, #0
 1133 0078 5A63     		str	r2, [r3, #52]
1312:./Drivers/STM32H7xx_HAL_Driver/Src/stm32h7xx_hal_i2c.c **** 
1313:./Drivers/STM32H7xx_HAL_Driver/Src/stm32h7xx_hal_i2c.c ****     /* Enable Address Acknowledge */
1314:./Drivers/STM32H7xx_HAL_Driver/Src/stm32h7xx_hal_i2c.c ****     hi2c->Instance->CR2 &= ~I2C_CR2_NACK;
 1134              		.loc 1 1314 9 discriminator 2
 1135 007a FB68     		ldr	r3, [r7, #12]
 1136 007c 1B68     		ldr	r3, [r3]
 1137              		.loc 1 1314 25 discriminator 2
 1138 007e 5A68     		ldr	r2, [r3, #4]
 1139              		.loc 1 1314 9 discriminator 2
 1140 0080 FB68     		ldr	r3, [r7, #12]
 1141 0082 1B68     		ldr	r3, [r3]
 1142              		.loc 1 1314 25 discriminator 2
 1143 0084 22F40042 		bic	r2, r2, #32768
 1144 0088 5A60     		str	r2, [r3, #4]
1315:./Drivers/STM32H7xx_HAL_Driver/Src/stm32h7xx_hal_i2c.c **** 
1316:./Drivers/STM32H7xx_HAL_Driver/Src/stm32h7xx_hal_i2c.c ****     /* Wait until ADDR flag is set */
ARM GAS  /tmp/ccHvg3ba.s 			page 44


1317:./Drivers/STM32H7xx_HAL_Driver/Src/stm32h7xx_hal_i2c.c ****     if (I2C_WaitOnFlagUntilTimeout(hi2c, I2C_FLAG_ADDR, RESET, Timeout, tickstart) != HAL_OK)
 1145              		.loc 1 1317 9 discriminator 2
 1146 008a 7B69     		ldr	r3, [r7, #20]
 1147 008c 0093     		str	r3, [sp]
 1148 008e 3B68     		ldr	r3, [r7]
 1149 0090 0022     		movs	r2, #0
 1150 0092 0821     		movs	r1, #8
 1151 0094 F868     		ldr	r0, [r7, #12]
 1152 0096 FFF7FEFF 		bl	I2C_WaitOnFlagUntilTimeout
 1153 009a 0346     		mov	r3, r0
 1154              		.loc 1 1317 8 discriminator 2
 1155 009c 002B     		cmp	r3, #0
 1156 009e 09D0     		beq	.L51
1318:./Drivers/STM32H7xx_HAL_Driver/Src/stm32h7xx_hal_i2c.c ****     {
1319:./Drivers/STM32H7xx_HAL_Driver/Src/stm32h7xx_hal_i2c.c ****       /* Disable Address Acknowledge */
1320:./Drivers/STM32H7xx_HAL_Driver/Src/stm32h7xx_hal_i2c.c ****       hi2c->Instance->CR2 |= I2C_CR2_NACK;
 1157              		.loc 1 1320 11
 1158 00a0 FB68     		ldr	r3, [r7, #12]
 1159 00a2 1B68     		ldr	r3, [r3]
 1160              		.loc 1 1320 27
 1161 00a4 5A68     		ldr	r2, [r3, #4]
 1162              		.loc 1 1320 11
 1163 00a6 FB68     		ldr	r3, [r7, #12]
 1164 00a8 1B68     		ldr	r3, [r3]
 1165              		.loc 1 1320 27
 1166 00aa 42F40042 		orr	r2, r2, #32768
 1167 00ae 5A60     		str	r2, [r3, #4]
1321:./Drivers/STM32H7xx_HAL_Driver/Src/stm32h7xx_hal_i2c.c ****       return HAL_ERROR;
 1168              		.loc 1 1321 14
 1169 00b0 0123     		movs	r3, #1
 1170 00b2 AAE0     		b	.L49
 1171              	.L51:
1322:./Drivers/STM32H7xx_HAL_Driver/Src/stm32h7xx_hal_i2c.c ****     }
1323:./Drivers/STM32H7xx_HAL_Driver/Src/stm32h7xx_hal_i2c.c **** 
1324:./Drivers/STM32H7xx_HAL_Driver/Src/stm32h7xx_hal_i2c.c ****     /* Clear ADDR flag */
1325:./Drivers/STM32H7xx_HAL_Driver/Src/stm32h7xx_hal_i2c.c ****     __HAL_I2C_CLEAR_FLAG(hi2c, I2C_FLAG_ADDR);
 1172              		.loc 1 1325 5
 1173 00b4 FB68     		ldr	r3, [r7, #12]
 1174 00b6 1B68     		ldr	r3, [r3]
 1175 00b8 0822     		movs	r2, #8
 1176 00ba DA61     		str	r2, [r3, #28]
1326:./Drivers/STM32H7xx_HAL_Driver/Src/stm32h7xx_hal_i2c.c **** 
1327:./Drivers/STM32H7xx_HAL_Driver/Src/stm32h7xx_hal_i2c.c ****     /* If 10bit addressing mode is selected */
1328:./Drivers/STM32H7xx_HAL_Driver/Src/stm32h7xx_hal_i2c.c ****     if (hi2c->Init.AddressingMode == I2C_ADDRESSINGMODE_10BIT)
 1177              		.loc 1 1328 19
 1178 00bc FB68     		ldr	r3, [r7, #12]
 1179 00be DB68     		ldr	r3, [r3, #12]
 1180              		.loc 1 1328 8
 1181 00c0 022B     		cmp	r3, #2
 1182 00c2 18D1     		bne	.L52
1329:./Drivers/STM32H7xx_HAL_Driver/Src/stm32h7xx_hal_i2c.c ****     {
1330:./Drivers/STM32H7xx_HAL_Driver/Src/stm32h7xx_hal_i2c.c ****       /* Wait until ADDR flag is set */
1331:./Drivers/STM32H7xx_HAL_Driver/Src/stm32h7xx_hal_i2c.c ****       if (I2C_WaitOnFlagUntilTimeout(hi2c, I2C_FLAG_ADDR, RESET, Timeout, tickstart) != HAL_OK)
 1183              		.loc 1 1331 11
 1184 00c4 7B69     		ldr	r3, [r7, #20]
 1185 00c6 0093     		str	r3, [sp]
 1186 00c8 3B68     		ldr	r3, [r7]
ARM GAS  /tmp/ccHvg3ba.s 			page 45


 1187 00ca 0022     		movs	r2, #0
 1188 00cc 0821     		movs	r1, #8
 1189 00ce F868     		ldr	r0, [r7, #12]
 1190 00d0 FFF7FEFF 		bl	I2C_WaitOnFlagUntilTimeout
 1191 00d4 0346     		mov	r3, r0
 1192              		.loc 1 1331 10
 1193 00d6 002B     		cmp	r3, #0
 1194 00d8 09D0     		beq	.L53
1332:./Drivers/STM32H7xx_HAL_Driver/Src/stm32h7xx_hal_i2c.c ****       {
1333:./Drivers/STM32H7xx_HAL_Driver/Src/stm32h7xx_hal_i2c.c ****         /* Disable Address Acknowledge */
1334:./Drivers/STM32H7xx_HAL_Driver/Src/stm32h7xx_hal_i2c.c ****         hi2c->Instance->CR2 |= I2C_CR2_NACK;
 1195              		.loc 1 1334 13
 1196 00da FB68     		ldr	r3, [r7, #12]
 1197 00dc 1B68     		ldr	r3, [r3]
 1198              		.loc 1 1334 29
 1199 00de 5A68     		ldr	r2, [r3, #4]
 1200              		.loc 1 1334 13
 1201 00e0 FB68     		ldr	r3, [r7, #12]
 1202 00e2 1B68     		ldr	r3, [r3]
 1203              		.loc 1 1334 29
 1204 00e4 42F40042 		orr	r2, r2, #32768
 1205 00e8 5A60     		str	r2, [r3, #4]
1335:./Drivers/STM32H7xx_HAL_Driver/Src/stm32h7xx_hal_i2c.c ****         return HAL_ERROR;
 1206              		.loc 1 1335 16
 1207 00ea 0123     		movs	r3, #1
 1208 00ec 8DE0     		b	.L49
 1209              	.L53:
1336:./Drivers/STM32H7xx_HAL_Driver/Src/stm32h7xx_hal_i2c.c ****       }
1337:./Drivers/STM32H7xx_HAL_Driver/Src/stm32h7xx_hal_i2c.c **** 
1338:./Drivers/STM32H7xx_HAL_Driver/Src/stm32h7xx_hal_i2c.c ****       /* Clear ADDR flag */
1339:./Drivers/STM32H7xx_HAL_Driver/Src/stm32h7xx_hal_i2c.c ****       __HAL_I2C_CLEAR_FLAG(hi2c, I2C_FLAG_ADDR);
 1210              		.loc 1 1339 7
 1211 00ee FB68     		ldr	r3, [r7, #12]
 1212 00f0 1B68     		ldr	r3, [r3]
 1213 00f2 0822     		movs	r2, #8
 1214 00f4 DA61     		str	r2, [r3, #28]
 1215              	.L52:
1340:./Drivers/STM32H7xx_HAL_Driver/Src/stm32h7xx_hal_i2c.c ****     }
1341:./Drivers/STM32H7xx_HAL_Driver/Src/stm32h7xx_hal_i2c.c **** 
1342:./Drivers/STM32H7xx_HAL_Driver/Src/stm32h7xx_hal_i2c.c ****     /* Wait until DIR flag is set Transmitter mode */
1343:./Drivers/STM32H7xx_HAL_Driver/Src/stm32h7xx_hal_i2c.c ****     if (I2C_WaitOnFlagUntilTimeout(hi2c, I2C_FLAG_DIR, RESET, Timeout, tickstart) != HAL_OK)
 1216              		.loc 1 1343 9
 1217 00f6 7B69     		ldr	r3, [r7, #20]
 1218 00f8 0093     		str	r3, [sp]
 1219 00fa 3B68     		ldr	r3, [r7]
 1220 00fc 0022     		movs	r2, #0
 1221 00fe 4FF48031 		mov	r1, #65536
 1222 0102 F868     		ldr	r0, [r7, #12]
 1223 0104 FFF7FEFF 		bl	I2C_WaitOnFlagUntilTimeout
 1224 0108 0346     		mov	r3, r0
 1225              		.loc 1 1343 8
 1226 010a 002B     		cmp	r3, #0
 1227 010c 2DD0     		beq	.L55
1344:./Drivers/STM32H7xx_HAL_Driver/Src/stm32h7xx_hal_i2c.c ****     {
1345:./Drivers/STM32H7xx_HAL_Driver/Src/stm32h7xx_hal_i2c.c ****       /* Disable Address Acknowledge */
1346:./Drivers/STM32H7xx_HAL_Driver/Src/stm32h7xx_hal_i2c.c ****       hi2c->Instance->CR2 |= I2C_CR2_NACK;
 1228              		.loc 1 1346 11
ARM GAS  /tmp/ccHvg3ba.s 			page 46


 1229 010e FB68     		ldr	r3, [r7, #12]
 1230 0110 1B68     		ldr	r3, [r3]
 1231              		.loc 1 1346 27
 1232 0112 5A68     		ldr	r2, [r3, #4]
 1233              		.loc 1 1346 11
 1234 0114 FB68     		ldr	r3, [r7, #12]
 1235 0116 1B68     		ldr	r3, [r3]
 1236              		.loc 1 1346 27
 1237 0118 42F40042 		orr	r2, r2, #32768
 1238 011c 5A60     		str	r2, [r3, #4]
1347:./Drivers/STM32H7xx_HAL_Driver/Src/stm32h7xx_hal_i2c.c ****       return HAL_ERROR;
 1239              		.loc 1 1347 14
 1240 011e 0123     		movs	r3, #1
 1241 0120 73E0     		b	.L49
 1242              	.L57:
1348:./Drivers/STM32H7xx_HAL_Driver/Src/stm32h7xx_hal_i2c.c ****     }
1349:./Drivers/STM32H7xx_HAL_Driver/Src/stm32h7xx_hal_i2c.c **** 
1350:./Drivers/STM32H7xx_HAL_Driver/Src/stm32h7xx_hal_i2c.c ****     while (hi2c->XferCount > 0U)
1351:./Drivers/STM32H7xx_HAL_Driver/Src/stm32h7xx_hal_i2c.c ****     {
1352:./Drivers/STM32H7xx_HAL_Driver/Src/stm32h7xx_hal_i2c.c ****       /* Wait until TXIS flag is set */
1353:./Drivers/STM32H7xx_HAL_Driver/Src/stm32h7xx_hal_i2c.c ****       if (I2C_WaitOnTXISFlagUntilTimeout(hi2c, Timeout, tickstart) != HAL_OK)
 1243              		.loc 1 1353 11
 1244 0122 7A69     		ldr	r2, [r7, #20]
 1245 0124 3968     		ldr	r1, [r7]
 1246 0126 F868     		ldr	r0, [r7, #12]
 1247 0128 FFF7FEFF 		bl	I2C_WaitOnTXISFlagUntilTimeout
 1248 012c 0346     		mov	r3, r0
 1249              		.loc 1 1353 10
 1250 012e 002B     		cmp	r3, #0
 1251 0130 09D0     		beq	.L56
1354:./Drivers/STM32H7xx_HAL_Driver/Src/stm32h7xx_hal_i2c.c ****       {
1355:./Drivers/STM32H7xx_HAL_Driver/Src/stm32h7xx_hal_i2c.c ****         /* Disable Address Acknowledge */
1356:./Drivers/STM32H7xx_HAL_Driver/Src/stm32h7xx_hal_i2c.c ****         hi2c->Instance->CR2 |= I2C_CR2_NACK;
 1252              		.loc 1 1356 13
 1253 0132 FB68     		ldr	r3, [r7, #12]
 1254 0134 1B68     		ldr	r3, [r3]
 1255              		.loc 1 1356 29
 1256 0136 5A68     		ldr	r2, [r3, #4]
 1257              		.loc 1 1356 13
 1258 0138 FB68     		ldr	r3, [r7, #12]
 1259 013a 1B68     		ldr	r3, [r3]
 1260              		.loc 1 1356 29
 1261 013c 42F40042 		orr	r2, r2, #32768
 1262 0140 5A60     		str	r2, [r3, #4]
1357:./Drivers/STM32H7xx_HAL_Driver/Src/stm32h7xx_hal_i2c.c ****         return HAL_ERROR;
 1263              		.loc 1 1357 16
 1264 0142 0123     		movs	r3, #1
 1265 0144 61E0     		b	.L49
 1266              	.L56:
1358:./Drivers/STM32H7xx_HAL_Driver/Src/stm32h7xx_hal_i2c.c ****       }
1359:./Drivers/STM32H7xx_HAL_Driver/Src/stm32h7xx_hal_i2c.c **** 
1360:./Drivers/STM32H7xx_HAL_Driver/Src/stm32h7xx_hal_i2c.c ****       /* Write data to TXDR */
1361:./Drivers/STM32H7xx_HAL_Driver/Src/stm32h7xx_hal_i2c.c ****       hi2c->Instance->TXDR = *hi2c->pBuffPtr;
 1267              		.loc 1 1361 35
 1268 0146 FB68     		ldr	r3, [r7, #12]
 1269 0148 5B6A     		ldr	r3, [r3, #36]
 1270              		.loc 1 1361 30
ARM GAS  /tmp/ccHvg3ba.s 			page 47


 1271 014a 1A78     		ldrb	r2, [r3]	@ zero_extendqisi2
 1272              		.loc 1 1361 11
 1273 014c FB68     		ldr	r3, [r7, #12]
 1274 014e 1B68     		ldr	r3, [r3]
 1275              		.loc 1 1361 28
 1276 0150 9A62     		str	r2, [r3, #40]
1362:./Drivers/STM32H7xx_HAL_Driver/Src/stm32h7xx_hal_i2c.c **** 
1363:./Drivers/STM32H7xx_HAL_Driver/Src/stm32h7xx_hal_i2c.c ****       /* Increment Buffer pointer */
1364:./Drivers/STM32H7xx_HAL_Driver/Src/stm32h7xx_hal_i2c.c ****       hi2c->pBuffPtr++;
 1277              		.loc 1 1364 11
 1278 0152 FB68     		ldr	r3, [r7, #12]
 1279 0154 5B6A     		ldr	r3, [r3, #36]
 1280              		.loc 1 1364 21
 1281 0156 5A1C     		adds	r2, r3, #1
 1282 0158 FB68     		ldr	r3, [r7, #12]
 1283 015a 5A62     		str	r2, [r3, #36]
1365:./Drivers/STM32H7xx_HAL_Driver/Src/stm32h7xx_hal_i2c.c **** 
1366:./Drivers/STM32H7xx_HAL_Driver/Src/stm32h7xx_hal_i2c.c ****       hi2c->XferCount--;
 1284              		.loc 1 1366 11
 1285 015c FB68     		ldr	r3, [r7, #12]
 1286 015e 5B8D     		ldrh	r3, [r3, #42]	@ movhi
 1287 0160 9BB2     		uxth	r3, r3
 1288              		.loc 1 1366 22
 1289 0162 013B     		subs	r3, r3, #1
 1290 0164 9AB2     		uxth	r2, r3
 1291 0166 FB68     		ldr	r3, [r7, #12]
 1292 0168 5A85     		strh	r2, [r3, #42]	@ movhi
 1293              	.L55:
1350:./Drivers/STM32H7xx_HAL_Driver/Src/stm32h7xx_hal_i2c.c ****     {
 1294              		.loc 1 1350 16
 1295 016a FB68     		ldr	r3, [r7, #12]
 1296 016c 5B8D     		ldrh	r3, [r3, #42]	@ movhi
 1297 016e 9BB2     		uxth	r3, r3
1350:./Drivers/STM32H7xx_HAL_Driver/Src/stm32h7xx_hal_i2c.c ****     {
 1298              		.loc 1 1350 11
 1299 0170 002B     		cmp	r3, #0
 1300 0172 D6D1     		bne	.L57
1367:./Drivers/STM32H7xx_HAL_Driver/Src/stm32h7xx_hal_i2c.c ****     }
1368:./Drivers/STM32H7xx_HAL_Driver/Src/stm32h7xx_hal_i2c.c **** 
1369:./Drivers/STM32H7xx_HAL_Driver/Src/stm32h7xx_hal_i2c.c ****     /* Wait until STOP flag is set */
1370:./Drivers/STM32H7xx_HAL_Driver/Src/stm32h7xx_hal_i2c.c ****     if (I2C_WaitOnSTOPFlagUntilTimeout(hi2c, Timeout, tickstart) != HAL_OK)
 1301              		.loc 1 1370 9
 1302 0174 7A69     		ldr	r2, [r7, #20]
 1303 0176 3968     		ldr	r1, [r7]
 1304 0178 F868     		ldr	r0, [r7, #12]
 1305 017a FFF7FEFF 		bl	I2C_WaitOnSTOPFlagUntilTimeout
 1306 017e 0346     		mov	r3, r0
 1307              		.loc 1 1370 8
 1308 0180 002B     		cmp	r3, #0
 1309 0182 11D0     		beq	.L58
1371:./Drivers/STM32H7xx_HAL_Driver/Src/stm32h7xx_hal_i2c.c ****     {
1372:./Drivers/STM32H7xx_HAL_Driver/Src/stm32h7xx_hal_i2c.c ****       /* Disable Address Acknowledge */
1373:./Drivers/STM32H7xx_HAL_Driver/Src/stm32h7xx_hal_i2c.c ****       hi2c->Instance->CR2 |= I2C_CR2_NACK;
 1310              		.loc 1 1373 11
 1311 0184 FB68     		ldr	r3, [r7, #12]
 1312 0186 1B68     		ldr	r3, [r3]
 1313              		.loc 1 1373 27
ARM GAS  /tmp/ccHvg3ba.s 			page 48


 1314 0188 5A68     		ldr	r2, [r3, #4]
 1315              		.loc 1 1373 11
 1316 018a FB68     		ldr	r3, [r7, #12]
 1317 018c 1B68     		ldr	r3, [r3]
 1318              		.loc 1 1373 27
 1319 018e 42F40042 		orr	r2, r2, #32768
 1320 0192 5A60     		str	r2, [r3, #4]
1374:./Drivers/STM32H7xx_HAL_Driver/Src/stm32h7xx_hal_i2c.c **** 
1375:./Drivers/STM32H7xx_HAL_Driver/Src/stm32h7xx_hal_i2c.c ****       if (hi2c->ErrorCode == HAL_I2C_ERROR_AF)
 1321              		.loc 1 1375 15
 1322 0194 FB68     		ldr	r3, [r7, #12]
 1323 0196 5B6C     		ldr	r3, [r3, #68]
 1324              		.loc 1 1375 10
 1325 0198 042B     		cmp	r3, #4
 1326 019a 03D1     		bne	.L59
1376:./Drivers/STM32H7xx_HAL_Driver/Src/stm32h7xx_hal_i2c.c ****       {
1377:./Drivers/STM32H7xx_HAL_Driver/Src/stm32h7xx_hal_i2c.c ****         /* Normal use case for Transmitter mode */
1378:./Drivers/STM32H7xx_HAL_Driver/Src/stm32h7xx_hal_i2c.c ****         /* A NACK is generated to confirm the end of transfer */
1379:./Drivers/STM32H7xx_HAL_Driver/Src/stm32h7xx_hal_i2c.c ****         hi2c->ErrorCode = HAL_I2C_ERROR_NONE;
 1327              		.loc 1 1379 25
 1328 019c FB68     		ldr	r3, [r7, #12]
 1329 019e 0022     		movs	r2, #0
 1330 01a0 5A64     		str	r2, [r3, #68]
 1331 01a2 01E0     		b	.L58
 1332              	.L59:
1380:./Drivers/STM32H7xx_HAL_Driver/Src/stm32h7xx_hal_i2c.c ****       }
1381:./Drivers/STM32H7xx_HAL_Driver/Src/stm32h7xx_hal_i2c.c ****       else
1382:./Drivers/STM32H7xx_HAL_Driver/Src/stm32h7xx_hal_i2c.c ****       {
1383:./Drivers/STM32H7xx_HAL_Driver/Src/stm32h7xx_hal_i2c.c ****         return HAL_ERROR;
 1333              		.loc 1 1383 16
 1334 01a4 0123     		movs	r3, #1
 1335 01a6 30E0     		b	.L49
 1336              	.L58:
1384:./Drivers/STM32H7xx_HAL_Driver/Src/stm32h7xx_hal_i2c.c ****       }
1385:./Drivers/STM32H7xx_HAL_Driver/Src/stm32h7xx_hal_i2c.c ****     }
1386:./Drivers/STM32H7xx_HAL_Driver/Src/stm32h7xx_hal_i2c.c **** 
1387:./Drivers/STM32H7xx_HAL_Driver/Src/stm32h7xx_hal_i2c.c ****     /* Clear STOP flag */
1388:./Drivers/STM32H7xx_HAL_Driver/Src/stm32h7xx_hal_i2c.c ****     __HAL_I2C_CLEAR_FLAG(hi2c, I2C_FLAG_STOPF);
 1337              		.loc 1 1388 5
 1338 01a8 FB68     		ldr	r3, [r7, #12]
 1339 01aa 1B68     		ldr	r3, [r3]
 1340 01ac 2022     		movs	r2, #32
 1341 01ae DA61     		str	r2, [r3, #28]
1389:./Drivers/STM32H7xx_HAL_Driver/Src/stm32h7xx_hal_i2c.c **** 
1390:./Drivers/STM32H7xx_HAL_Driver/Src/stm32h7xx_hal_i2c.c ****     /* Wait until BUSY flag is reset */
1391:./Drivers/STM32H7xx_HAL_Driver/Src/stm32h7xx_hal_i2c.c ****     if (I2C_WaitOnFlagUntilTimeout(hi2c, I2C_FLAG_BUSY, SET, Timeout, tickstart) != HAL_OK)
 1342              		.loc 1 1391 9
 1343 01b0 7B69     		ldr	r3, [r7, #20]
 1344 01b2 0093     		str	r3, [sp]
 1345 01b4 3B68     		ldr	r3, [r7]
 1346 01b6 0122     		movs	r2, #1
 1347 01b8 4FF40041 		mov	r1, #32768
 1348 01bc F868     		ldr	r0, [r7, #12]
 1349 01be FFF7FEFF 		bl	I2C_WaitOnFlagUntilTimeout
 1350 01c2 0346     		mov	r3, r0
 1351              		.loc 1 1391 8
 1352 01c4 002B     		cmp	r3, #0
ARM GAS  /tmp/ccHvg3ba.s 			page 49


 1353 01c6 09D0     		beq	.L60
1392:./Drivers/STM32H7xx_HAL_Driver/Src/stm32h7xx_hal_i2c.c ****     {
1393:./Drivers/STM32H7xx_HAL_Driver/Src/stm32h7xx_hal_i2c.c ****       /* Disable Address Acknowledge */
1394:./Drivers/STM32H7xx_HAL_Driver/Src/stm32h7xx_hal_i2c.c ****       hi2c->Instance->CR2 |= I2C_CR2_NACK;
 1354              		.loc 1 1394 11
 1355 01c8 FB68     		ldr	r3, [r7, #12]
 1356 01ca 1B68     		ldr	r3, [r3]
 1357              		.loc 1 1394 27
 1358 01cc 5A68     		ldr	r2, [r3, #4]
 1359              		.loc 1 1394 11
 1360 01ce FB68     		ldr	r3, [r7, #12]
 1361 01d0 1B68     		ldr	r3, [r3]
 1362              		.loc 1 1394 27
 1363 01d2 42F40042 		orr	r2, r2, #32768
 1364 01d6 5A60     		str	r2, [r3, #4]
1395:./Drivers/STM32H7xx_HAL_Driver/Src/stm32h7xx_hal_i2c.c ****       return HAL_ERROR;
 1365              		.loc 1 1395 14
 1366 01d8 0123     		movs	r3, #1
 1367 01da 16E0     		b	.L49
 1368              	.L60:
1396:./Drivers/STM32H7xx_HAL_Driver/Src/stm32h7xx_hal_i2c.c ****     }
1397:./Drivers/STM32H7xx_HAL_Driver/Src/stm32h7xx_hal_i2c.c **** 
1398:./Drivers/STM32H7xx_HAL_Driver/Src/stm32h7xx_hal_i2c.c ****     /* Disable Address Acknowledge */
1399:./Drivers/STM32H7xx_HAL_Driver/Src/stm32h7xx_hal_i2c.c ****     hi2c->Instance->CR2 |= I2C_CR2_NACK;
 1369              		.loc 1 1399 9
 1370 01dc FB68     		ldr	r3, [r7, #12]
 1371 01de 1B68     		ldr	r3, [r3]
 1372              		.loc 1 1399 25
 1373 01e0 5A68     		ldr	r2, [r3, #4]
 1374              		.loc 1 1399 9
 1375 01e2 FB68     		ldr	r3, [r7, #12]
 1376 01e4 1B68     		ldr	r3, [r3]
 1377              		.loc 1 1399 25
 1378 01e6 42F40042 		orr	r2, r2, #32768
 1379 01ea 5A60     		str	r2, [r3, #4]
1400:./Drivers/STM32H7xx_HAL_Driver/Src/stm32h7xx_hal_i2c.c **** 
1401:./Drivers/STM32H7xx_HAL_Driver/Src/stm32h7xx_hal_i2c.c ****     hi2c->State = HAL_I2C_STATE_READY;
 1380              		.loc 1 1401 17
 1381 01ec FB68     		ldr	r3, [r7, #12]
 1382 01ee 2022     		movs	r2, #32
 1383 01f0 83F84120 		strb	r2, [r3, #65]
1402:./Drivers/STM32H7xx_HAL_Driver/Src/stm32h7xx_hal_i2c.c ****     hi2c->Mode  = HAL_I2C_MODE_NONE;
 1384              		.loc 1 1402 17
 1385 01f4 FB68     		ldr	r3, [r7, #12]
 1386 01f6 0022     		movs	r2, #0
 1387 01f8 83F84220 		strb	r2, [r3, #66]
1403:./Drivers/STM32H7xx_HAL_Driver/Src/stm32h7xx_hal_i2c.c **** 
1404:./Drivers/STM32H7xx_HAL_Driver/Src/stm32h7xx_hal_i2c.c ****     /* Process Unlocked */
1405:./Drivers/STM32H7xx_HAL_Driver/Src/stm32h7xx_hal_i2c.c ****     __HAL_UNLOCK(hi2c);
 1388              		.loc 1 1405 5
 1389 01fc FB68     		ldr	r3, [r7, #12]
 1390 01fe 0022     		movs	r2, #0
 1391 0200 83F84020 		strb	r2, [r3, #64]
1406:./Drivers/STM32H7xx_HAL_Driver/Src/stm32h7xx_hal_i2c.c **** 
1407:./Drivers/STM32H7xx_HAL_Driver/Src/stm32h7xx_hal_i2c.c ****     return HAL_OK;
 1392              		.loc 1 1407 12
 1393 0204 0023     		movs	r3, #0
ARM GAS  /tmp/ccHvg3ba.s 			page 50


 1394 0206 00E0     		b	.L49
 1395              	.L46:
1408:./Drivers/STM32H7xx_HAL_Driver/Src/stm32h7xx_hal_i2c.c ****   }
1409:./Drivers/STM32H7xx_HAL_Driver/Src/stm32h7xx_hal_i2c.c ****   else
1410:./Drivers/STM32H7xx_HAL_Driver/Src/stm32h7xx_hal_i2c.c ****   {
1411:./Drivers/STM32H7xx_HAL_Driver/Src/stm32h7xx_hal_i2c.c ****     return HAL_BUSY;
 1396              		.loc 1 1411 12
 1397 0208 0223     		movs	r3, #2
 1398              	.L49:
1412:./Drivers/STM32H7xx_HAL_Driver/Src/stm32h7xx_hal_i2c.c ****   }
1413:./Drivers/STM32H7xx_HAL_Driver/Src/stm32h7xx_hal_i2c.c **** }
 1399              		.loc 1 1413 1
 1400 020a 1846     		mov	r0, r3
 1401 020c 1837     		adds	r7, r7, #24
 1402              		.cfi_def_cfa_offset 8
 1403 020e BD46     		mov	sp, r7
 1404              		.cfi_def_cfa_register 13
 1405              		@ sp needed
 1406 0210 80BD     		pop	{r7, pc}
 1407              		.cfi_endproc
 1408              	.LFE140:
 1410              		.section	.text.HAL_I2C_Slave_Receive,"ax",%progbits
 1411              		.align	1
 1412              		.global	HAL_I2C_Slave_Receive
 1413              		.syntax unified
 1414              		.thumb
 1415              		.thumb_func
 1416              		.fpu fpv5-d16
 1418              	HAL_I2C_Slave_Receive:
 1419              	.LFB141:
1414:./Drivers/STM32H7xx_HAL_Driver/Src/stm32h7xx_hal_i2c.c **** 
1415:./Drivers/STM32H7xx_HAL_Driver/Src/stm32h7xx_hal_i2c.c **** /**
1416:./Drivers/STM32H7xx_HAL_Driver/Src/stm32h7xx_hal_i2c.c ****   * @brief  Receive in slave mode an amount of data in blocking mode
1417:./Drivers/STM32H7xx_HAL_Driver/Src/stm32h7xx_hal_i2c.c ****   * @param  hi2c Pointer to a I2C_HandleTypeDef structure that contains
1418:./Drivers/STM32H7xx_HAL_Driver/Src/stm32h7xx_hal_i2c.c ****   *                the configuration information for the specified I2C.
1419:./Drivers/STM32H7xx_HAL_Driver/Src/stm32h7xx_hal_i2c.c ****   * @param  pData Pointer to data buffer
1420:./Drivers/STM32H7xx_HAL_Driver/Src/stm32h7xx_hal_i2c.c ****   * @param  Size Amount of data to be sent
1421:./Drivers/STM32H7xx_HAL_Driver/Src/stm32h7xx_hal_i2c.c ****   * @param  Timeout Timeout duration
1422:./Drivers/STM32H7xx_HAL_Driver/Src/stm32h7xx_hal_i2c.c ****   * @retval HAL status
1423:./Drivers/STM32H7xx_HAL_Driver/Src/stm32h7xx_hal_i2c.c ****   */
1424:./Drivers/STM32H7xx_HAL_Driver/Src/stm32h7xx_hal_i2c.c **** HAL_StatusTypeDef HAL_I2C_Slave_Receive(I2C_HandleTypeDef *hi2c, uint8_t *pData, uint16_t Size, uin
1425:./Drivers/STM32H7xx_HAL_Driver/Src/stm32h7xx_hal_i2c.c **** {
 1420              		.loc 1 1425 1
 1421              		.cfi_startproc
 1422              		@ args = 0, pretend = 0, frame = 24
 1423              		@ frame_needed = 1, uses_anonymous_args = 0
 1424 0000 80B5     		push	{r7, lr}
 1425              		.cfi_def_cfa_offset 8
 1426              		.cfi_offset 7, -8
 1427              		.cfi_offset 14, -4
 1428 0002 88B0     		sub	sp, sp, #32
 1429              		.cfi_def_cfa_offset 40
 1430 0004 02AF     		add	r7, sp, #8
 1431              		.cfi_def_cfa 7, 32
 1432 0006 F860     		str	r0, [r7, #12]
 1433 0008 B960     		str	r1, [r7, #8]
 1434 000a 3B60     		str	r3, [r7]
ARM GAS  /tmp/ccHvg3ba.s 			page 51


 1435 000c 1346     		mov	r3, r2	@ movhi
 1436 000e FB80     		strh	r3, [r7, #6]	@ movhi
1426:./Drivers/STM32H7xx_HAL_Driver/Src/stm32h7xx_hal_i2c.c ****   uint32_t tickstart;
1427:./Drivers/STM32H7xx_HAL_Driver/Src/stm32h7xx_hal_i2c.c **** 
1428:./Drivers/STM32H7xx_HAL_Driver/Src/stm32h7xx_hal_i2c.c ****   if (hi2c->State == HAL_I2C_STATE_READY)
 1437              		.loc 1 1428 11
 1438 0010 FB68     		ldr	r3, [r7, #12]
 1439 0012 93F84130 		ldrb	r3, [r3, #65]
 1440 0016 DBB2     		uxtb	r3, r3
 1441              		.loc 1 1428 6
 1442 0018 202B     		cmp	r3, #32
 1443 001a 40F0EB80 		bne	.L62
1429:./Drivers/STM32H7xx_HAL_Driver/Src/stm32h7xx_hal_i2c.c ****   {
1430:./Drivers/STM32H7xx_HAL_Driver/Src/stm32h7xx_hal_i2c.c ****     if ((pData == NULL) || (Size == 0U))
 1444              		.loc 1 1430 8
 1445 001e BB68     		ldr	r3, [r7, #8]
 1446 0020 002B     		cmp	r3, #0
 1447 0022 02D0     		beq	.L63
 1448              		.loc 1 1430 25 discriminator 1
 1449 0024 FB88     		ldrh	r3, [r7, #6]
 1450 0026 002B     		cmp	r3, #0
 1451 0028 05D1     		bne	.L64
 1452              	.L63:
1431:./Drivers/STM32H7xx_HAL_Driver/Src/stm32h7xx_hal_i2c.c ****     {
1432:./Drivers/STM32H7xx_HAL_Driver/Src/stm32h7xx_hal_i2c.c ****       hi2c->ErrorCode = HAL_I2C_ERROR_INVALID_PARAM;
 1453              		.loc 1 1432 23
 1454 002a FB68     		ldr	r3, [r7, #12]
 1455 002c 4FF40072 		mov	r2, #512
 1456 0030 5A64     		str	r2, [r3, #68]
1433:./Drivers/STM32H7xx_HAL_Driver/Src/stm32h7xx_hal_i2c.c ****       return  HAL_ERROR;
 1457              		.loc 1 1433 15
 1458 0032 0123     		movs	r3, #1
 1459 0034 DFE0     		b	.L65
 1460              	.L64:
1434:./Drivers/STM32H7xx_HAL_Driver/Src/stm32h7xx_hal_i2c.c ****     }
1435:./Drivers/STM32H7xx_HAL_Driver/Src/stm32h7xx_hal_i2c.c ****     /* Process Locked */
1436:./Drivers/STM32H7xx_HAL_Driver/Src/stm32h7xx_hal_i2c.c ****     __HAL_LOCK(hi2c);
 1461              		.loc 1 1436 5
 1462 0036 FB68     		ldr	r3, [r7, #12]
 1463 0038 93F84030 		ldrb	r3, [r3, #64]	@ zero_extendqisi2
 1464 003c 012B     		cmp	r3, #1
 1465 003e 01D1     		bne	.L66
 1466              		.loc 1 1436 5 is_stmt 0 discriminator 1
 1467 0040 0223     		movs	r3, #2
 1468 0042 D8E0     		b	.L65
 1469              	.L66:
 1470              		.loc 1 1436 5 discriminator 2
 1471 0044 FB68     		ldr	r3, [r7, #12]
 1472 0046 0122     		movs	r2, #1
 1473 0048 83F84020 		strb	r2, [r3, #64]
1437:./Drivers/STM32H7xx_HAL_Driver/Src/stm32h7xx_hal_i2c.c **** 
1438:./Drivers/STM32H7xx_HAL_Driver/Src/stm32h7xx_hal_i2c.c ****     /* Init tickstart for timeout management*/
1439:./Drivers/STM32H7xx_HAL_Driver/Src/stm32h7xx_hal_i2c.c ****     tickstart = HAL_GetTick();
 1474              		.loc 1 1439 17 is_stmt 1 discriminator 2
 1475 004c FFF7FEFF 		bl	HAL_GetTick
 1476 0050 7861     		str	r0, [r7, #20]
1440:./Drivers/STM32H7xx_HAL_Driver/Src/stm32h7xx_hal_i2c.c **** 
ARM GAS  /tmp/ccHvg3ba.s 			page 52


1441:./Drivers/STM32H7xx_HAL_Driver/Src/stm32h7xx_hal_i2c.c ****     hi2c->State     = HAL_I2C_STATE_BUSY_RX;
 1477              		.loc 1 1441 21 discriminator 2
 1478 0052 FB68     		ldr	r3, [r7, #12]
 1479 0054 2222     		movs	r2, #34
 1480 0056 83F84120 		strb	r2, [r3, #65]
1442:./Drivers/STM32H7xx_HAL_Driver/Src/stm32h7xx_hal_i2c.c ****     hi2c->Mode      = HAL_I2C_MODE_SLAVE;
 1481              		.loc 1 1442 21 discriminator 2
 1482 005a FB68     		ldr	r3, [r7, #12]
 1483 005c 2022     		movs	r2, #32
 1484 005e 83F84220 		strb	r2, [r3, #66]
1443:./Drivers/STM32H7xx_HAL_Driver/Src/stm32h7xx_hal_i2c.c ****     hi2c->ErrorCode = HAL_I2C_ERROR_NONE;
 1485              		.loc 1 1443 21 discriminator 2
 1486 0062 FB68     		ldr	r3, [r7, #12]
 1487 0064 0022     		movs	r2, #0
 1488 0066 5A64     		str	r2, [r3, #68]
1444:./Drivers/STM32H7xx_HAL_Driver/Src/stm32h7xx_hal_i2c.c **** 
1445:./Drivers/STM32H7xx_HAL_Driver/Src/stm32h7xx_hal_i2c.c ****     /* Prepare transfer parameters */
1446:./Drivers/STM32H7xx_HAL_Driver/Src/stm32h7xx_hal_i2c.c ****     hi2c->pBuffPtr  = pData;
 1489              		.loc 1 1446 21 discriminator 2
 1490 0068 FB68     		ldr	r3, [r7, #12]
 1491 006a BA68     		ldr	r2, [r7, #8]
 1492 006c 5A62     		str	r2, [r3, #36]
1447:./Drivers/STM32H7xx_HAL_Driver/Src/stm32h7xx_hal_i2c.c ****     hi2c->XferCount = Size;
 1493              		.loc 1 1447 21 discriminator 2
 1494 006e FB68     		ldr	r3, [r7, #12]
 1495 0070 FA88     		ldrh	r2, [r7, #6]	@ movhi
 1496 0072 5A85     		strh	r2, [r3, #42]	@ movhi
1448:./Drivers/STM32H7xx_HAL_Driver/Src/stm32h7xx_hal_i2c.c ****     hi2c->XferISR   = NULL;
 1497              		.loc 1 1448 21 discriminator 2
 1498 0074 FB68     		ldr	r3, [r7, #12]
 1499 0076 0022     		movs	r2, #0
 1500 0078 5A63     		str	r2, [r3, #52]
1449:./Drivers/STM32H7xx_HAL_Driver/Src/stm32h7xx_hal_i2c.c **** 
1450:./Drivers/STM32H7xx_HAL_Driver/Src/stm32h7xx_hal_i2c.c ****     /* Enable Address Acknowledge */
1451:./Drivers/STM32H7xx_HAL_Driver/Src/stm32h7xx_hal_i2c.c ****     hi2c->Instance->CR2 &= ~I2C_CR2_NACK;
 1501              		.loc 1 1451 9 discriminator 2
 1502 007a FB68     		ldr	r3, [r7, #12]
 1503 007c 1B68     		ldr	r3, [r3]
 1504              		.loc 1 1451 25 discriminator 2
 1505 007e 5A68     		ldr	r2, [r3, #4]
 1506              		.loc 1 1451 9 discriminator 2
 1507 0080 FB68     		ldr	r3, [r7, #12]
 1508 0082 1B68     		ldr	r3, [r3]
 1509              		.loc 1 1451 25 discriminator 2
 1510 0084 22F40042 		bic	r2, r2, #32768
 1511 0088 5A60     		str	r2, [r3, #4]
1452:./Drivers/STM32H7xx_HAL_Driver/Src/stm32h7xx_hal_i2c.c **** 
1453:./Drivers/STM32H7xx_HAL_Driver/Src/stm32h7xx_hal_i2c.c ****     /* Wait until ADDR flag is set */
1454:./Drivers/STM32H7xx_HAL_Driver/Src/stm32h7xx_hal_i2c.c ****     if (I2C_WaitOnFlagUntilTimeout(hi2c, I2C_FLAG_ADDR, RESET, Timeout, tickstart) != HAL_OK)
 1512              		.loc 1 1454 9 discriminator 2
 1513 008a 7B69     		ldr	r3, [r7, #20]
 1514 008c 0093     		str	r3, [sp]
 1515 008e 3B68     		ldr	r3, [r7]
 1516 0090 0022     		movs	r2, #0
 1517 0092 0821     		movs	r1, #8
 1518 0094 F868     		ldr	r0, [r7, #12]
 1519 0096 FFF7FEFF 		bl	I2C_WaitOnFlagUntilTimeout
ARM GAS  /tmp/ccHvg3ba.s 			page 53


 1520 009a 0346     		mov	r3, r0
 1521              		.loc 1 1454 8 discriminator 2
 1522 009c 002B     		cmp	r3, #0
 1523 009e 09D0     		beq	.L67
1455:./Drivers/STM32H7xx_HAL_Driver/Src/stm32h7xx_hal_i2c.c ****     {
1456:./Drivers/STM32H7xx_HAL_Driver/Src/stm32h7xx_hal_i2c.c ****       /* Disable Address Acknowledge */
1457:./Drivers/STM32H7xx_HAL_Driver/Src/stm32h7xx_hal_i2c.c ****       hi2c->Instance->CR2 |= I2C_CR2_NACK;
 1524              		.loc 1 1457 11
 1525 00a0 FB68     		ldr	r3, [r7, #12]
 1526 00a2 1B68     		ldr	r3, [r3]
 1527              		.loc 1 1457 27
 1528 00a4 5A68     		ldr	r2, [r3, #4]
 1529              		.loc 1 1457 11
 1530 00a6 FB68     		ldr	r3, [r7, #12]
 1531 00a8 1B68     		ldr	r3, [r3]
 1532              		.loc 1 1457 27
 1533 00aa 42F40042 		orr	r2, r2, #32768
 1534 00ae 5A60     		str	r2, [r3, #4]
1458:./Drivers/STM32H7xx_HAL_Driver/Src/stm32h7xx_hal_i2c.c ****       return HAL_ERROR;
 1535              		.loc 1 1458 14
 1536 00b0 0123     		movs	r3, #1
 1537 00b2 A0E0     		b	.L65
 1538              	.L67:
1459:./Drivers/STM32H7xx_HAL_Driver/Src/stm32h7xx_hal_i2c.c ****     }
1460:./Drivers/STM32H7xx_HAL_Driver/Src/stm32h7xx_hal_i2c.c **** 
1461:./Drivers/STM32H7xx_HAL_Driver/Src/stm32h7xx_hal_i2c.c ****     /* Clear ADDR flag */
1462:./Drivers/STM32H7xx_HAL_Driver/Src/stm32h7xx_hal_i2c.c ****     __HAL_I2C_CLEAR_FLAG(hi2c, I2C_FLAG_ADDR);
 1539              		.loc 1 1462 5
 1540 00b4 FB68     		ldr	r3, [r7, #12]
 1541 00b6 1B68     		ldr	r3, [r3]
 1542 00b8 0822     		movs	r2, #8
 1543 00ba DA61     		str	r2, [r3, #28]
1463:./Drivers/STM32H7xx_HAL_Driver/Src/stm32h7xx_hal_i2c.c **** 
1464:./Drivers/STM32H7xx_HAL_Driver/Src/stm32h7xx_hal_i2c.c ****     /* Wait until DIR flag is reset Receiver mode */
1465:./Drivers/STM32H7xx_HAL_Driver/Src/stm32h7xx_hal_i2c.c ****     if (I2C_WaitOnFlagUntilTimeout(hi2c, I2C_FLAG_DIR, SET, Timeout, tickstart) != HAL_OK)
 1544              		.loc 1 1465 9
 1545 00bc 7B69     		ldr	r3, [r7, #20]
 1546 00be 0093     		str	r3, [sp]
 1547 00c0 3B68     		ldr	r3, [r7]
 1548 00c2 0122     		movs	r2, #1
 1549 00c4 4FF48031 		mov	r1, #65536
 1550 00c8 F868     		ldr	r0, [r7, #12]
 1551 00ca FFF7FEFF 		bl	I2C_WaitOnFlagUntilTimeout
 1552 00ce 0346     		mov	r3, r0
 1553              		.loc 1 1465 8
 1554 00d0 002B     		cmp	r3, #0
 1555 00d2 48D0     		beq	.L69
1466:./Drivers/STM32H7xx_HAL_Driver/Src/stm32h7xx_hal_i2c.c ****     {
1467:./Drivers/STM32H7xx_HAL_Driver/Src/stm32h7xx_hal_i2c.c ****       /* Disable Address Acknowledge */
1468:./Drivers/STM32H7xx_HAL_Driver/Src/stm32h7xx_hal_i2c.c ****       hi2c->Instance->CR2 |= I2C_CR2_NACK;
 1556              		.loc 1 1468 11
 1557 00d4 FB68     		ldr	r3, [r7, #12]
 1558 00d6 1B68     		ldr	r3, [r3]
 1559              		.loc 1 1468 27
 1560 00d8 5A68     		ldr	r2, [r3, #4]
 1561              		.loc 1 1468 11
 1562 00da FB68     		ldr	r3, [r7, #12]
ARM GAS  /tmp/ccHvg3ba.s 			page 54


 1563 00dc 1B68     		ldr	r3, [r3]
 1564              		.loc 1 1468 27
 1565 00de 42F40042 		orr	r2, r2, #32768
 1566 00e2 5A60     		str	r2, [r3, #4]
1469:./Drivers/STM32H7xx_HAL_Driver/Src/stm32h7xx_hal_i2c.c ****       return HAL_ERROR;
 1567              		.loc 1 1469 14
 1568 00e4 0123     		movs	r3, #1
 1569 00e6 86E0     		b	.L65
 1570              	.L72:
1470:./Drivers/STM32H7xx_HAL_Driver/Src/stm32h7xx_hal_i2c.c ****     }
1471:./Drivers/STM32H7xx_HAL_Driver/Src/stm32h7xx_hal_i2c.c **** 
1472:./Drivers/STM32H7xx_HAL_Driver/Src/stm32h7xx_hal_i2c.c ****     while (hi2c->XferCount > 0U)
1473:./Drivers/STM32H7xx_HAL_Driver/Src/stm32h7xx_hal_i2c.c ****     {
1474:./Drivers/STM32H7xx_HAL_Driver/Src/stm32h7xx_hal_i2c.c ****       /* Wait until RXNE flag is set */
1475:./Drivers/STM32H7xx_HAL_Driver/Src/stm32h7xx_hal_i2c.c ****       if (I2C_WaitOnRXNEFlagUntilTimeout(hi2c, Timeout, tickstart) != HAL_OK)
 1571              		.loc 1 1475 11
 1572 00e8 7A69     		ldr	r2, [r7, #20]
 1573 00ea 3968     		ldr	r1, [r7]
 1574 00ec F868     		ldr	r0, [r7, #12]
 1575 00ee FFF7FEFF 		bl	I2C_WaitOnRXNEFlagUntilTimeout
 1576 00f2 0346     		mov	r3, r0
 1577              		.loc 1 1475 10
 1578 00f4 002B     		cmp	r3, #0
 1579 00f6 23D0     		beq	.L70
1476:./Drivers/STM32H7xx_HAL_Driver/Src/stm32h7xx_hal_i2c.c ****       {
1477:./Drivers/STM32H7xx_HAL_Driver/Src/stm32h7xx_hal_i2c.c ****         /* Disable Address Acknowledge */
1478:./Drivers/STM32H7xx_HAL_Driver/Src/stm32h7xx_hal_i2c.c ****         hi2c->Instance->CR2 |= I2C_CR2_NACK;
 1580              		.loc 1 1478 13
 1581 00f8 FB68     		ldr	r3, [r7, #12]
 1582 00fa 1B68     		ldr	r3, [r3]
 1583              		.loc 1 1478 29
 1584 00fc 5A68     		ldr	r2, [r3, #4]
 1585              		.loc 1 1478 13
 1586 00fe FB68     		ldr	r3, [r7, #12]
 1587 0100 1B68     		ldr	r3, [r3]
 1588              		.loc 1 1478 29
 1589 0102 42F40042 		orr	r2, r2, #32768
 1590 0106 5A60     		str	r2, [r3, #4]
1479:./Drivers/STM32H7xx_HAL_Driver/Src/stm32h7xx_hal_i2c.c **** 
1480:./Drivers/STM32H7xx_HAL_Driver/Src/stm32h7xx_hal_i2c.c ****         /* Store Last receive data if any */
1481:./Drivers/STM32H7xx_HAL_Driver/Src/stm32h7xx_hal_i2c.c ****         if (__HAL_I2C_GET_FLAG(hi2c, I2C_FLAG_RXNE) == SET)
 1591              		.loc 1 1481 13
 1592 0108 FB68     		ldr	r3, [r7, #12]
 1593 010a 1B68     		ldr	r3, [r3]
 1594 010c 9B69     		ldr	r3, [r3, #24]
 1595 010e 03F00403 		and	r3, r3, #4
 1596              		.loc 1 1481 12
 1597 0112 042B     		cmp	r3, #4
 1598 0114 12D1     		bne	.L71
1482:./Drivers/STM32H7xx_HAL_Driver/Src/stm32h7xx_hal_i2c.c ****         {
1483:./Drivers/STM32H7xx_HAL_Driver/Src/stm32h7xx_hal_i2c.c ****           /* Read data from RXDR */
1484:./Drivers/STM32H7xx_HAL_Driver/Src/stm32h7xx_hal_i2c.c ****           *hi2c->pBuffPtr = (uint8_t)hi2c->Instance->RXDR;
 1599              		.loc 1 1484 42
 1600 0116 FB68     		ldr	r3, [r7, #12]
 1601 0118 1B68     		ldr	r3, [r3]
 1602              		.loc 1 1484 52
 1603 011a 5A6A     		ldr	r2, [r3, #36]
ARM GAS  /tmp/ccHvg3ba.s 			page 55


 1604              		.loc 1 1484 16
 1605 011c FB68     		ldr	r3, [r7, #12]
 1606 011e 5B6A     		ldr	r3, [r3, #36]
 1607              		.loc 1 1484 29
 1608 0120 D2B2     		uxtb	r2, r2
 1609              		.loc 1 1484 27
 1610 0122 1A70     		strb	r2, [r3]
1485:./Drivers/STM32H7xx_HAL_Driver/Src/stm32h7xx_hal_i2c.c **** 
1486:./Drivers/STM32H7xx_HAL_Driver/Src/stm32h7xx_hal_i2c.c ****           /* Increment Buffer pointer */
1487:./Drivers/STM32H7xx_HAL_Driver/Src/stm32h7xx_hal_i2c.c ****           hi2c->pBuffPtr++;
 1611              		.loc 1 1487 15
 1612 0124 FB68     		ldr	r3, [r7, #12]
 1613 0126 5B6A     		ldr	r3, [r3, #36]
 1614              		.loc 1 1487 25
 1615 0128 5A1C     		adds	r2, r3, #1
 1616 012a FB68     		ldr	r3, [r7, #12]
 1617 012c 5A62     		str	r2, [r3, #36]
1488:./Drivers/STM32H7xx_HAL_Driver/Src/stm32h7xx_hal_i2c.c **** 
1489:./Drivers/STM32H7xx_HAL_Driver/Src/stm32h7xx_hal_i2c.c ****           hi2c->XferCount--;
 1618              		.loc 1 1489 15
 1619 012e FB68     		ldr	r3, [r7, #12]
 1620 0130 5B8D     		ldrh	r3, [r3, #42]	@ movhi
 1621 0132 9BB2     		uxth	r3, r3
 1622              		.loc 1 1489 26
 1623 0134 013B     		subs	r3, r3, #1
 1624 0136 9AB2     		uxth	r2, r3
 1625 0138 FB68     		ldr	r3, [r7, #12]
 1626 013a 5A85     		strh	r2, [r3, #42]	@ movhi
 1627              	.L71:
1490:./Drivers/STM32H7xx_HAL_Driver/Src/stm32h7xx_hal_i2c.c ****         }
1491:./Drivers/STM32H7xx_HAL_Driver/Src/stm32h7xx_hal_i2c.c **** 
1492:./Drivers/STM32H7xx_HAL_Driver/Src/stm32h7xx_hal_i2c.c ****         return HAL_ERROR;
 1628              		.loc 1 1492 16
 1629 013c 0123     		movs	r3, #1
 1630 013e 5AE0     		b	.L65
 1631              	.L70:
1493:./Drivers/STM32H7xx_HAL_Driver/Src/stm32h7xx_hal_i2c.c ****       }
1494:./Drivers/STM32H7xx_HAL_Driver/Src/stm32h7xx_hal_i2c.c **** 
1495:./Drivers/STM32H7xx_HAL_Driver/Src/stm32h7xx_hal_i2c.c ****       /* Read data from RXDR */
1496:./Drivers/STM32H7xx_HAL_Driver/Src/stm32h7xx_hal_i2c.c ****       *hi2c->pBuffPtr = (uint8_t)hi2c->Instance->RXDR;
 1632              		.loc 1 1496 38
 1633 0140 FB68     		ldr	r3, [r7, #12]
 1634 0142 1B68     		ldr	r3, [r3]
 1635              		.loc 1 1496 48
 1636 0144 5A6A     		ldr	r2, [r3, #36]
 1637              		.loc 1 1496 12
 1638 0146 FB68     		ldr	r3, [r7, #12]
 1639 0148 5B6A     		ldr	r3, [r3, #36]
 1640              		.loc 1 1496 25
 1641 014a D2B2     		uxtb	r2, r2
 1642              		.loc 1 1496 23
 1643 014c 1A70     		strb	r2, [r3]
1497:./Drivers/STM32H7xx_HAL_Driver/Src/stm32h7xx_hal_i2c.c **** 
1498:./Drivers/STM32H7xx_HAL_Driver/Src/stm32h7xx_hal_i2c.c ****       /* Increment Buffer pointer */
1499:./Drivers/STM32H7xx_HAL_Driver/Src/stm32h7xx_hal_i2c.c ****       hi2c->pBuffPtr++;
 1644              		.loc 1 1499 11
 1645 014e FB68     		ldr	r3, [r7, #12]
ARM GAS  /tmp/ccHvg3ba.s 			page 56


 1646 0150 5B6A     		ldr	r3, [r3, #36]
 1647              		.loc 1 1499 21
 1648 0152 5A1C     		adds	r2, r3, #1
 1649 0154 FB68     		ldr	r3, [r7, #12]
 1650 0156 5A62     		str	r2, [r3, #36]
1500:./Drivers/STM32H7xx_HAL_Driver/Src/stm32h7xx_hal_i2c.c **** 
1501:./Drivers/STM32H7xx_HAL_Driver/Src/stm32h7xx_hal_i2c.c ****       hi2c->XferCount--;
 1651              		.loc 1 1501 11
 1652 0158 FB68     		ldr	r3, [r7, #12]
 1653 015a 5B8D     		ldrh	r3, [r3, #42]	@ movhi
 1654 015c 9BB2     		uxth	r3, r3
 1655              		.loc 1 1501 22
 1656 015e 013B     		subs	r3, r3, #1
 1657 0160 9AB2     		uxth	r2, r3
 1658 0162 FB68     		ldr	r3, [r7, #12]
 1659 0164 5A85     		strh	r2, [r3, #42]	@ movhi
 1660              	.L69:
1472:./Drivers/STM32H7xx_HAL_Driver/Src/stm32h7xx_hal_i2c.c ****     {
 1661              		.loc 1 1472 16
 1662 0166 FB68     		ldr	r3, [r7, #12]
 1663 0168 5B8D     		ldrh	r3, [r3, #42]	@ movhi
 1664 016a 9BB2     		uxth	r3, r3
1472:./Drivers/STM32H7xx_HAL_Driver/Src/stm32h7xx_hal_i2c.c ****     {
 1665              		.loc 1 1472 11
 1666 016c 002B     		cmp	r3, #0
 1667 016e BBD1     		bne	.L72
1502:./Drivers/STM32H7xx_HAL_Driver/Src/stm32h7xx_hal_i2c.c ****     }
1503:./Drivers/STM32H7xx_HAL_Driver/Src/stm32h7xx_hal_i2c.c **** 
1504:./Drivers/STM32H7xx_HAL_Driver/Src/stm32h7xx_hal_i2c.c ****     /* Wait until STOP flag is set */
1505:./Drivers/STM32H7xx_HAL_Driver/Src/stm32h7xx_hal_i2c.c ****     if (I2C_WaitOnSTOPFlagUntilTimeout(hi2c, Timeout, tickstart) != HAL_OK)
 1668              		.loc 1 1505 9
 1669 0170 7A69     		ldr	r2, [r7, #20]
 1670 0172 3968     		ldr	r1, [r7]
 1671 0174 F868     		ldr	r0, [r7, #12]
 1672 0176 FFF7FEFF 		bl	I2C_WaitOnSTOPFlagUntilTimeout
 1673 017a 0346     		mov	r3, r0
 1674              		.loc 1 1505 8
 1675 017c 002B     		cmp	r3, #0
 1676 017e 09D0     		beq	.L73
1506:./Drivers/STM32H7xx_HAL_Driver/Src/stm32h7xx_hal_i2c.c ****     {
1507:./Drivers/STM32H7xx_HAL_Driver/Src/stm32h7xx_hal_i2c.c ****       /* Disable Address Acknowledge */
1508:./Drivers/STM32H7xx_HAL_Driver/Src/stm32h7xx_hal_i2c.c ****       hi2c->Instance->CR2 |= I2C_CR2_NACK;
 1677              		.loc 1 1508 11
 1678 0180 FB68     		ldr	r3, [r7, #12]
 1679 0182 1B68     		ldr	r3, [r3]
 1680              		.loc 1 1508 27
 1681 0184 5A68     		ldr	r2, [r3, #4]
 1682              		.loc 1 1508 11
 1683 0186 FB68     		ldr	r3, [r7, #12]
 1684 0188 1B68     		ldr	r3, [r3]
 1685              		.loc 1 1508 27
 1686 018a 42F40042 		orr	r2, r2, #32768
 1687 018e 5A60     		str	r2, [r3, #4]
1509:./Drivers/STM32H7xx_HAL_Driver/Src/stm32h7xx_hal_i2c.c ****       return HAL_ERROR;
 1688              		.loc 1 1509 14
 1689 0190 0123     		movs	r3, #1
 1690 0192 30E0     		b	.L65
ARM GAS  /tmp/ccHvg3ba.s 			page 57


 1691              	.L73:
1510:./Drivers/STM32H7xx_HAL_Driver/Src/stm32h7xx_hal_i2c.c ****     }
1511:./Drivers/STM32H7xx_HAL_Driver/Src/stm32h7xx_hal_i2c.c **** 
1512:./Drivers/STM32H7xx_HAL_Driver/Src/stm32h7xx_hal_i2c.c ****     /* Clear STOP flag */
1513:./Drivers/STM32H7xx_HAL_Driver/Src/stm32h7xx_hal_i2c.c ****     __HAL_I2C_CLEAR_FLAG(hi2c, I2C_FLAG_STOPF);
 1692              		.loc 1 1513 5
 1693 0194 FB68     		ldr	r3, [r7, #12]
 1694 0196 1B68     		ldr	r3, [r3]
 1695 0198 2022     		movs	r2, #32
 1696 019a DA61     		str	r2, [r3, #28]
1514:./Drivers/STM32H7xx_HAL_Driver/Src/stm32h7xx_hal_i2c.c **** 
1515:./Drivers/STM32H7xx_HAL_Driver/Src/stm32h7xx_hal_i2c.c ****     /* Wait until BUSY flag is reset */
1516:./Drivers/STM32H7xx_HAL_Driver/Src/stm32h7xx_hal_i2c.c ****     if (I2C_WaitOnFlagUntilTimeout(hi2c, I2C_FLAG_BUSY, SET, Timeout, tickstart) != HAL_OK)
 1697              		.loc 1 1516 9
 1698 019c 7B69     		ldr	r3, [r7, #20]
 1699 019e 0093     		str	r3, [sp]
 1700 01a0 3B68     		ldr	r3, [r7]
 1701 01a2 0122     		movs	r2, #1
 1702 01a4 4FF40041 		mov	r1, #32768
 1703 01a8 F868     		ldr	r0, [r7, #12]
 1704 01aa FFF7FEFF 		bl	I2C_WaitOnFlagUntilTimeout
 1705 01ae 0346     		mov	r3, r0
 1706              		.loc 1 1516 8
 1707 01b0 002B     		cmp	r3, #0
 1708 01b2 09D0     		beq	.L74
1517:./Drivers/STM32H7xx_HAL_Driver/Src/stm32h7xx_hal_i2c.c ****     {
1518:./Drivers/STM32H7xx_HAL_Driver/Src/stm32h7xx_hal_i2c.c ****       /* Disable Address Acknowledge */
1519:./Drivers/STM32H7xx_HAL_Driver/Src/stm32h7xx_hal_i2c.c ****       hi2c->Instance->CR2 |= I2C_CR2_NACK;
 1709              		.loc 1 1519 11
 1710 01b4 FB68     		ldr	r3, [r7, #12]
 1711 01b6 1B68     		ldr	r3, [r3]
 1712              		.loc 1 1519 27
 1713 01b8 5A68     		ldr	r2, [r3, #4]
 1714              		.loc 1 1519 11
 1715 01ba FB68     		ldr	r3, [r7, #12]
 1716 01bc 1B68     		ldr	r3, [r3]
 1717              		.loc 1 1519 27
 1718 01be 42F40042 		orr	r2, r2, #32768
 1719 01c2 5A60     		str	r2, [r3, #4]
1520:./Drivers/STM32H7xx_HAL_Driver/Src/stm32h7xx_hal_i2c.c ****       return HAL_ERROR;
 1720              		.loc 1 1520 14
 1721 01c4 0123     		movs	r3, #1
 1722 01c6 16E0     		b	.L65
 1723              	.L74:
1521:./Drivers/STM32H7xx_HAL_Driver/Src/stm32h7xx_hal_i2c.c ****     }
1522:./Drivers/STM32H7xx_HAL_Driver/Src/stm32h7xx_hal_i2c.c **** 
1523:./Drivers/STM32H7xx_HAL_Driver/Src/stm32h7xx_hal_i2c.c ****     /* Disable Address Acknowledge */
1524:./Drivers/STM32H7xx_HAL_Driver/Src/stm32h7xx_hal_i2c.c ****     hi2c->Instance->CR2 |= I2C_CR2_NACK;
 1724              		.loc 1 1524 9
 1725 01c8 FB68     		ldr	r3, [r7, #12]
 1726 01ca 1B68     		ldr	r3, [r3]
 1727              		.loc 1 1524 25
 1728 01cc 5A68     		ldr	r2, [r3, #4]
 1729              		.loc 1 1524 9
 1730 01ce FB68     		ldr	r3, [r7, #12]
 1731 01d0 1B68     		ldr	r3, [r3]
 1732              		.loc 1 1524 25
ARM GAS  /tmp/ccHvg3ba.s 			page 58


 1733 01d2 42F40042 		orr	r2, r2, #32768
 1734 01d6 5A60     		str	r2, [r3, #4]
1525:./Drivers/STM32H7xx_HAL_Driver/Src/stm32h7xx_hal_i2c.c **** 
1526:./Drivers/STM32H7xx_HAL_Driver/Src/stm32h7xx_hal_i2c.c ****     hi2c->State = HAL_I2C_STATE_READY;
 1735              		.loc 1 1526 17
 1736 01d8 FB68     		ldr	r3, [r7, #12]
 1737 01da 2022     		movs	r2, #32
 1738 01dc 83F84120 		strb	r2, [r3, #65]
1527:./Drivers/STM32H7xx_HAL_Driver/Src/stm32h7xx_hal_i2c.c ****     hi2c->Mode  = HAL_I2C_MODE_NONE;
 1739              		.loc 1 1527 17
 1740 01e0 FB68     		ldr	r3, [r7, #12]
 1741 01e2 0022     		movs	r2, #0
 1742 01e4 83F84220 		strb	r2, [r3, #66]
1528:./Drivers/STM32H7xx_HAL_Driver/Src/stm32h7xx_hal_i2c.c **** 
1529:./Drivers/STM32H7xx_HAL_Driver/Src/stm32h7xx_hal_i2c.c ****     /* Process Unlocked */
1530:./Drivers/STM32H7xx_HAL_Driver/Src/stm32h7xx_hal_i2c.c ****     __HAL_UNLOCK(hi2c);
 1743              		.loc 1 1530 5
 1744 01e8 FB68     		ldr	r3, [r7, #12]
 1745 01ea 0022     		movs	r2, #0
 1746 01ec 83F84020 		strb	r2, [r3, #64]
1531:./Drivers/STM32H7xx_HAL_Driver/Src/stm32h7xx_hal_i2c.c **** 
1532:./Drivers/STM32H7xx_HAL_Driver/Src/stm32h7xx_hal_i2c.c ****     return HAL_OK;
 1747              		.loc 1 1532 12
 1748 01f0 0023     		movs	r3, #0
 1749 01f2 00E0     		b	.L65
 1750              	.L62:
1533:./Drivers/STM32H7xx_HAL_Driver/Src/stm32h7xx_hal_i2c.c ****   }
1534:./Drivers/STM32H7xx_HAL_Driver/Src/stm32h7xx_hal_i2c.c ****   else
1535:./Drivers/STM32H7xx_HAL_Driver/Src/stm32h7xx_hal_i2c.c ****   {
1536:./Drivers/STM32H7xx_HAL_Driver/Src/stm32h7xx_hal_i2c.c ****     return HAL_BUSY;
 1751              		.loc 1 1536 12
 1752 01f4 0223     		movs	r3, #2
 1753              	.L65:
1537:./Drivers/STM32H7xx_HAL_Driver/Src/stm32h7xx_hal_i2c.c ****   }
1538:./Drivers/STM32H7xx_HAL_Driver/Src/stm32h7xx_hal_i2c.c **** }
 1754              		.loc 1 1538 1
 1755 01f6 1846     		mov	r0, r3
 1756 01f8 1837     		adds	r7, r7, #24
 1757              		.cfi_def_cfa_offset 8
 1758 01fa BD46     		mov	sp, r7
 1759              		.cfi_def_cfa_register 13
 1760              		@ sp needed
 1761 01fc 80BD     		pop	{r7, pc}
 1762              		.cfi_endproc
 1763              	.LFE141:
 1765              		.section	.text.HAL_I2C_Master_Transmit_IT,"ax",%progbits
 1766              		.align	1
 1767              		.global	HAL_I2C_Master_Transmit_IT
 1768              		.syntax unified
 1769              		.thumb
 1770              		.thumb_func
 1771              		.fpu fpv5-d16
 1773              	HAL_I2C_Master_Transmit_IT:
 1774              	.LFB142:
1539:./Drivers/STM32H7xx_HAL_Driver/Src/stm32h7xx_hal_i2c.c **** 
1540:./Drivers/STM32H7xx_HAL_Driver/Src/stm32h7xx_hal_i2c.c **** /**
1541:./Drivers/STM32H7xx_HAL_Driver/Src/stm32h7xx_hal_i2c.c ****   * @brief  Transmit in master mode an amount of data in non-blocking mode with Interrupt
ARM GAS  /tmp/ccHvg3ba.s 			page 59


1542:./Drivers/STM32H7xx_HAL_Driver/Src/stm32h7xx_hal_i2c.c ****   * @param  hi2c Pointer to a I2C_HandleTypeDef structure that contains
1543:./Drivers/STM32H7xx_HAL_Driver/Src/stm32h7xx_hal_i2c.c ****   *                the configuration information for the specified I2C.
1544:./Drivers/STM32H7xx_HAL_Driver/Src/stm32h7xx_hal_i2c.c ****   * @param  DevAddress Target device address: The device 7 bits address value
1545:./Drivers/STM32H7xx_HAL_Driver/Src/stm32h7xx_hal_i2c.c ****   *         in datasheet must be shifted to the left before calling the interface
1546:./Drivers/STM32H7xx_HAL_Driver/Src/stm32h7xx_hal_i2c.c ****   * @param  pData Pointer to data buffer
1547:./Drivers/STM32H7xx_HAL_Driver/Src/stm32h7xx_hal_i2c.c ****   * @param  Size Amount of data to be sent
1548:./Drivers/STM32H7xx_HAL_Driver/Src/stm32h7xx_hal_i2c.c ****   * @retval HAL status
1549:./Drivers/STM32H7xx_HAL_Driver/Src/stm32h7xx_hal_i2c.c ****   */
1550:./Drivers/STM32H7xx_HAL_Driver/Src/stm32h7xx_hal_i2c.c **** HAL_StatusTypeDef HAL_I2C_Master_Transmit_IT(I2C_HandleTypeDef *hi2c, uint16_t DevAddress, uint8_t 
1551:./Drivers/STM32H7xx_HAL_Driver/Src/stm32h7xx_hal_i2c.c **** {
 1775              		.loc 1 1551 1
 1776              		.cfi_startproc
 1777              		@ args = 0, pretend = 0, frame = 24
 1778              		@ frame_needed = 1, uses_anonymous_args = 0
 1779 0000 80B5     		push	{r7, lr}
 1780              		.cfi_def_cfa_offset 8
 1781              		.cfi_offset 7, -8
 1782              		.cfi_offset 14, -4
 1783 0002 88B0     		sub	sp, sp, #32
 1784              		.cfi_def_cfa_offset 40
 1785 0004 02AF     		add	r7, sp, #8
 1786              		.cfi_def_cfa 7, 32
 1787 0006 F860     		str	r0, [r7, #12]
 1788 0008 7A60     		str	r2, [r7, #4]
 1789 000a 1A46     		mov	r2, r3
 1790 000c 0B46     		mov	r3, r1	@ movhi
 1791 000e 7B81     		strh	r3, [r7, #10]	@ movhi
 1792 0010 1346     		mov	r3, r2	@ movhi
 1793 0012 3B81     		strh	r3, [r7, #8]	@ movhi
1552:./Drivers/STM32H7xx_HAL_Driver/Src/stm32h7xx_hal_i2c.c ****   uint32_t xfermode;
1553:./Drivers/STM32H7xx_HAL_Driver/Src/stm32h7xx_hal_i2c.c **** 
1554:./Drivers/STM32H7xx_HAL_Driver/Src/stm32h7xx_hal_i2c.c ****   if (hi2c->State == HAL_I2C_STATE_READY)
 1794              		.loc 1 1554 11
 1795 0014 FB68     		ldr	r3, [r7, #12]
 1796 0016 93F84130 		ldrb	r3, [r3, #65]
 1797 001a DBB2     		uxtb	r3, r3
 1798              		.loc 1 1554 6
 1799 001c 202B     		cmp	r3, #32
 1800 001e 53D1     		bne	.L76
1555:./Drivers/STM32H7xx_HAL_Driver/Src/stm32h7xx_hal_i2c.c ****   {
1556:./Drivers/STM32H7xx_HAL_Driver/Src/stm32h7xx_hal_i2c.c ****     if (__HAL_I2C_GET_FLAG(hi2c, I2C_FLAG_BUSY) == SET)
 1801              		.loc 1 1556 9
 1802 0020 FB68     		ldr	r3, [r7, #12]
 1803 0022 1B68     		ldr	r3, [r3]
 1804 0024 9B69     		ldr	r3, [r3, #24]
 1805 0026 03F40043 		and	r3, r3, #32768
 1806              		.loc 1 1556 8
 1807 002a B3F5004F 		cmp	r3, #32768
 1808 002e 01D1     		bne	.L77
1557:./Drivers/STM32H7xx_HAL_Driver/Src/stm32h7xx_hal_i2c.c ****     {
1558:./Drivers/STM32H7xx_HAL_Driver/Src/stm32h7xx_hal_i2c.c ****       return HAL_BUSY;
 1809              		.loc 1 1558 14
 1810 0030 0223     		movs	r3, #2
 1811 0032 4AE0     		b	.L78
 1812              	.L77:
1559:./Drivers/STM32H7xx_HAL_Driver/Src/stm32h7xx_hal_i2c.c ****     }
1560:./Drivers/STM32H7xx_HAL_Driver/Src/stm32h7xx_hal_i2c.c **** 
ARM GAS  /tmp/ccHvg3ba.s 			page 60


1561:./Drivers/STM32H7xx_HAL_Driver/Src/stm32h7xx_hal_i2c.c ****     /* Process Locked */
1562:./Drivers/STM32H7xx_HAL_Driver/Src/stm32h7xx_hal_i2c.c ****     __HAL_LOCK(hi2c);
 1813              		.loc 1 1562 5
 1814 0034 FB68     		ldr	r3, [r7, #12]
 1815 0036 93F84030 		ldrb	r3, [r3, #64]	@ zero_extendqisi2
 1816 003a 012B     		cmp	r3, #1
 1817 003c 01D1     		bne	.L79
 1818              		.loc 1 1562 5 is_stmt 0 discriminator 1
 1819 003e 0223     		movs	r3, #2
 1820 0040 43E0     		b	.L78
 1821              	.L79:
 1822              		.loc 1 1562 5 discriminator 2
 1823 0042 FB68     		ldr	r3, [r7, #12]
 1824 0044 0122     		movs	r2, #1
 1825 0046 83F84020 		strb	r2, [r3, #64]
1563:./Drivers/STM32H7xx_HAL_Driver/Src/stm32h7xx_hal_i2c.c **** 
1564:./Drivers/STM32H7xx_HAL_Driver/Src/stm32h7xx_hal_i2c.c ****     hi2c->State       = HAL_I2C_STATE_BUSY_TX;
 1826              		.loc 1 1564 23 is_stmt 1 discriminator 2
 1827 004a FB68     		ldr	r3, [r7, #12]
 1828 004c 2122     		movs	r2, #33
 1829 004e 83F84120 		strb	r2, [r3, #65]
1565:./Drivers/STM32H7xx_HAL_Driver/Src/stm32h7xx_hal_i2c.c ****     hi2c->Mode        = HAL_I2C_MODE_MASTER;
 1830              		.loc 1 1565 23 discriminator 2
 1831 0052 FB68     		ldr	r3, [r7, #12]
 1832 0054 1022     		movs	r2, #16
 1833 0056 83F84220 		strb	r2, [r3, #66]
1566:./Drivers/STM32H7xx_HAL_Driver/Src/stm32h7xx_hal_i2c.c ****     hi2c->ErrorCode   = HAL_I2C_ERROR_NONE;
 1834              		.loc 1 1566 23 discriminator 2
 1835 005a FB68     		ldr	r3, [r7, #12]
 1836 005c 0022     		movs	r2, #0
 1837 005e 5A64     		str	r2, [r3, #68]
1567:./Drivers/STM32H7xx_HAL_Driver/Src/stm32h7xx_hal_i2c.c **** 
1568:./Drivers/STM32H7xx_HAL_Driver/Src/stm32h7xx_hal_i2c.c ****     /* Prepare transfer parameters */
1569:./Drivers/STM32H7xx_HAL_Driver/Src/stm32h7xx_hal_i2c.c ****     hi2c->pBuffPtr    = pData;
 1838              		.loc 1 1569 23 discriminator 2
 1839 0060 FB68     		ldr	r3, [r7, #12]
 1840 0062 7A68     		ldr	r2, [r7, #4]
 1841 0064 5A62     		str	r2, [r3, #36]
1570:./Drivers/STM32H7xx_HAL_Driver/Src/stm32h7xx_hal_i2c.c ****     hi2c->XferCount   = Size;
 1842              		.loc 1 1570 23 discriminator 2
 1843 0066 FB68     		ldr	r3, [r7, #12]
 1844 0068 3A89     		ldrh	r2, [r7, #8]	@ movhi
 1845 006a 5A85     		strh	r2, [r3, #42]	@ movhi
1571:./Drivers/STM32H7xx_HAL_Driver/Src/stm32h7xx_hal_i2c.c ****     hi2c->XferOptions = I2C_NO_OPTION_FRAME;
 1846              		.loc 1 1571 23 discriminator 2
 1847 006c FB68     		ldr	r3, [r7, #12]
 1848 006e 194A     		ldr	r2, .L82
 1849 0070 DA62     		str	r2, [r3, #44]
1572:./Drivers/STM32H7xx_HAL_Driver/Src/stm32h7xx_hal_i2c.c ****     hi2c->XferISR     = I2C_Master_ISR_IT;
 1850              		.loc 1 1572 23 discriminator 2
 1851 0072 FB68     		ldr	r3, [r7, #12]
 1852 0074 184A     		ldr	r2, .L82+4
 1853 0076 5A63     		str	r2, [r3, #52]
1573:./Drivers/STM32H7xx_HAL_Driver/Src/stm32h7xx_hal_i2c.c **** 
1574:./Drivers/STM32H7xx_HAL_Driver/Src/stm32h7xx_hal_i2c.c ****     if (hi2c->XferCount > MAX_NBYTE_SIZE)
 1854              		.loc 1 1574 13 discriminator 2
 1855 0078 FB68     		ldr	r3, [r7, #12]
ARM GAS  /tmp/ccHvg3ba.s 			page 61


 1856 007a 5B8D     		ldrh	r3, [r3, #42]	@ movhi
 1857 007c 9BB2     		uxth	r3, r3
 1858              		.loc 1 1574 8 discriminator 2
 1859 007e FF2B     		cmp	r3, #255
 1860 0080 06D9     		bls	.L80
1575:./Drivers/STM32H7xx_HAL_Driver/Src/stm32h7xx_hal_i2c.c ****     {
1576:./Drivers/STM32H7xx_HAL_Driver/Src/stm32h7xx_hal_i2c.c ****       hi2c->XferSize = MAX_NBYTE_SIZE;
 1861              		.loc 1 1576 22
 1862 0082 FB68     		ldr	r3, [r7, #12]
 1863 0084 FF22     		movs	r2, #255
 1864 0086 1A85     		strh	r2, [r3, #40]	@ movhi
1577:./Drivers/STM32H7xx_HAL_Driver/Src/stm32h7xx_hal_i2c.c ****       xfermode = I2C_RELOAD_MODE;
 1865              		.loc 1 1577 16
 1866 0088 4FF08073 		mov	r3, #16777216
 1867 008c 7B61     		str	r3, [r7, #20]
 1868 008e 07E0     		b	.L81
 1869              	.L80:
1578:./Drivers/STM32H7xx_HAL_Driver/Src/stm32h7xx_hal_i2c.c ****     }
1579:./Drivers/STM32H7xx_HAL_Driver/Src/stm32h7xx_hal_i2c.c ****     else
1580:./Drivers/STM32H7xx_HAL_Driver/Src/stm32h7xx_hal_i2c.c ****     {
1581:./Drivers/STM32H7xx_HAL_Driver/Src/stm32h7xx_hal_i2c.c ****       hi2c->XferSize = hi2c->XferCount;
 1870              		.loc 1 1581 28
 1871 0090 FB68     		ldr	r3, [r7, #12]
 1872 0092 5B8D     		ldrh	r3, [r3, #42]	@ movhi
 1873 0094 9AB2     		uxth	r2, r3
 1874              		.loc 1 1581 22
 1875 0096 FB68     		ldr	r3, [r7, #12]
 1876 0098 1A85     		strh	r2, [r3, #40]	@ movhi
1582:./Drivers/STM32H7xx_HAL_Driver/Src/stm32h7xx_hal_i2c.c ****       xfermode = I2C_AUTOEND_MODE;
 1877              		.loc 1 1582 16
 1878 009a 4FF00073 		mov	r3, #33554432
 1879 009e 7B61     		str	r3, [r7, #20]
 1880              	.L81:
1583:./Drivers/STM32H7xx_HAL_Driver/Src/stm32h7xx_hal_i2c.c ****     }
1584:./Drivers/STM32H7xx_HAL_Driver/Src/stm32h7xx_hal_i2c.c **** 
1585:./Drivers/STM32H7xx_HAL_Driver/Src/stm32h7xx_hal_i2c.c ****     /* Send Slave Address */
1586:./Drivers/STM32H7xx_HAL_Driver/Src/stm32h7xx_hal_i2c.c ****     /* Set NBYTES to write and reload if hi2c->XferCount > MAX_NBYTE_SIZE */
1587:./Drivers/STM32H7xx_HAL_Driver/Src/stm32h7xx_hal_i2c.c ****     I2C_TransferConfig(hi2c, DevAddress, (uint8_t)hi2c->XferSize, xfermode, I2C_GENERATE_START_WRIT
 1881              		.loc 1 1587 55
 1882 00a0 FB68     		ldr	r3, [r7, #12]
 1883 00a2 1B8D     		ldrh	r3, [r3, #40]
 1884              		.loc 1 1587 5
 1885 00a4 DAB2     		uxtb	r2, r3
 1886 00a6 7989     		ldrh	r1, [r7, #10]
 1887 00a8 0C4B     		ldr	r3, .L82+8
 1888 00aa 0093     		str	r3, [sp]
 1889 00ac 7B69     		ldr	r3, [r7, #20]
 1890 00ae F868     		ldr	r0, [r7, #12]
 1891 00b0 FFF7FEFF 		bl	I2C_TransferConfig
1588:./Drivers/STM32H7xx_HAL_Driver/Src/stm32h7xx_hal_i2c.c **** 
1589:./Drivers/STM32H7xx_HAL_Driver/Src/stm32h7xx_hal_i2c.c ****     /* Process Unlocked */
1590:./Drivers/STM32H7xx_HAL_Driver/Src/stm32h7xx_hal_i2c.c ****     __HAL_UNLOCK(hi2c);
 1892              		.loc 1 1590 5
 1893 00b4 FB68     		ldr	r3, [r7, #12]
 1894 00b6 0022     		movs	r2, #0
 1895 00b8 83F84020 		strb	r2, [r3, #64]
1591:./Drivers/STM32H7xx_HAL_Driver/Src/stm32h7xx_hal_i2c.c **** 
ARM GAS  /tmp/ccHvg3ba.s 			page 62


1592:./Drivers/STM32H7xx_HAL_Driver/Src/stm32h7xx_hal_i2c.c ****     /* Note : The I2C interrupts must be enabled after unlocking current process
1593:./Drivers/STM32H7xx_HAL_Driver/Src/stm32h7xx_hal_i2c.c ****               to avoid the risk of I2C interrupt handle execution before current
1594:./Drivers/STM32H7xx_HAL_Driver/Src/stm32h7xx_hal_i2c.c ****               process unlock */
1595:./Drivers/STM32H7xx_HAL_Driver/Src/stm32h7xx_hal_i2c.c **** 
1596:./Drivers/STM32H7xx_HAL_Driver/Src/stm32h7xx_hal_i2c.c ****     /* Enable ERR, TC, STOP, NACK, TXI interrupt */
1597:./Drivers/STM32H7xx_HAL_Driver/Src/stm32h7xx_hal_i2c.c ****     /* possible to enable all of these */
1598:./Drivers/STM32H7xx_HAL_Driver/Src/stm32h7xx_hal_i2c.c ****     /* I2C_IT_ERRI | I2C_IT_TCI| I2C_IT_STOPI| I2C_IT_NACKI | I2C_IT_ADDRI | I2C_IT_RXI | I2C_IT_TX
1599:./Drivers/STM32H7xx_HAL_Driver/Src/stm32h7xx_hal_i2c.c ****     I2C_Enable_IRQ(hi2c, I2C_XFER_TX_IT);
 1896              		.loc 1 1599 5
 1897 00bc 0121     		movs	r1, #1
 1898 00be F868     		ldr	r0, [r7, #12]
 1899 00c0 FFF7FEFF 		bl	I2C_Enable_IRQ
1600:./Drivers/STM32H7xx_HAL_Driver/Src/stm32h7xx_hal_i2c.c **** 
1601:./Drivers/STM32H7xx_HAL_Driver/Src/stm32h7xx_hal_i2c.c ****     return HAL_OK;
 1900              		.loc 1 1601 12
 1901 00c4 0023     		movs	r3, #0
 1902 00c6 00E0     		b	.L78
 1903              	.L76:
1602:./Drivers/STM32H7xx_HAL_Driver/Src/stm32h7xx_hal_i2c.c ****   }
1603:./Drivers/STM32H7xx_HAL_Driver/Src/stm32h7xx_hal_i2c.c ****   else
1604:./Drivers/STM32H7xx_HAL_Driver/Src/stm32h7xx_hal_i2c.c ****   {
1605:./Drivers/STM32H7xx_HAL_Driver/Src/stm32h7xx_hal_i2c.c ****     return HAL_BUSY;
 1904              		.loc 1 1605 12
 1905 00c8 0223     		movs	r3, #2
 1906              	.L78:
1606:./Drivers/STM32H7xx_HAL_Driver/Src/stm32h7xx_hal_i2c.c ****   }
1607:./Drivers/STM32H7xx_HAL_Driver/Src/stm32h7xx_hal_i2c.c **** }
 1907              		.loc 1 1607 1
 1908 00ca 1846     		mov	r0, r3
 1909 00cc 1837     		adds	r7, r7, #24
 1910              		.cfi_def_cfa_offset 8
 1911 00ce BD46     		mov	sp, r7
 1912              		.cfi_def_cfa_register 13
 1913              		@ sp needed
 1914 00d0 80BD     		pop	{r7, pc}
 1915              	.L83:
 1916 00d2 00BF     		.align	2
 1917              	.L82:
 1918 00d4 0000FFFF 		.word	-65536
 1919 00d8 00000000 		.word	I2C_Master_ISR_IT
 1920 00dc 00200080 		.word	-2147475456
 1921              		.cfi_endproc
 1922              	.LFE142:
 1924              		.section	.text.HAL_I2C_Master_Receive_IT,"ax",%progbits
 1925              		.align	1
 1926              		.global	HAL_I2C_Master_Receive_IT
 1927              		.syntax unified
 1928              		.thumb
 1929              		.thumb_func
 1930              		.fpu fpv5-d16
 1932              	HAL_I2C_Master_Receive_IT:
 1933              	.LFB143:
1608:./Drivers/STM32H7xx_HAL_Driver/Src/stm32h7xx_hal_i2c.c **** 
1609:./Drivers/STM32H7xx_HAL_Driver/Src/stm32h7xx_hal_i2c.c **** /**
1610:./Drivers/STM32H7xx_HAL_Driver/Src/stm32h7xx_hal_i2c.c ****   * @brief  Receive in master mode an amount of data in non-blocking mode with Interrupt
1611:./Drivers/STM32H7xx_HAL_Driver/Src/stm32h7xx_hal_i2c.c ****   * @param  hi2c Pointer to a I2C_HandleTypeDef structure that contains
1612:./Drivers/STM32H7xx_HAL_Driver/Src/stm32h7xx_hal_i2c.c ****   *                the configuration information for the specified I2C.
ARM GAS  /tmp/ccHvg3ba.s 			page 63


1613:./Drivers/STM32H7xx_HAL_Driver/Src/stm32h7xx_hal_i2c.c ****   * @param  DevAddress Target device address: The device 7 bits address value
1614:./Drivers/STM32H7xx_HAL_Driver/Src/stm32h7xx_hal_i2c.c ****   *         in datasheet must be shifted to the left before calling the interface
1615:./Drivers/STM32H7xx_HAL_Driver/Src/stm32h7xx_hal_i2c.c ****   * @param  pData Pointer to data buffer
1616:./Drivers/STM32H7xx_HAL_Driver/Src/stm32h7xx_hal_i2c.c ****   * @param  Size Amount of data to be sent
1617:./Drivers/STM32H7xx_HAL_Driver/Src/stm32h7xx_hal_i2c.c ****   * @retval HAL status
1618:./Drivers/STM32H7xx_HAL_Driver/Src/stm32h7xx_hal_i2c.c ****   */
1619:./Drivers/STM32H7xx_HAL_Driver/Src/stm32h7xx_hal_i2c.c **** HAL_StatusTypeDef HAL_I2C_Master_Receive_IT(I2C_HandleTypeDef *hi2c, uint16_t DevAddress, uint8_t *
1620:./Drivers/STM32H7xx_HAL_Driver/Src/stm32h7xx_hal_i2c.c **** {
 1934              		.loc 1 1620 1
 1935              		.cfi_startproc
 1936              		@ args = 0, pretend = 0, frame = 24
 1937              		@ frame_needed = 1, uses_anonymous_args = 0
 1938 0000 80B5     		push	{r7, lr}
 1939              		.cfi_def_cfa_offset 8
 1940              		.cfi_offset 7, -8
 1941              		.cfi_offset 14, -4
 1942 0002 88B0     		sub	sp, sp, #32
 1943              		.cfi_def_cfa_offset 40
 1944 0004 02AF     		add	r7, sp, #8
 1945              		.cfi_def_cfa 7, 32
 1946 0006 F860     		str	r0, [r7, #12]
 1947 0008 7A60     		str	r2, [r7, #4]
 1948 000a 1A46     		mov	r2, r3
 1949 000c 0B46     		mov	r3, r1	@ movhi
 1950 000e 7B81     		strh	r3, [r7, #10]	@ movhi
 1951 0010 1346     		mov	r3, r2	@ movhi
 1952 0012 3B81     		strh	r3, [r7, #8]	@ movhi
1621:./Drivers/STM32H7xx_HAL_Driver/Src/stm32h7xx_hal_i2c.c ****   uint32_t xfermode;
1622:./Drivers/STM32H7xx_HAL_Driver/Src/stm32h7xx_hal_i2c.c **** 
1623:./Drivers/STM32H7xx_HAL_Driver/Src/stm32h7xx_hal_i2c.c ****   if (hi2c->State == HAL_I2C_STATE_READY)
 1953              		.loc 1 1623 11
 1954 0014 FB68     		ldr	r3, [r7, #12]
 1955 0016 93F84130 		ldrb	r3, [r3, #65]
 1956 001a DBB2     		uxtb	r3, r3
 1957              		.loc 1 1623 6
 1958 001c 202B     		cmp	r3, #32
 1959 001e 53D1     		bne	.L85
1624:./Drivers/STM32H7xx_HAL_Driver/Src/stm32h7xx_hal_i2c.c ****   {
1625:./Drivers/STM32H7xx_HAL_Driver/Src/stm32h7xx_hal_i2c.c ****     if (__HAL_I2C_GET_FLAG(hi2c, I2C_FLAG_BUSY) == SET)
 1960              		.loc 1 1625 9
 1961 0020 FB68     		ldr	r3, [r7, #12]
 1962 0022 1B68     		ldr	r3, [r3]
 1963 0024 9B69     		ldr	r3, [r3, #24]
 1964 0026 03F40043 		and	r3, r3, #32768
 1965              		.loc 1 1625 8
 1966 002a B3F5004F 		cmp	r3, #32768
 1967 002e 01D1     		bne	.L86
1626:./Drivers/STM32H7xx_HAL_Driver/Src/stm32h7xx_hal_i2c.c ****     {
1627:./Drivers/STM32H7xx_HAL_Driver/Src/stm32h7xx_hal_i2c.c ****       return HAL_BUSY;
 1968              		.loc 1 1627 14
 1969 0030 0223     		movs	r3, #2
 1970 0032 4AE0     		b	.L87
 1971              	.L86:
1628:./Drivers/STM32H7xx_HAL_Driver/Src/stm32h7xx_hal_i2c.c ****     }
1629:./Drivers/STM32H7xx_HAL_Driver/Src/stm32h7xx_hal_i2c.c **** 
1630:./Drivers/STM32H7xx_HAL_Driver/Src/stm32h7xx_hal_i2c.c ****     /* Process Locked */
1631:./Drivers/STM32H7xx_HAL_Driver/Src/stm32h7xx_hal_i2c.c ****     __HAL_LOCK(hi2c);
ARM GAS  /tmp/ccHvg3ba.s 			page 64


 1972              		.loc 1 1631 5
 1973 0034 FB68     		ldr	r3, [r7, #12]
 1974 0036 93F84030 		ldrb	r3, [r3, #64]	@ zero_extendqisi2
 1975 003a 012B     		cmp	r3, #1
 1976 003c 01D1     		bne	.L88
 1977              		.loc 1 1631 5 is_stmt 0 discriminator 1
 1978 003e 0223     		movs	r3, #2
 1979 0040 43E0     		b	.L87
 1980              	.L88:
 1981              		.loc 1 1631 5 discriminator 2
 1982 0042 FB68     		ldr	r3, [r7, #12]
 1983 0044 0122     		movs	r2, #1
 1984 0046 83F84020 		strb	r2, [r3, #64]
1632:./Drivers/STM32H7xx_HAL_Driver/Src/stm32h7xx_hal_i2c.c **** 
1633:./Drivers/STM32H7xx_HAL_Driver/Src/stm32h7xx_hal_i2c.c ****     hi2c->State       = HAL_I2C_STATE_BUSY_RX;
 1985              		.loc 1 1633 23 is_stmt 1 discriminator 2
 1986 004a FB68     		ldr	r3, [r7, #12]
 1987 004c 2222     		movs	r2, #34
 1988 004e 83F84120 		strb	r2, [r3, #65]
1634:./Drivers/STM32H7xx_HAL_Driver/Src/stm32h7xx_hal_i2c.c ****     hi2c->Mode        = HAL_I2C_MODE_MASTER;
 1989              		.loc 1 1634 23 discriminator 2
 1990 0052 FB68     		ldr	r3, [r7, #12]
 1991 0054 1022     		movs	r2, #16
 1992 0056 83F84220 		strb	r2, [r3, #66]
1635:./Drivers/STM32H7xx_HAL_Driver/Src/stm32h7xx_hal_i2c.c ****     hi2c->ErrorCode   = HAL_I2C_ERROR_NONE;
 1993              		.loc 1 1635 23 discriminator 2
 1994 005a FB68     		ldr	r3, [r7, #12]
 1995 005c 0022     		movs	r2, #0
 1996 005e 5A64     		str	r2, [r3, #68]
1636:./Drivers/STM32H7xx_HAL_Driver/Src/stm32h7xx_hal_i2c.c **** 
1637:./Drivers/STM32H7xx_HAL_Driver/Src/stm32h7xx_hal_i2c.c ****     /* Prepare transfer parameters */
1638:./Drivers/STM32H7xx_HAL_Driver/Src/stm32h7xx_hal_i2c.c ****     hi2c->pBuffPtr    = pData;
 1997              		.loc 1 1638 23 discriminator 2
 1998 0060 FB68     		ldr	r3, [r7, #12]
 1999 0062 7A68     		ldr	r2, [r7, #4]
 2000 0064 5A62     		str	r2, [r3, #36]
1639:./Drivers/STM32H7xx_HAL_Driver/Src/stm32h7xx_hal_i2c.c ****     hi2c->XferCount   = Size;
 2001              		.loc 1 1639 23 discriminator 2
 2002 0066 FB68     		ldr	r3, [r7, #12]
 2003 0068 3A89     		ldrh	r2, [r7, #8]	@ movhi
 2004 006a 5A85     		strh	r2, [r3, #42]	@ movhi
1640:./Drivers/STM32H7xx_HAL_Driver/Src/stm32h7xx_hal_i2c.c ****     hi2c->XferOptions = I2C_NO_OPTION_FRAME;
 2005              		.loc 1 1640 23 discriminator 2
 2006 006c FB68     		ldr	r3, [r7, #12]
 2007 006e 194A     		ldr	r2, .L91
 2008 0070 DA62     		str	r2, [r3, #44]
1641:./Drivers/STM32H7xx_HAL_Driver/Src/stm32h7xx_hal_i2c.c ****     hi2c->XferISR     = I2C_Master_ISR_IT;
 2009              		.loc 1 1641 23 discriminator 2
 2010 0072 FB68     		ldr	r3, [r7, #12]
 2011 0074 184A     		ldr	r2, .L91+4
 2012 0076 5A63     		str	r2, [r3, #52]
1642:./Drivers/STM32H7xx_HAL_Driver/Src/stm32h7xx_hal_i2c.c **** 
1643:./Drivers/STM32H7xx_HAL_Driver/Src/stm32h7xx_hal_i2c.c ****     if (hi2c->XferCount > MAX_NBYTE_SIZE)
 2013              		.loc 1 1643 13 discriminator 2
 2014 0078 FB68     		ldr	r3, [r7, #12]
 2015 007a 5B8D     		ldrh	r3, [r3, #42]	@ movhi
 2016 007c 9BB2     		uxth	r3, r3
ARM GAS  /tmp/ccHvg3ba.s 			page 65


 2017              		.loc 1 1643 8 discriminator 2
 2018 007e FF2B     		cmp	r3, #255
 2019 0080 06D9     		bls	.L89
1644:./Drivers/STM32H7xx_HAL_Driver/Src/stm32h7xx_hal_i2c.c ****     {
1645:./Drivers/STM32H7xx_HAL_Driver/Src/stm32h7xx_hal_i2c.c ****       hi2c->XferSize = MAX_NBYTE_SIZE;
 2020              		.loc 1 1645 22
 2021 0082 FB68     		ldr	r3, [r7, #12]
 2022 0084 FF22     		movs	r2, #255
 2023 0086 1A85     		strh	r2, [r3, #40]	@ movhi
1646:./Drivers/STM32H7xx_HAL_Driver/Src/stm32h7xx_hal_i2c.c ****       xfermode = I2C_RELOAD_MODE;
 2024              		.loc 1 1646 16
 2025 0088 4FF08073 		mov	r3, #16777216
 2026 008c 7B61     		str	r3, [r7, #20]
 2027 008e 07E0     		b	.L90
 2028              	.L89:
1647:./Drivers/STM32H7xx_HAL_Driver/Src/stm32h7xx_hal_i2c.c ****     }
