ARM GAS  /tmp/cctM9lCy.s 			page 1


   1              		.cpu cortex-m7
   2              		.eabi_attribute 28, 1
   3              		.eabi_attribute 20, 1
   4              		.eabi_attribute 21, 1
   5              		.eabi_attribute 23, 3
   6              		.eabi_attribute 24, 1
   7              		.eabi_attribute 25, 1
   8              		.eabi_attribute 26, 1
   9              		.eabi_attribute 30, 6
  10              		.eabi_attribute 34, 1
  11              		.eabi_attribute 18, 4
  12              		.file	"stm32h7xx_hal_rcc_ex.c"
  13              		.text
  14              	.Ltext0:
  15              		.cfi_sections	.debug_frame
  16              		.section	.text.HAL_RCCEx_PeriphCLKConfig,"ax",%progbits
  17              		.align	1
  18              		.global	HAL_RCCEx_PeriphCLKConfig
  19              		.arch armv7e-m
  20              		.syntax unified
  21              		.thumb
  22              		.thumb_func
  23              		.fpu fpv5-d16
  25              	HAL_RCCEx_PeriphCLKConfig:
  26              	.LFB134:
  27              		.file 1 "./Drivers/STM32H7xx_HAL_Driver/Src/stm32h7xx_hal_rcc_ex.c"
   1:./Drivers/STM32H7xx_HAL_Driver/Src/stm32h7xx_hal_rcc_ex.c **** /**
   2:./Drivers/STM32H7xx_HAL_Driver/Src/stm32h7xx_hal_rcc_ex.c ****   ******************************************************************************
   3:./Drivers/STM32H7xx_HAL_Driver/Src/stm32h7xx_hal_rcc_ex.c ****   * @file    stm32h7xx_hal_rcc_ex.c
   4:./Drivers/STM32H7xx_HAL_Driver/Src/stm32h7xx_hal_rcc_ex.c ****   * @author  MCD Application Team
   5:./Drivers/STM32H7xx_HAL_Driver/Src/stm32h7xx_hal_rcc_ex.c ****   * @brief   Extended RCC HAL module driver.
   6:./Drivers/STM32H7xx_HAL_Driver/Src/stm32h7xx_hal_rcc_ex.c ****   *          This file provides firmware functions to manage the following
   7:./Drivers/STM32H7xx_HAL_Driver/Src/stm32h7xx_hal_rcc_ex.c ****   *          functionalities RCC extension peripheral:
   8:./Drivers/STM32H7xx_HAL_Driver/Src/stm32h7xx_hal_rcc_ex.c ****   *           + Extended Peripheral Control functions
   9:./Drivers/STM32H7xx_HAL_Driver/Src/stm32h7xx_hal_rcc_ex.c ****   *
  10:./Drivers/STM32H7xx_HAL_Driver/Src/stm32h7xx_hal_rcc_ex.c ****   ******************************************************************************
  11:./Drivers/STM32H7xx_HAL_Driver/Src/stm32h7xx_hal_rcc_ex.c ****   * @attention
  12:./Drivers/STM32H7xx_HAL_Driver/Src/stm32h7xx_hal_rcc_ex.c ****   *
  13:./Drivers/STM32H7xx_HAL_Driver/Src/stm32h7xx_hal_rcc_ex.c ****   * <h2><center>&copy; COPYRIGHT(c) 2017 STMicroelectronics.
  14:./Drivers/STM32H7xx_HAL_Driver/Src/stm32h7xx_hal_rcc_ex.c ****   * All rights reserved.</center></h2>
  15:./Drivers/STM32H7xx_HAL_Driver/Src/stm32h7xx_hal_rcc_ex.c ****   *
  16:./Drivers/STM32H7xx_HAL_Driver/Src/stm32h7xx_hal_rcc_ex.c ****   * This software component is licensed by ST under BSD 3-Clause license,
  17:./Drivers/STM32H7xx_HAL_Driver/Src/stm32h7xx_hal_rcc_ex.c ****   * the "License"; You may not use this file except in compliance with the
  18:./Drivers/STM32H7xx_HAL_Driver/Src/stm32h7xx_hal_rcc_ex.c ****   * License. You may obtain a copy of the License at:
  19:./Drivers/STM32H7xx_HAL_Driver/Src/stm32h7xx_hal_rcc_ex.c ****   *                        opensource.org/licenses/BSD-3-Clause
  20:./Drivers/STM32H7xx_HAL_Driver/Src/stm32h7xx_hal_rcc_ex.c ****   *
  21:./Drivers/STM32H7xx_HAL_Driver/Src/stm32h7xx_hal_rcc_ex.c ****   ******************************************************************************
  22:./Drivers/STM32H7xx_HAL_Driver/Src/stm32h7xx_hal_rcc_ex.c ****   */
  23:./Drivers/STM32H7xx_HAL_Driver/Src/stm32h7xx_hal_rcc_ex.c **** 
  24:./Drivers/STM32H7xx_HAL_Driver/Src/stm32h7xx_hal_rcc_ex.c **** /* Includes ------------------------------------------------------------------*/
  25:./Drivers/STM32H7xx_HAL_Driver/Src/stm32h7xx_hal_rcc_ex.c **** #include "stm32h7xx_hal.h"
  26:./Drivers/STM32H7xx_HAL_Driver/Src/stm32h7xx_hal_rcc_ex.c **** 
  27:./Drivers/STM32H7xx_HAL_Driver/Src/stm32h7xx_hal_rcc_ex.c **** /** @addtogroup STM32H7xx_HAL_Driver
  28:./Drivers/STM32H7xx_HAL_Driver/Src/stm32h7xx_hal_rcc_ex.c ****   * @{
  29:./Drivers/STM32H7xx_HAL_Driver/Src/stm32h7xx_hal_rcc_ex.c ****   */
  30:./Drivers/STM32H7xx_HAL_Driver/Src/stm32h7xx_hal_rcc_ex.c **** 
  31:./Drivers/STM32H7xx_HAL_Driver/Src/stm32h7xx_hal_rcc_ex.c **** /** @defgroup RCCEx  RCCEx
ARM GAS  /tmp/cctM9lCy.s 			page 2


  32:./Drivers/STM32H7xx_HAL_Driver/Src/stm32h7xx_hal_rcc_ex.c ****   * @brief RCC HAL module driver
  33:./Drivers/STM32H7xx_HAL_Driver/Src/stm32h7xx_hal_rcc_ex.c ****   * @{
  34:./Drivers/STM32H7xx_HAL_Driver/Src/stm32h7xx_hal_rcc_ex.c ****   */
  35:./Drivers/STM32H7xx_HAL_Driver/Src/stm32h7xx_hal_rcc_ex.c **** 
  36:./Drivers/STM32H7xx_HAL_Driver/Src/stm32h7xx_hal_rcc_ex.c **** #ifdef HAL_RCC_MODULE_ENABLED
  37:./Drivers/STM32H7xx_HAL_Driver/Src/stm32h7xx_hal_rcc_ex.c **** 
  38:./Drivers/STM32H7xx_HAL_Driver/Src/stm32h7xx_hal_rcc_ex.c **** /* Private typedef -----------------------------------------------------------*/
  39:./Drivers/STM32H7xx_HAL_Driver/Src/stm32h7xx_hal_rcc_ex.c **** /* Private defines -----------------------------------------------------------*/
  40:./Drivers/STM32H7xx_HAL_Driver/Src/stm32h7xx_hal_rcc_ex.c **** /** @defgroup RCCEx_Private_defines Private Defines
  41:./Drivers/STM32H7xx_HAL_Driver/Src/stm32h7xx_hal_rcc_ex.c ****  * @{
  42:./Drivers/STM32H7xx_HAL_Driver/Src/stm32h7xx_hal_rcc_ex.c ****  */
  43:./Drivers/STM32H7xx_HAL_Driver/Src/stm32h7xx_hal_rcc_ex.c **** #define PLL2_TIMEOUT_VALUE         PLL_TIMEOUT_VALUE    /* 2 ms */
  44:./Drivers/STM32H7xx_HAL_Driver/Src/stm32h7xx_hal_rcc_ex.c **** #define PLL3_TIMEOUT_VALUE         PLL_TIMEOUT_VALUE    /* 2 ms */
  45:./Drivers/STM32H7xx_HAL_Driver/Src/stm32h7xx_hal_rcc_ex.c **** 
  46:./Drivers/STM32H7xx_HAL_Driver/Src/stm32h7xx_hal_rcc_ex.c **** #define DIVIDER_P_UPDATE          0U
  47:./Drivers/STM32H7xx_HAL_Driver/Src/stm32h7xx_hal_rcc_ex.c **** #define DIVIDER_Q_UPDATE          1U
  48:./Drivers/STM32H7xx_HAL_Driver/Src/stm32h7xx_hal_rcc_ex.c **** #define DIVIDER_R_UPDATE          2U
  49:./Drivers/STM32H7xx_HAL_Driver/Src/stm32h7xx_hal_rcc_ex.c **** /**
  50:./Drivers/STM32H7xx_HAL_Driver/Src/stm32h7xx_hal_rcc_ex.c ****   * @}
  51:./Drivers/STM32H7xx_HAL_Driver/Src/stm32h7xx_hal_rcc_ex.c ****   */
  52:./Drivers/STM32H7xx_HAL_Driver/Src/stm32h7xx_hal_rcc_ex.c **** 
  53:./Drivers/STM32H7xx_HAL_Driver/Src/stm32h7xx_hal_rcc_ex.c **** /* Private macros ------------------------------------------------------------*/
  54:./Drivers/STM32H7xx_HAL_Driver/Src/stm32h7xx_hal_rcc_ex.c **** /** @defgroup RCCEx_Private_Macros RCCEx Private Macros
  55:./Drivers/STM32H7xx_HAL_Driver/Src/stm32h7xx_hal_rcc_ex.c ****  * @{
  56:./Drivers/STM32H7xx_HAL_Driver/Src/stm32h7xx_hal_rcc_ex.c ****  */
  57:./Drivers/STM32H7xx_HAL_Driver/Src/stm32h7xx_hal_rcc_ex.c **** /**
  58:./Drivers/STM32H7xx_HAL_Driver/Src/stm32h7xx_hal_rcc_ex.c ****   * @}
  59:./Drivers/STM32H7xx_HAL_Driver/Src/stm32h7xx_hal_rcc_ex.c ****   */
  60:./Drivers/STM32H7xx_HAL_Driver/Src/stm32h7xx_hal_rcc_ex.c **** 
  61:./Drivers/STM32H7xx_HAL_Driver/Src/stm32h7xx_hal_rcc_ex.c **** /* Private variables ---------------------------------------------------------*/
  62:./Drivers/STM32H7xx_HAL_Driver/Src/stm32h7xx_hal_rcc_ex.c **** /* Private function prototypes -----------------------------------------------*/
  63:./Drivers/STM32H7xx_HAL_Driver/Src/stm32h7xx_hal_rcc_ex.c **** static HAL_StatusTypeDef RCCEx_PLL2_Config(RCC_PLL2InitTypeDef *pll2, uint32_t Divider);
  64:./Drivers/STM32H7xx_HAL_Driver/Src/stm32h7xx_hal_rcc_ex.c **** static HAL_StatusTypeDef RCCEx_PLL3_Config(RCC_PLL3InitTypeDef *pll3, uint32_t Divider);
  65:./Drivers/STM32H7xx_HAL_Driver/Src/stm32h7xx_hal_rcc_ex.c **** 
  66:./Drivers/STM32H7xx_HAL_Driver/Src/stm32h7xx_hal_rcc_ex.c **** 
  67:./Drivers/STM32H7xx_HAL_Driver/Src/stm32h7xx_hal_rcc_ex.c **** /* Exported functions --------------------------------------------------------*/
  68:./Drivers/STM32H7xx_HAL_Driver/Src/stm32h7xx_hal_rcc_ex.c **** 
  69:./Drivers/STM32H7xx_HAL_Driver/Src/stm32h7xx_hal_rcc_ex.c **** /** @defgroup RCCEx_Exported_Functions Exported Functions
  70:./Drivers/STM32H7xx_HAL_Driver/Src/stm32h7xx_hal_rcc_ex.c ****   * @{
  71:./Drivers/STM32H7xx_HAL_Driver/Src/stm32h7xx_hal_rcc_ex.c ****   */
  72:./Drivers/STM32H7xx_HAL_Driver/Src/stm32h7xx_hal_rcc_ex.c **** 
  73:./Drivers/STM32H7xx_HAL_Driver/Src/stm32h7xx_hal_rcc_ex.c **** /** @defgroup RCCEx_Exported_Functions_Group1 Extended Peripheral Control functions
  74:./Drivers/STM32H7xx_HAL_Driver/Src/stm32h7xx_hal_rcc_ex.c ****  *  @brief  Extended Peripheral Control functions
  75:./Drivers/STM32H7xx_HAL_Driver/Src/stm32h7xx_hal_rcc_ex.c ****  *
  76:./Drivers/STM32H7xx_HAL_Driver/Src/stm32h7xx_hal_rcc_ex.c **** @verbatim
  77:./Drivers/STM32H7xx_HAL_Driver/Src/stm32h7xx_hal_rcc_ex.c ****  ===============================================================================
  78:./Drivers/STM32H7xx_HAL_Driver/Src/stm32h7xx_hal_rcc_ex.c ****                 ##### Extended Peripheral Control functions  #####
  79:./Drivers/STM32H7xx_HAL_Driver/Src/stm32h7xx_hal_rcc_ex.c ****  ===============================================================================
  80:./Drivers/STM32H7xx_HAL_Driver/Src/stm32h7xx_hal_rcc_ex.c ****     [..]
  81:./Drivers/STM32H7xx_HAL_Driver/Src/stm32h7xx_hal_rcc_ex.c ****     This subsection provides a set of functions allowing to control the RCC Clocks
  82:./Drivers/STM32H7xx_HAL_Driver/Src/stm32h7xx_hal_rcc_ex.c ****     frequencies.
  83:./Drivers/STM32H7xx_HAL_Driver/Src/stm32h7xx_hal_rcc_ex.c ****     [..]
  84:./Drivers/STM32H7xx_HAL_Driver/Src/stm32h7xx_hal_rcc_ex.c ****     (@) Important note: Care must be taken when HAL_RCCEx_PeriphCLKConfig() is used to
  85:./Drivers/STM32H7xx_HAL_Driver/Src/stm32h7xx_hal_rcc_ex.c ****         select the RTC clock source; in this case the Backup domain will be reset in
  86:./Drivers/STM32H7xx_HAL_Driver/Src/stm32h7xx_hal_rcc_ex.c ****         order to modify the RTC Clock source, as consequence RTC registers (including
  87:./Drivers/STM32H7xx_HAL_Driver/Src/stm32h7xx_hal_rcc_ex.c ****         the backup registers) and RCC_BDCR register are set to their reset values.
  88:./Drivers/STM32H7xx_HAL_Driver/Src/stm32h7xx_hal_rcc_ex.c **** 
ARM GAS  /tmp/cctM9lCy.s 			page 3


  89:./Drivers/STM32H7xx_HAL_Driver/Src/stm32h7xx_hal_rcc_ex.c **** @endverbatim
  90:./Drivers/STM32H7xx_HAL_Driver/Src/stm32h7xx_hal_rcc_ex.c ****   * @{
  91:./Drivers/STM32H7xx_HAL_Driver/Src/stm32h7xx_hal_rcc_ex.c ****   */
  92:./Drivers/STM32H7xx_HAL_Driver/Src/stm32h7xx_hal_rcc_ex.c **** /**
  93:./Drivers/STM32H7xx_HAL_Driver/Src/stm32h7xx_hal_rcc_ex.c ****   * @brief  Initializes the RCC extended peripherals clocks according to the specified
  94:./Drivers/STM32H7xx_HAL_Driver/Src/stm32h7xx_hal_rcc_ex.c ****   *         parameters in the RCC_PeriphCLKInitTypeDef.
  95:./Drivers/STM32H7xx_HAL_Driver/Src/stm32h7xx_hal_rcc_ex.c ****   * @param  PeriphClkInit: pointer to an RCC_PeriphCLKInitTypeDef structure that
  96:./Drivers/STM32H7xx_HAL_Driver/Src/stm32h7xx_hal_rcc_ex.c ****   *         contains the configuration information for the Extended Peripherals
  97:./Drivers/STM32H7xx_HAL_Driver/Src/stm32h7xx_hal_rcc_ex.c ****   *         clocks(SDMMC, CKPER, FMC, QSPI, DSI, SPI45, SPDIF, DFSDM1, FDCAN, SWPMI,SAI23, SAI1, SP
  98:./Drivers/STM32H7xx_HAL_Driver/Src/stm32h7xx_hal_rcc_ex.c ****   *         USART234578, USART16, RNG, HRTIM1, I2C123, USB,CEC, LPTIM1, LPUART1, I2C4, LPTIM2, LPTI
  99:./Drivers/STM32H7xx_HAL_Driver/Src/stm32h7xx_hal_rcc_ex.c ****   *         SAI4A,SAI4B,SPI6,RTC).
 100:./Drivers/STM32H7xx_HAL_Driver/Src/stm32h7xx_hal_rcc_ex.c ****   * @note   Care must be taken when HAL_RCCEx_PeriphCLKConfig() is used to select
 101:./Drivers/STM32H7xx_HAL_Driver/Src/stm32h7xx_hal_rcc_ex.c ****   *         the RTC clock source; in this case the Backup domain will be reset in
 102:./Drivers/STM32H7xx_HAL_Driver/Src/stm32h7xx_hal_rcc_ex.c ****   *         order to modify the RTC Clock source, as consequence RTC registers (including
 103:./Drivers/STM32H7xx_HAL_Driver/Src/stm32h7xx_hal_rcc_ex.c ****   *         the backup registers) are set to their reset values.
 104:./Drivers/STM32H7xx_HAL_Driver/Src/stm32h7xx_hal_rcc_ex.c ****   *
 105:./Drivers/STM32H7xx_HAL_Driver/Src/stm32h7xx_hal_rcc_ex.c ****   * @retval HAL status
 106:./Drivers/STM32H7xx_HAL_Driver/Src/stm32h7xx_hal_rcc_ex.c ****   */
 107:./Drivers/STM32H7xx_HAL_Driver/Src/stm32h7xx_hal_rcc_ex.c **** HAL_StatusTypeDef HAL_RCCEx_PeriphCLKConfig(RCC_PeriphCLKInitTypeDef  *PeriphClkInit)
 108:./Drivers/STM32H7xx_HAL_Driver/Src/stm32h7xx_hal_rcc_ex.c **** {
  28              		.loc 1 108 1
  29              		.cfi_startproc
  30              		@ args = 0, pretend = 0, frame = 24
  31              		@ frame_needed = 1, uses_anonymous_args = 0
  32 0000 80B5     		push	{r7, lr}
  33              		.cfi_def_cfa_offset 8
  34              		.cfi_offset 7, -8
  35              		.cfi_offset 14, -4
  36 0002 86B0     		sub	sp, sp, #24
  37              		.cfi_def_cfa_offset 32
  38 0004 00AF     		add	r7, sp, #0
  39              		.cfi_def_cfa_register 7
  40 0006 7860     		str	r0, [r7, #4]
 109:./Drivers/STM32H7xx_HAL_Driver/Src/stm32h7xx_hal_rcc_ex.c ****   uint32_t tmpreg;
 110:./Drivers/STM32H7xx_HAL_Driver/Src/stm32h7xx_hal_rcc_ex.c ****   uint32_t tickstart;
 111:./Drivers/STM32H7xx_HAL_Driver/Src/stm32h7xx_hal_rcc_ex.c ****   HAL_StatusTypeDef ret = HAL_OK;      /* Intermediate status */
  41              		.loc 1 111 21
  42 0008 0023     		movs	r3, #0
  43 000a FB75     		strb	r3, [r7, #23]
 112:./Drivers/STM32H7xx_HAL_Driver/Src/stm32h7xx_hal_rcc_ex.c ****   HAL_StatusTypeDef status = HAL_OK;   /* Final status */
  44              		.loc 1 112 21
  45 000c 0023     		movs	r3, #0
  46 000e BB75     		strb	r3, [r7, #22]
 113:./Drivers/STM32H7xx_HAL_Driver/Src/stm32h7xx_hal_rcc_ex.c **** 
 114:./Drivers/STM32H7xx_HAL_Driver/Src/stm32h7xx_hal_rcc_ex.c ****   /*---------------------------- SPDIFRX configuration -------------------------------*/
 115:./Drivers/STM32H7xx_HAL_Driver/Src/stm32h7xx_hal_rcc_ex.c **** 
 116:./Drivers/STM32H7xx_HAL_Driver/Src/stm32h7xx_hal_rcc_ex.c ****   if(((PeriphClkInit->PeriphClockSelection) & RCC_PERIPHCLK_SPDIFRX) == RCC_PERIPHCLK_SPDIFRX)
  47              		.loc 1 116 21
  48 0010 7B68     		ldr	r3, [r7, #4]
  49 0012 1B68     		ldr	r3, [r3]
  50              		.loc 1 116 45
  51 0014 03F00063 		and	r3, r3, #134217728
  52              		.loc 1 116 5
  53 0018 002B     		cmp	r3, #0
  54 001a 3DD0     		beq	.L2
 117:./Drivers/STM32H7xx_HAL_Driver/Src/stm32h7xx_hal_rcc_ex.c ****   {
 118:./Drivers/STM32H7xx_HAL_Driver/Src/stm32h7xx_hal_rcc_ex.c **** 
ARM GAS  /tmp/cctM9lCy.s 			page 4


 119:./Drivers/STM32H7xx_HAL_Driver/Src/stm32h7xx_hal_rcc_ex.c ****     switch(PeriphClkInit->SpdifrxClockSelection)
  55              		.loc 1 119 25
  56 001c 7B68     		ldr	r3, [r7, #4]
  57 001e 5B6E     		ldr	r3, [r3, #100]
  58              		.loc 1 119 5
  59 0020 B3F5801F 		cmp	r3, #1048576
  60 0024 13D0     		beq	.L3
  61 0026 B3F5801F 		cmp	r3, #1048576
  62 002a 02D8     		bhi	.L4
  63 002c 002B     		cmp	r3, #0
  64 002e 07D0     		beq	.L5
  65 0030 1FE0     		b	.L6
  66              	.L4:
  67 0032 B3F5001F 		cmp	r3, #2097152
  68 0036 13D0     		beq	.L7
  69 0038 B3F5401F 		cmp	r3, #3145728
  70 003c 1CD0     		beq	.L230
  71 003e 18E0     		b	.L6
  72              	.L5:
 120:./Drivers/STM32H7xx_HAL_Driver/Src/stm32h7xx_hal_rcc_ex.c ****     {
 121:./Drivers/STM32H7xx_HAL_Driver/Src/stm32h7xx_hal_rcc_ex.c ****     case RCC_SPDIFRXCLKSOURCE_PLL:      /* PLL is used as clock source for SPDIFRX*/
 122:./Drivers/STM32H7xx_HAL_Driver/Src/stm32h7xx_hal_rcc_ex.c ****       /* Enable SAI Clock output generated form System PLL . */
 123:./Drivers/STM32H7xx_HAL_Driver/Src/stm32h7xx_hal_rcc_ex.c ****       __HAL_RCC_PLLCLKOUT_ENABLE(RCC_PLL1_DIVQ);
  73              		.loc 1 123 7
  74 0040 AF4B     		ldr	r3, .L272
  75 0042 DB6A     		ldr	r3, [r3, #44]
  76 0044 AE4A     		ldr	r2, .L272
  77 0046 43F40033 		orr	r3, r3, #131072
  78 004a D362     		str	r3, [r2, #44]
 124:./Drivers/STM32H7xx_HAL_Driver/Src/stm32h7xx_hal_rcc_ex.c **** 
 125:./Drivers/STM32H7xx_HAL_Driver/Src/stm32h7xx_hal_rcc_ex.c ****       /* SAI1 clock source configuration done later after clock selection check */
 126:./Drivers/STM32H7xx_HAL_Driver/Src/stm32h7xx_hal_rcc_ex.c ****       break;
  79              		.loc 1 126 7
  80 004c 15E0     		b	.L9
  81              	.L3:
 127:./Drivers/STM32H7xx_HAL_Driver/Src/stm32h7xx_hal_rcc_ex.c **** 
 128:./Drivers/STM32H7xx_HAL_Driver/Src/stm32h7xx_hal_rcc_ex.c ****     case RCC_SPDIFRXCLKSOURCE_PLL2: /* PLL2 is used as clock source for SPDIFRX*/
 129:./Drivers/STM32H7xx_HAL_Driver/Src/stm32h7xx_hal_rcc_ex.c **** 
 130:./Drivers/STM32H7xx_HAL_Driver/Src/stm32h7xx_hal_rcc_ex.c ****       ret = RCCEx_PLL2_Config(&(PeriphClkInit->PLL2),DIVIDER_R_UPDATE);
  82              		.loc 1 130 13
  83 004e 7B68     		ldr	r3, [r7, #4]
  84 0050 0433     		adds	r3, r3, #4
  85 0052 0221     		movs	r1, #2
  86 0054 1846     		mov	r0, r3
  87 0056 FFF7FEFF 		bl	RCCEx_PLL2_Config
  88 005a 0346     		mov	r3, r0
  89 005c FB75     		strb	r3, [r7, #23]
 131:./Drivers/STM32H7xx_HAL_Driver/Src/stm32h7xx_hal_rcc_ex.c **** 
 132:./Drivers/STM32H7xx_HAL_Driver/Src/stm32h7xx_hal_rcc_ex.c ****       /* SAI1 clock source configuration done later after clock selection check */
 133:./Drivers/STM32H7xx_HAL_Driver/Src/stm32h7xx_hal_rcc_ex.c ****       break;
  90              		.loc 1 133 7
  91 005e 0CE0     		b	.L9
  92              	.L7:
 134:./Drivers/STM32H7xx_HAL_Driver/Src/stm32h7xx_hal_rcc_ex.c **** 
 135:./Drivers/STM32H7xx_HAL_Driver/Src/stm32h7xx_hal_rcc_ex.c ****     case RCC_SPDIFRXCLKSOURCE_PLL3:  /* PLL3 is used as clock source for SPDIFRX*/
 136:./Drivers/STM32H7xx_HAL_Driver/Src/stm32h7xx_hal_rcc_ex.c ****       ret = RCCEx_PLL3_Config(&(PeriphClkInit->PLL3),DIVIDER_R_UPDATE);
  93              		.loc 1 136 13
ARM GAS  /tmp/cctM9lCy.s 			page 5


  94 0060 7B68     		ldr	r3, [r7, #4]
  95 0062 2433     		adds	r3, r3, #36
  96 0064 0221     		movs	r1, #2
  97 0066 1846     		mov	r0, r3
  98 0068 FFF7FEFF 		bl	RCCEx_PLL3_Config
  99 006c 0346     		mov	r3, r0
 100 006e FB75     		strb	r3, [r7, #23]
 137:./Drivers/STM32H7xx_HAL_Driver/Src/stm32h7xx_hal_rcc_ex.c **** 
 138:./Drivers/STM32H7xx_HAL_Driver/Src/stm32h7xx_hal_rcc_ex.c ****       /* SAI1 clock source configuration done later after clock selection check */
 139:./Drivers/STM32H7xx_HAL_Driver/Src/stm32h7xx_hal_rcc_ex.c ****       break;
 101              		.loc 1 139 7
 102 0070 03E0     		b	.L9
 103              	.L6:
 140:./Drivers/STM32H7xx_HAL_Driver/Src/stm32h7xx_hal_rcc_ex.c **** 
 141:./Drivers/STM32H7xx_HAL_Driver/Src/stm32h7xx_hal_rcc_ex.c ****     case RCC_SPDIFRXCLKSOURCE_HSI:
 142:./Drivers/STM32H7xx_HAL_Driver/Src/stm32h7xx_hal_rcc_ex.c ****       /* Internal OSC clock is used as source of SPDIFRX clock*/
 143:./Drivers/STM32H7xx_HAL_Driver/Src/stm32h7xx_hal_rcc_ex.c ****       /* SPDIFRX clock source configuration done later after clock selection check */
 144:./Drivers/STM32H7xx_HAL_Driver/Src/stm32h7xx_hal_rcc_ex.c ****       break;
 145:./Drivers/STM32H7xx_HAL_Driver/Src/stm32h7xx_hal_rcc_ex.c **** 
 146:./Drivers/STM32H7xx_HAL_Driver/Src/stm32h7xx_hal_rcc_ex.c ****     default:
 147:./Drivers/STM32H7xx_HAL_Driver/Src/stm32h7xx_hal_rcc_ex.c ****       ret = HAL_ERROR;
 104              		.loc 1 147 11
 105 0072 0123     		movs	r3, #1
 106 0074 FB75     		strb	r3, [r7, #23]
 148:./Drivers/STM32H7xx_HAL_Driver/Src/stm32h7xx_hal_rcc_ex.c ****       break;
 107              		.loc 1 148 7
 108 0076 00E0     		b	.L9
 109              	.L230:
 144:./Drivers/STM32H7xx_HAL_Driver/Src/stm32h7xx_hal_rcc_ex.c **** 
 110              		.loc 1 144 7
 111 0078 00BF     		nop
 112              	.L9:
 149:./Drivers/STM32H7xx_HAL_Driver/Src/stm32h7xx_hal_rcc_ex.c ****     }
 150:./Drivers/STM32H7xx_HAL_Driver/Src/stm32h7xx_hal_rcc_ex.c **** 
 151:./Drivers/STM32H7xx_HAL_Driver/Src/stm32h7xx_hal_rcc_ex.c ****     if(ret == HAL_OK)
 113              		.loc 1 151 7
 114 007a FB7D     		ldrb	r3, [r7, #23]	@ zero_extendqisi2
 115 007c 002B     		cmp	r3, #0
 116 007e 09D1     		bne	.L10
 152:./Drivers/STM32H7xx_HAL_Driver/Src/stm32h7xx_hal_rcc_ex.c ****     {
 153:./Drivers/STM32H7xx_HAL_Driver/Src/stm32h7xx_hal_rcc_ex.c ****       /* Set the source of SPDIFRX clock*/
 154:./Drivers/STM32H7xx_HAL_Driver/Src/stm32h7xx_hal_rcc_ex.c ****       __HAL_RCC_SPDIFRX_CONFIG(PeriphClkInit->SpdifrxClockSelection);
 117              		.loc 1 154 7
 118 0080 9F4B     		ldr	r3, .L272
 119 0082 1B6D     		ldr	r3, [r3, #80]
 120 0084 23F44012 		bic	r2, r3, #3145728
 121 0088 7B68     		ldr	r3, [r7, #4]
 122 008a 5B6E     		ldr	r3, [r3, #100]
 123 008c 9C49     		ldr	r1, .L272
 124 008e 1343     		orrs	r3, r3, r2
 125 0090 0B65     		str	r3, [r1, #80]
 126 0092 01E0     		b	.L2
 127              	.L10:
 155:./Drivers/STM32H7xx_HAL_Driver/Src/stm32h7xx_hal_rcc_ex.c ****     }
 156:./Drivers/STM32H7xx_HAL_Driver/Src/stm32h7xx_hal_rcc_ex.c ****     else
 157:./Drivers/STM32H7xx_HAL_Driver/Src/stm32h7xx_hal_rcc_ex.c ****     {
 158:./Drivers/STM32H7xx_HAL_Driver/Src/stm32h7xx_hal_rcc_ex.c ****       /* set overall return value */
ARM GAS  /tmp/cctM9lCy.s 			page 6


 159:./Drivers/STM32H7xx_HAL_Driver/Src/stm32h7xx_hal_rcc_ex.c ****       status = ret;
 128              		.loc 1 159 14
 129 0094 FB7D     		ldrb	r3, [r7, #23]
 130 0096 BB75     		strb	r3, [r7, #22]
 131              	.L2:
 160:./Drivers/STM32H7xx_HAL_Driver/Src/stm32h7xx_hal_rcc_ex.c ****     }
 161:./Drivers/STM32H7xx_HAL_Driver/Src/stm32h7xx_hal_rcc_ex.c ****   }
 162:./Drivers/STM32H7xx_HAL_Driver/Src/stm32h7xx_hal_rcc_ex.c **** 
 163:./Drivers/STM32H7xx_HAL_Driver/Src/stm32h7xx_hal_rcc_ex.c ****   /*---------------------------- SAI1 configuration -------------------------------*/
 164:./Drivers/STM32H7xx_HAL_Driver/Src/stm32h7xx_hal_rcc_ex.c ****   if(((PeriphClkInit->PeriphClockSelection) & RCC_PERIPHCLK_SAI1) == RCC_PERIPHCLK_SAI1)
 132              		.loc 1 164 21
 133 0098 7B68     		ldr	r3, [r7, #4]
 134 009a 1B68     		ldr	r3, [r3]
 135              		.loc 1 164 45
 136 009c 03F48073 		and	r3, r3, #256
 137              		.loc 1 164 5
 138 00a0 002B     		cmp	r3, #0
 139 00a2 3DD0     		beq	.L11
 165:./Drivers/STM32H7xx_HAL_Driver/Src/stm32h7xx_hal_rcc_ex.c ****   {
 166:./Drivers/STM32H7xx_HAL_Driver/Src/stm32h7xx_hal_rcc_ex.c ****     switch(PeriphClkInit->Sai1ClockSelection)
 140              		.loc 1 166 25
 141 00a4 7B68     		ldr	r3, [r7, #4]
 142 00a6 5B6D     		ldr	r3, [r3, #84]
 143              		.loc 1 166 5
 144 00a8 042B     		cmp	r3, #4
 145 00aa 26D8     		bhi	.L12
 146 00ac 01A2     		adr	r2, .L14
 147 00ae 52F823F0 		ldr	pc, [r2, r3, lsl #2]
 148 00b2 00BF     		.p2align 2
 149              	.L14:
 150 00b4 C9000000 		.word	.L18+1
 151 00b8 D7000000 		.word	.L17+1
 152 00bc E9000000 		.word	.L16+1
 153 00c0 01010000 		.word	.L231+1
 154 00c4 01010000 		.word	.L231+1
 155              		.p2align 1
 156              	.L18:
 167:./Drivers/STM32H7xx_HAL_Driver/Src/stm32h7xx_hal_rcc_ex.c ****     {
 168:./Drivers/STM32H7xx_HAL_Driver/Src/stm32h7xx_hal_rcc_ex.c ****     case RCC_SAI1CLKSOURCE_PLL:      /* PLL is used as clock source for SAI1*/
 169:./Drivers/STM32H7xx_HAL_Driver/Src/stm32h7xx_hal_rcc_ex.c ****       /* Enable SAI Clock output generated form System PLL . */
 170:./Drivers/STM32H7xx_HAL_Driver/Src/stm32h7xx_hal_rcc_ex.c ****       __HAL_RCC_PLLCLKOUT_ENABLE(RCC_PLL1_DIVQ);
 157              		.loc 1 170 7
 158 00c8 8D4B     		ldr	r3, .L272
 159 00ca DB6A     		ldr	r3, [r3, #44]
 160 00cc 8C4A     		ldr	r2, .L272
 161 00ce 43F40033 		orr	r3, r3, #131072
 162 00d2 D362     		str	r3, [r2, #44]
 171:./Drivers/STM32H7xx_HAL_Driver/Src/stm32h7xx_hal_rcc_ex.c **** 
 172:./Drivers/STM32H7xx_HAL_Driver/Src/stm32h7xx_hal_rcc_ex.c ****       /* SAI1 clock source configuration done later after clock selection check */
 173:./Drivers/STM32H7xx_HAL_Driver/Src/stm32h7xx_hal_rcc_ex.c ****       break;
 163              		.loc 1 173 7
 164 00d4 15E0     		b	.L19
 165              	.L17:
 174:./Drivers/STM32H7xx_HAL_Driver/Src/stm32h7xx_hal_rcc_ex.c **** 
 175:./Drivers/STM32H7xx_HAL_Driver/Src/stm32h7xx_hal_rcc_ex.c ****     case RCC_SAI1CLKSOURCE_PLL2: /* PLL2 is used as clock source for SAI1*/
 176:./Drivers/STM32H7xx_HAL_Driver/Src/stm32h7xx_hal_rcc_ex.c **** 
 177:./Drivers/STM32H7xx_HAL_Driver/Src/stm32h7xx_hal_rcc_ex.c ****       ret = RCCEx_PLL2_Config(&(PeriphClkInit->PLL2),DIVIDER_P_UPDATE);
ARM GAS  /tmp/cctM9lCy.s 			page 7


 166              		.loc 1 177 13
 167 00d6 7B68     		ldr	r3, [r7, #4]
 168 00d8 0433     		adds	r3, r3, #4
 169 00da 0021     		movs	r1, #0
 170 00dc 1846     		mov	r0, r3
 171 00de FFF7FEFF 		bl	RCCEx_PLL2_Config
 172 00e2 0346     		mov	r3, r0
 173 00e4 FB75     		strb	r3, [r7, #23]
 178:./Drivers/STM32H7xx_HAL_Driver/Src/stm32h7xx_hal_rcc_ex.c **** 
 179:./Drivers/STM32H7xx_HAL_Driver/Src/stm32h7xx_hal_rcc_ex.c ****       /* SAI1 clock source configuration done later after clock selection check */
 180:./Drivers/STM32H7xx_HAL_Driver/Src/stm32h7xx_hal_rcc_ex.c ****       break;
 174              		.loc 1 180 7
 175 00e6 0CE0     		b	.L19
 176              	.L16:
 181:./Drivers/STM32H7xx_HAL_Driver/Src/stm32h7xx_hal_rcc_ex.c **** 
 182:./Drivers/STM32H7xx_HAL_Driver/Src/stm32h7xx_hal_rcc_ex.c ****     case RCC_SAI1CLKSOURCE_PLL3:  /* PLL3 is used as clock source for SAI1*/
 183:./Drivers/STM32H7xx_HAL_Driver/Src/stm32h7xx_hal_rcc_ex.c ****       ret = RCCEx_PLL3_Config(&(PeriphClkInit->PLL3),DIVIDER_P_UPDATE);
 177              		.loc 1 183 13
 178 00e8 7B68     		ldr	r3, [r7, #4]
 179 00ea 2433     		adds	r3, r3, #36
 180 00ec 0021     		movs	r1, #0
 181 00ee 1846     		mov	r0, r3
 182 00f0 FFF7FEFF 		bl	RCCEx_PLL3_Config
 183 00f4 0346     		mov	r3, r0
 184 00f6 FB75     		strb	r3, [r7, #23]
 184:./Drivers/STM32H7xx_HAL_Driver/Src/stm32h7xx_hal_rcc_ex.c **** 
 185:./Drivers/STM32H7xx_HAL_Driver/Src/stm32h7xx_hal_rcc_ex.c ****       /* SAI1 clock source configuration done later after clock selection check */
 186:./Drivers/STM32H7xx_HAL_Driver/Src/stm32h7xx_hal_rcc_ex.c ****       break;
 185              		.loc 1 186 7
 186 00f8 03E0     		b	.L19
 187              	.L12:
 187:./Drivers/STM32H7xx_HAL_Driver/Src/stm32h7xx_hal_rcc_ex.c **** 
 188:./Drivers/STM32H7xx_HAL_Driver/Src/stm32h7xx_hal_rcc_ex.c ****     case RCC_SAI1CLKSOURCE_PIN:
 189:./Drivers/STM32H7xx_HAL_Driver/Src/stm32h7xx_hal_rcc_ex.c ****       /* External clock is used as source of SAI1 clock*/
 190:./Drivers/STM32H7xx_HAL_Driver/Src/stm32h7xx_hal_rcc_ex.c ****       /* SAI1 clock source configuration done later after clock selection check */
 191:./Drivers/STM32H7xx_HAL_Driver/Src/stm32h7xx_hal_rcc_ex.c ****       break;
 192:./Drivers/STM32H7xx_HAL_Driver/Src/stm32h7xx_hal_rcc_ex.c **** 
 193:./Drivers/STM32H7xx_HAL_Driver/Src/stm32h7xx_hal_rcc_ex.c ****     case RCC_SAI1CLKSOURCE_CLKP:
 194:./Drivers/STM32H7xx_HAL_Driver/Src/stm32h7xx_hal_rcc_ex.c ****       /* HSI, HSE, or CSI oscillator is used as source of SAI1 clock */
 195:./Drivers/STM32H7xx_HAL_Driver/Src/stm32h7xx_hal_rcc_ex.c ****       /* SAI1 clock source configuration done later after clock selection check */
 196:./Drivers/STM32H7xx_HAL_Driver/Src/stm32h7xx_hal_rcc_ex.c ****       break;
 197:./Drivers/STM32H7xx_HAL_Driver/Src/stm32h7xx_hal_rcc_ex.c **** 
 198:./Drivers/STM32H7xx_HAL_Driver/Src/stm32h7xx_hal_rcc_ex.c ****     default:
 199:./Drivers/STM32H7xx_HAL_Driver/Src/stm32h7xx_hal_rcc_ex.c ****       ret = HAL_ERROR;
 188              		.loc 1 199 11
 189 00fa 0123     		movs	r3, #1
 190 00fc FB75     		strb	r3, [r7, #23]
 200:./Drivers/STM32H7xx_HAL_Driver/Src/stm32h7xx_hal_rcc_ex.c ****       break;
 191              		.loc 1 200 7
 192 00fe 00E0     		b	.L19
 193              	.L231:
 191:./Drivers/STM32H7xx_HAL_Driver/Src/stm32h7xx_hal_rcc_ex.c **** 
 194              		.loc 1 191 7
 195 0100 00BF     		nop
 196              	.L19:
 201:./Drivers/STM32H7xx_HAL_Driver/Src/stm32h7xx_hal_rcc_ex.c ****     }
 202:./Drivers/STM32H7xx_HAL_Driver/Src/stm32h7xx_hal_rcc_ex.c **** 
ARM GAS  /tmp/cctM9lCy.s 			page 8


 203:./Drivers/STM32H7xx_HAL_Driver/Src/stm32h7xx_hal_rcc_ex.c ****     if(ret == HAL_OK)
 197              		.loc 1 203 7
 198 0102 FB7D     		ldrb	r3, [r7, #23]	@ zero_extendqisi2
 199 0104 002B     		cmp	r3, #0
 200 0106 09D1     		bne	.L20
 204:./Drivers/STM32H7xx_HAL_Driver/Src/stm32h7xx_hal_rcc_ex.c ****     {
 205:./Drivers/STM32H7xx_HAL_Driver/Src/stm32h7xx_hal_rcc_ex.c ****       /* Set the source of SAI1 clock*/
 206:./Drivers/STM32H7xx_HAL_Driver/Src/stm32h7xx_hal_rcc_ex.c ****       __HAL_RCC_SAI1_CONFIG(PeriphClkInit->Sai1ClockSelection);
 201              		.loc 1 206 7
 202 0108 7D4B     		ldr	r3, .L272
 203 010a 1B6D     		ldr	r3, [r3, #80]
 204 010c 23F00702 		bic	r2, r3, #7
 205 0110 7B68     		ldr	r3, [r7, #4]
 206 0112 5B6D     		ldr	r3, [r3, #84]
 207 0114 7A49     		ldr	r1, .L272
 208 0116 1343     		orrs	r3, r3, r2
 209 0118 0B65     		str	r3, [r1, #80]
 210 011a 01E0     		b	.L11
 211              	.L20:
 207:./Drivers/STM32H7xx_HAL_Driver/Src/stm32h7xx_hal_rcc_ex.c ****     }
 208:./Drivers/STM32H7xx_HAL_Driver/Src/stm32h7xx_hal_rcc_ex.c ****     else
 209:./Drivers/STM32H7xx_HAL_Driver/Src/stm32h7xx_hal_rcc_ex.c ****     {
 210:./Drivers/STM32H7xx_HAL_Driver/Src/stm32h7xx_hal_rcc_ex.c ****       /* set overall return value */
 211:./Drivers/STM32H7xx_HAL_Driver/Src/stm32h7xx_hal_rcc_ex.c ****       status = ret;
 212              		.loc 1 211 14
 213 011c FB7D     		ldrb	r3, [r7, #23]
 214 011e BB75     		strb	r3, [r7, #22]
 215              	.L11:
 212:./Drivers/STM32H7xx_HAL_Driver/Src/stm32h7xx_hal_rcc_ex.c ****     }
 213:./Drivers/STM32H7xx_HAL_Driver/Src/stm32h7xx_hal_rcc_ex.c ****   }
 214:./Drivers/STM32H7xx_HAL_Driver/Src/stm32h7xx_hal_rcc_ex.c **** 
 215:./Drivers/STM32H7xx_HAL_Driver/Src/stm32h7xx_hal_rcc_ex.c ****   /*---------------------------- SAI2/3 configuration -------------------------------*/
 216:./Drivers/STM32H7xx_HAL_Driver/Src/stm32h7xx_hal_rcc_ex.c ****   if(((PeriphClkInit->PeriphClockSelection) & RCC_PERIPHCLK_SAI23) == RCC_PERIPHCLK_SAI23)
 216              		.loc 1 216 21
 217 0120 7B68     		ldr	r3, [r7, #4]
 218 0122 1B68     		ldr	r3, [r3]
 219              		.loc 1 216 45
 220 0124 03F40073 		and	r3, r3, #512
 221              		.loc 1 216 5
 222 0128 002B     		cmp	r3, #0
 223 012a 3ED0     		beq	.L21
 217:./Drivers/STM32H7xx_HAL_Driver/Src/stm32h7xx_hal_rcc_ex.c ****   {
 218:./Drivers/STM32H7xx_HAL_Driver/Src/stm32h7xx_hal_rcc_ex.c ****     switch(PeriphClkInit->Sai23ClockSelection)
 224              		.loc 1 218 25
 225 012c 7B68     		ldr	r3, [r7, #4]
 226 012e 9B6D     		ldr	r3, [r3, #88]
 227              		.loc 1 218 5
 228 0130 802B     		cmp	r3, #128
 229 0132 1CD0     		beq	.L22
 230 0134 802B     		cmp	r3, #128
 231 0136 04D8     		bhi	.L23
 232 0138 002B     		cmp	r3, #0
 233 013a 08D0     		beq	.L24
 234 013c 402B     		cmp	r3, #64
 235 013e 0DD0     		beq	.L25
 236 0140 1EE0     		b	.L26
 237              	.L23:
ARM GAS  /tmp/cctM9lCy.s 			page 9


 238 0142 C02B     		cmp	r3, #192
 239 0144 1FD0     		beq	.L232
 240 0146 B3F5807F 		cmp	r3, #256
 241 014a 1ED0     		beq	.L233
 242 014c 18E0     		b	.L26
 243              	.L24:
 219:./Drivers/STM32H7xx_HAL_Driver/Src/stm32h7xx_hal_rcc_ex.c ****     {
 220:./Drivers/STM32H7xx_HAL_Driver/Src/stm32h7xx_hal_rcc_ex.c ****     case RCC_SAI23CLKSOURCE_PLL:      /* PLL is used as clock source for SAI2/3 */
 221:./Drivers/STM32H7xx_HAL_Driver/Src/stm32h7xx_hal_rcc_ex.c ****       /* Enable SAI Clock output generated form System PLL . */
 222:./Drivers/STM32H7xx_HAL_Driver/Src/stm32h7xx_hal_rcc_ex.c ****       __HAL_RCC_PLLCLKOUT_ENABLE(RCC_PLL1_DIVQ);
 244              		.loc 1 222 7
 245 014e 6C4B     		ldr	r3, .L272
 246 0150 DB6A     		ldr	r3, [r3, #44]
 247 0152 6B4A     		ldr	r2, .L272
 248 0154 43F40033 		orr	r3, r3, #131072
 249 0158 D362     		str	r3, [r2, #44]
 223:./Drivers/STM32H7xx_HAL_Driver/Src/stm32h7xx_hal_rcc_ex.c **** 
 224:./Drivers/STM32H7xx_HAL_Driver/Src/stm32h7xx_hal_rcc_ex.c ****       /* SAI2/3 clock source configuration done later after clock selection check */
 225:./Drivers/STM32H7xx_HAL_Driver/Src/stm32h7xx_hal_rcc_ex.c ****       break;
 250              		.loc 1 225 7
 251 015a 17E0     		b	.L29
 252              	.L25:
 226:./Drivers/STM32H7xx_HAL_Driver/Src/stm32h7xx_hal_rcc_ex.c **** 
 227:./Drivers/STM32H7xx_HAL_Driver/Src/stm32h7xx_hal_rcc_ex.c ****     case RCC_SAI23CLKSOURCE_PLL2: /* PLL2 is used as clock source for SAI2/3 */
 228:./Drivers/STM32H7xx_HAL_Driver/Src/stm32h7xx_hal_rcc_ex.c **** 
 229:./Drivers/STM32H7xx_HAL_Driver/Src/stm32h7xx_hal_rcc_ex.c ****       ret = RCCEx_PLL2_Config(&(PeriphClkInit->PLL2),DIVIDER_P_UPDATE);
 253              		.loc 1 229 13
 254 015c 7B68     		ldr	r3, [r7, #4]
 255 015e 0433     		adds	r3, r3, #4
 256 0160 0021     		movs	r1, #0
 257 0162 1846     		mov	r0, r3
 258 0164 FFF7FEFF 		bl	RCCEx_PLL2_Config
 259 0168 0346     		mov	r3, r0
 260 016a FB75     		strb	r3, [r7, #23]
 230:./Drivers/STM32H7xx_HAL_Driver/Src/stm32h7xx_hal_rcc_ex.c **** 
 231:./Drivers/STM32H7xx_HAL_Driver/Src/stm32h7xx_hal_rcc_ex.c ****       /* SAI2/3 clock source configuration done later after clock selection check */
 232:./Drivers/STM32H7xx_HAL_Driver/Src/stm32h7xx_hal_rcc_ex.c ****       break;
 261              		.loc 1 232 7
 262 016c 0EE0     		b	.L29
 263              	.L22:
 233:./Drivers/STM32H7xx_HAL_Driver/Src/stm32h7xx_hal_rcc_ex.c **** 
 234:./Drivers/STM32H7xx_HAL_Driver/Src/stm32h7xx_hal_rcc_ex.c ****     case RCC_SAI23CLKSOURCE_PLL3:  /* PLL3 is used as clock source for SAI2/3 */
 235:./Drivers/STM32H7xx_HAL_Driver/Src/stm32h7xx_hal_rcc_ex.c ****       ret = RCCEx_PLL3_Config(&(PeriphClkInit->PLL3),DIVIDER_P_UPDATE);
 264              		.loc 1 235 13
 265 016e 7B68     		ldr	r3, [r7, #4]
 266 0170 2433     		adds	r3, r3, #36
 267 0172 0021     		movs	r1, #0
 268 0174 1846     		mov	r0, r3
 269 0176 FFF7FEFF 		bl	RCCEx_PLL3_Config
 270 017a 0346     		mov	r3, r0
 271 017c FB75     		strb	r3, [r7, #23]
 236:./Drivers/STM32H7xx_HAL_Driver/Src/stm32h7xx_hal_rcc_ex.c **** 
 237:./Drivers/STM32H7xx_HAL_Driver/Src/stm32h7xx_hal_rcc_ex.c ****       /* SAI2/3 clock source configuration done later after clock selection check */
 238:./Drivers/STM32H7xx_HAL_Driver/Src/stm32h7xx_hal_rcc_ex.c ****       break;
 272              		.loc 1 238 7
 273 017e 05E0     		b	.L29
 274              	.L26:
ARM GAS  /tmp/cctM9lCy.s 			page 10


 239:./Drivers/STM32H7xx_HAL_Driver/Src/stm32h7xx_hal_rcc_ex.c **** 
 240:./Drivers/STM32H7xx_HAL_Driver/Src/stm32h7xx_hal_rcc_ex.c ****     case RCC_SAI23CLKSOURCE_PIN:
 241:./Drivers/STM32H7xx_HAL_Driver/Src/stm32h7xx_hal_rcc_ex.c ****       /* External clock is used as source of SAI2/3 clock*/
 242:./Drivers/STM32H7xx_HAL_Driver/Src/stm32h7xx_hal_rcc_ex.c ****       /* SAI2/3 clock source configuration done later after clock selection check */
 243:./Drivers/STM32H7xx_HAL_Driver/Src/stm32h7xx_hal_rcc_ex.c ****       break;
 244:./Drivers/STM32H7xx_HAL_Driver/Src/stm32h7xx_hal_rcc_ex.c **** 
 245:./Drivers/STM32H7xx_HAL_Driver/Src/stm32h7xx_hal_rcc_ex.c ****     case RCC_SAI23CLKSOURCE_CLKP:
 246:./Drivers/STM32H7xx_HAL_Driver/Src/stm32h7xx_hal_rcc_ex.c ****       /* HSI, HSE, or CSI oscillator is used as source of SAI2/3 clock */
 247:./Drivers/STM32H7xx_HAL_Driver/Src/stm32h7xx_hal_rcc_ex.c ****       /* SAI2/3 clock source configuration done later after clock selection check */
 248:./Drivers/STM32H7xx_HAL_Driver/Src/stm32h7xx_hal_rcc_ex.c ****       break;
 249:./Drivers/STM32H7xx_HAL_Driver/Src/stm32h7xx_hal_rcc_ex.c **** 
 250:./Drivers/STM32H7xx_HAL_Driver/Src/stm32h7xx_hal_rcc_ex.c ****     default:
 251:./Drivers/STM32H7xx_HAL_Driver/Src/stm32h7xx_hal_rcc_ex.c ****       ret = HAL_ERROR;
 275              		.loc 1 251 11
 276 0180 0123     		movs	r3, #1
 277 0182 FB75     		strb	r3, [r7, #23]
 252:./Drivers/STM32H7xx_HAL_Driver/Src/stm32h7xx_hal_rcc_ex.c ****       break;
 278              		.loc 1 252 7
 279 0184 02E0     		b	.L29
 280              	.L232:
 243:./Drivers/STM32H7xx_HAL_Driver/Src/stm32h7xx_hal_rcc_ex.c **** 
 281              		.loc 1 243 7
 282 0186 00BF     		nop
 283 0188 00E0     		b	.L29
 284              	.L233:
 248:./Drivers/STM32H7xx_HAL_Driver/Src/stm32h7xx_hal_rcc_ex.c **** 
 285              		.loc 1 248 7
 286 018a 00BF     		nop
 287              	.L29:
 253:./Drivers/STM32H7xx_HAL_Driver/Src/stm32h7xx_hal_rcc_ex.c ****     }
 254:./Drivers/STM32H7xx_HAL_Driver/Src/stm32h7xx_hal_rcc_ex.c **** 
 255:./Drivers/STM32H7xx_HAL_Driver/Src/stm32h7xx_hal_rcc_ex.c ****     if(ret == HAL_OK)
 288              		.loc 1 255 7
 289 018c FB7D     		ldrb	r3, [r7, #23]	@ zero_extendqisi2
 290 018e 002B     		cmp	r3, #0
 291 0190 09D1     		bne	.L30
 256:./Drivers/STM32H7xx_HAL_Driver/Src/stm32h7xx_hal_rcc_ex.c ****     {
 257:./Drivers/STM32H7xx_HAL_Driver/Src/stm32h7xx_hal_rcc_ex.c ****       /* Set the source of SAI2/3 clock*/
 258:./Drivers/STM32H7xx_HAL_Driver/Src/stm32h7xx_hal_rcc_ex.c ****       __HAL_RCC_SAI23_CONFIG(PeriphClkInit->Sai23ClockSelection);
 292              		.loc 1 258 7
 293 0192 5B4B     		ldr	r3, .L272
 294 0194 1B6D     		ldr	r3, [r3, #80]
 295 0196 23F4E072 		bic	r2, r3, #448
 296 019a 7B68     		ldr	r3, [r7, #4]
 297 019c 9B6D     		ldr	r3, [r3, #88]
 298 019e 5849     		ldr	r1, .L272
 299 01a0 1343     		orrs	r3, r3, r2
 300 01a2 0B65     		str	r3, [r1, #80]
 301 01a4 01E0     		b	.L21
 302              	.L30:
 259:./Drivers/STM32H7xx_HAL_Driver/Src/stm32h7xx_hal_rcc_ex.c ****     }
 260:./Drivers/STM32H7xx_HAL_Driver/Src/stm32h7xx_hal_rcc_ex.c ****     else
 261:./Drivers/STM32H7xx_HAL_Driver/Src/stm32h7xx_hal_rcc_ex.c ****     {
 262:./Drivers/STM32H7xx_HAL_Driver/Src/stm32h7xx_hal_rcc_ex.c ****       /* set overall return value */
 263:./Drivers/STM32H7xx_HAL_Driver/Src/stm32h7xx_hal_rcc_ex.c ****       status = ret;
 303              		.loc 1 263 14
 304 01a6 FB7D     		ldrb	r3, [r7, #23]
ARM GAS  /tmp/cctM9lCy.s 			page 11


 305 01a8 BB75     		strb	r3, [r7, #22]
 306              	.L21:
 264:./Drivers/STM32H7xx_HAL_Driver/Src/stm32h7xx_hal_rcc_ex.c ****     }
 265:./Drivers/STM32H7xx_HAL_Driver/Src/stm32h7xx_hal_rcc_ex.c ****   }
 266:./Drivers/STM32H7xx_HAL_Driver/Src/stm32h7xx_hal_rcc_ex.c **** 
 267:./Drivers/STM32H7xx_HAL_Driver/Src/stm32h7xx_hal_rcc_ex.c ****   /*---------------------------- SAI4A configuration -------------------------------*/
 268:./Drivers/STM32H7xx_HAL_Driver/Src/stm32h7xx_hal_rcc_ex.c ****   if(((PeriphClkInit->PeriphClockSelection) & RCC_PERIPHCLK_SAI4A) == RCC_PERIPHCLK_SAI4A)
 307              		.loc 1 268 21
 308 01aa 7B68     		ldr	r3, [r7, #4]
 309 01ac 1B68     		ldr	r3, [r3]
 310              		.loc 1 268 45
 311 01ae 03F48063 		and	r3, r3, #1024
 312              		.loc 1 268 5
 313 01b2 002B     		cmp	r3, #0
 314 01b4 44D0     		beq	.L31
 269:./Drivers/STM32H7xx_HAL_Driver/Src/stm32h7xx_hal_rcc_ex.c ****   {
 270:./Drivers/STM32H7xx_HAL_Driver/Src/stm32h7xx_hal_rcc_ex.c ****     switch(PeriphClkInit->Sai4AClockSelection)
 315              		.loc 1 270 25
 316 01b6 7B68     		ldr	r3, [r7, #4]
 317 01b8 D3F8A430 		ldr	r3, [r3, #164]
 318              		.loc 1 270 5
 319 01bc B3F5800F 		cmp	r3, #4194304
 320 01c0 1FD0     		beq	.L32
 321 01c2 B3F5800F 		cmp	r3, #4194304
 322 01c6 05D8     		bhi	.L33
 323 01c8 002B     		cmp	r3, #0
 324 01ca 0AD0     		beq	.L34
 325 01cc B3F5001F 		cmp	r3, #2097152
 326 01d0 0ED0     		beq	.L35
 327 01d2 1FE0     		b	.L36
 328              	.L33:
 329 01d4 B3F5C00F 		cmp	r3, #6291456
 330 01d8 1FD0     		beq	.L234
 331 01da B3F5000F 		cmp	r3, #8388608
 332 01de 1ED0     		beq	.L235
 333 01e0 18E0     		b	.L36
 334              	.L34:
 271:./Drivers/STM32H7xx_HAL_Driver/Src/stm32h7xx_hal_rcc_ex.c ****     {
 272:./Drivers/STM32H7xx_HAL_Driver/Src/stm32h7xx_hal_rcc_ex.c ****     case RCC_SAI4ACLKSOURCE_PLL:      /* PLL is used as clock source for SAI2*/
 273:./Drivers/STM32H7xx_HAL_Driver/Src/stm32h7xx_hal_rcc_ex.c ****       /* Enable SAI Clock output generated form System PLL . */
 274:./Drivers/STM32H7xx_HAL_Driver/Src/stm32h7xx_hal_rcc_ex.c ****       __HAL_RCC_PLLCLKOUT_ENABLE(RCC_PLL1_DIVQ);
 335              		.loc 1 274 7
 336 01e2 474B     		ldr	r3, .L272
 337 01e4 DB6A     		ldr	r3, [r3, #44]
 338 01e6 464A     		ldr	r2, .L272
 339 01e8 43F40033 		orr	r3, r3, #131072
 340 01ec D362     		str	r3, [r2, #44]
 275:./Drivers/STM32H7xx_HAL_Driver/Src/stm32h7xx_hal_rcc_ex.c **** 
 276:./Drivers/STM32H7xx_HAL_Driver/Src/stm32h7xx_hal_rcc_ex.c ****       /* SAI1 clock source configuration done later after clock selection check */
 277:./Drivers/STM32H7xx_HAL_Driver/Src/stm32h7xx_hal_rcc_ex.c ****       break;
 341              		.loc 1 277 7
 342 01ee 17E0     		b	.L39
 343              	.L35:
 278:./Drivers/STM32H7xx_HAL_Driver/Src/stm32h7xx_hal_rcc_ex.c **** 
 279:./Drivers/STM32H7xx_HAL_Driver/Src/stm32h7xx_hal_rcc_ex.c ****     case RCC_SAI4ACLKSOURCE_PLL2: /* PLL2 is used as clock source for SAI2*/
 280:./Drivers/STM32H7xx_HAL_Driver/Src/stm32h7xx_hal_rcc_ex.c **** 
 281:./Drivers/STM32H7xx_HAL_Driver/Src/stm32h7xx_hal_rcc_ex.c ****       ret = RCCEx_PLL2_Config(&(PeriphClkInit->PLL2),DIVIDER_P_UPDATE);
ARM GAS  /tmp/cctM9lCy.s 			page 12


 344              		.loc 1 281 13
 345 01f0 7B68     		ldr	r3, [r7, #4]
 346 01f2 0433     		adds	r3, r3, #4
 347 01f4 0021     		movs	r1, #0
 348 01f6 1846     		mov	r0, r3
 349 01f8 FFF7FEFF 		bl	RCCEx_PLL2_Config
 350 01fc 0346     		mov	r3, r0
 351 01fe FB75     		strb	r3, [r7, #23]
 282:./Drivers/STM32H7xx_HAL_Driver/Src/stm32h7xx_hal_rcc_ex.c **** 
 283:./Drivers/STM32H7xx_HAL_Driver/Src/stm32h7xx_hal_rcc_ex.c ****       /* SAI2 clock source configuration done later after clock selection check */
 284:./Drivers/STM32H7xx_HAL_Driver/Src/stm32h7xx_hal_rcc_ex.c ****       break;
 352              		.loc 1 284 7
 353 0200 0EE0     		b	.L39
 354              	.L32:
 285:./Drivers/STM32H7xx_HAL_Driver/Src/stm32h7xx_hal_rcc_ex.c **** 
 286:./Drivers/STM32H7xx_HAL_Driver/Src/stm32h7xx_hal_rcc_ex.c ****     case RCC_SAI4ACLKSOURCE_PLL3:  /* PLL3 is used as clock source for SAI2*/
 287:./Drivers/STM32H7xx_HAL_Driver/Src/stm32h7xx_hal_rcc_ex.c ****       ret = RCCEx_PLL3_Config(&(PeriphClkInit->PLL3),DIVIDER_P_UPDATE);
 355              		.loc 1 287 13
 356 0202 7B68     		ldr	r3, [r7, #4]
 357 0204 2433     		adds	r3, r3, #36
 358 0206 0021     		movs	r1, #0
 359 0208 1846     		mov	r0, r3
 360 020a FFF7FEFF 		bl	RCCEx_PLL3_Config
 361 020e 0346     		mov	r3, r0
 362 0210 FB75     		strb	r3, [r7, #23]
 288:./Drivers/STM32H7xx_HAL_Driver/Src/stm32h7xx_hal_rcc_ex.c **** 
 289:./Drivers/STM32H7xx_HAL_Driver/Src/stm32h7xx_hal_rcc_ex.c ****       /* SAI1 clock source configuration done later after clock selection check */
 290:./Drivers/STM32H7xx_HAL_Driver/Src/stm32h7xx_hal_rcc_ex.c ****       break;
 363              		.loc 1 290 7
 364 0212 05E0     		b	.L39
 365              	.L36:
 291:./Drivers/STM32H7xx_HAL_Driver/Src/stm32h7xx_hal_rcc_ex.c **** 
 292:./Drivers/STM32H7xx_HAL_Driver/Src/stm32h7xx_hal_rcc_ex.c ****     case RCC_SAI4ACLKSOURCE_PIN:
 293:./Drivers/STM32H7xx_HAL_Driver/Src/stm32h7xx_hal_rcc_ex.c ****       /* External clock is used as source of SAI2 clock*/
 294:./Drivers/STM32H7xx_HAL_Driver/Src/stm32h7xx_hal_rcc_ex.c ****       /* SAI2 clock source configuration done later after clock selection check */
 295:./Drivers/STM32H7xx_HAL_Driver/Src/stm32h7xx_hal_rcc_ex.c ****       break;
 296:./Drivers/STM32H7xx_HAL_Driver/Src/stm32h7xx_hal_rcc_ex.c **** 
 297:./Drivers/STM32H7xx_HAL_Driver/Src/stm32h7xx_hal_rcc_ex.c ****     case RCC_SAI4ACLKSOURCE_CLKP:
 298:./Drivers/STM32H7xx_HAL_Driver/Src/stm32h7xx_hal_rcc_ex.c ****       /* HSI, HSE, or CSI oscillator is used as source of SAI2 clock */
 299:./Drivers/STM32H7xx_HAL_Driver/Src/stm32h7xx_hal_rcc_ex.c ****       /* SAI1 clock source configuration done later after clock selection check */
 300:./Drivers/STM32H7xx_HAL_Driver/Src/stm32h7xx_hal_rcc_ex.c ****       break;
 301:./Drivers/STM32H7xx_HAL_Driver/Src/stm32h7xx_hal_rcc_ex.c **** 
 302:./Drivers/STM32H7xx_HAL_Driver/Src/stm32h7xx_hal_rcc_ex.c ****     default:
 303:./Drivers/STM32H7xx_HAL_Driver/Src/stm32h7xx_hal_rcc_ex.c ****       ret = HAL_ERROR;
 366              		.loc 1 303 11
 367 0214 0123     		movs	r3, #1
 368 0216 FB75     		strb	r3, [r7, #23]
 304:./Drivers/STM32H7xx_HAL_Driver/Src/stm32h7xx_hal_rcc_ex.c ****       break;
 369              		.loc 1 304 7
 370 0218 02E0     		b	.L39
 371              	.L234:
 295:./Drivers/STM32H7xx_HAL_Driver/Src/stm32h7xx_hal_rcc_ex.c **** 
 372              		.loc 1 295 7
 373 021a 00BF     		nop
 374 021c 00E0     		b	.L39
 375              	.L235:
 300:./Drivers/STM32H7xx_HAL_Driver/Src/stm32h7xx_hal_rcc_ex.c **** 
ARM GAS  /tmp/cctM9lCy.s 			page 13


 376              		.loc 1 300 7
 377 021e 00BF     		nop
 378              	.L39:
 305:./Drivers/STM32H7xx_HAL_Driver/Src/stm32h7xx_hal_rcc_ex.c ****     }
 306:./Drivers/STM32H7xx_HAL_Driver/Src/stm32h7xx_hal_rcc_ex.c **** 
 307:./Drivers/STM32H7xx_HAL_Driver/Src/stm32h7xx_hal_rcc_ex.c ****     if(ret == HAL_OK)
 379              		.loc 1 307 7
 380 0220 FB7D     		ldrb	r3, [r7, #23]	@ zero_extendqisi2
 381 0222 002B     		cmp	r3, #0
 382 0224 0AD1     		bne	.L40
 308:./Drivers/STM32H7xx_HAL_Driver/Src/stm32h7xx_hal_rcc_ex.c ****     {
 309:./Drivers/STM32H7xx_HAL_Driver/Src/stm32h7xx_hal_rcc_ex.c ****       /* Set the source of SAI2 clock*/
 310:./Drivers/STM32H7xx_HAL_Driver/Src/stm32h7xx_hal_rcc_ex.c ****       __HAL_RCC_SAI4A_CONFIG(PeriphClkInit->Sai4AClockSelection);
 383              		.loc 1 310 7
 384 0226 364B     		ldr	r3, .L272
 385 0228 9B6D     		ldr	r3, [r3, #88]
 386 022a 23F46002 		bic	r2, r3, #14680064
 387 022e 7B68     		ldr	r3, [r7, #4]
 388 0230 D3F8A430 		ldr	r3, [r3, #164]
 389 0234 3249     		ldr	r1, .L272
 390 0236 1343     		orrs	r3, r3, r2
 391 0238 8B65     		str	r3, [r1, #88]
 392 023a 01E0     		b	.L31
 393              	.L40:
 311:./Drivers/STM32H7xx_HAL_Driver/Src/stm32h7xx_hal_rcc_ex.c ****     }
 312:./Drivers/STM32H7xx_HAL_Driver/Src/stm32h7xx_hal_rcc_ex.c ****     else
 313:./Drivers/STM32H7xx_HAL_Driver/Src/stm32h7xx_hal_rcc_ex.c ****     {
 314:./Drivers/STM32H7xx_HAL_Driver/Src/stm32h7xx_hal_rcc_ex.c ****       /* set overall return value */
 315:./Drivers/STM32H7xx_HAL_Driver/Src/stm32h7xx_hal_rcc_ex.c ****       status = ret;
 394              		.loc 1 315 14
 395 023c FB7D     		ldrb	r3, [r7, #23]
 396 023e BB75     		strb	r3, [r7, #22]
 397              	.L31:
 316:./Drivers/STM32H7xx_HAL_Driver/Src/stm32h7xx_hal_rcc_ex.c ****     }
 317:./Drivers/STM32H7xx_HAL_Driver/Src/stm32h7xx_hal_rcc_ex.c ****   }
 318:./Drivers/STM32H7xx_HAL_Driver/Src/stm32h7xx_hal_rcc_ex.c ****   /*---------------------------- SAI4B configuration -------------------------------*/
 319:./Drivers/STM32H7xx_HAL_Driver/Src/stm32h7xx_hal_rcc_ex.c ****   if(((PeriphClkInit->PeriphClockSelection) & RCC_PERIPHCLK_SAI4B) == RCC_PERIPHCLK_SAI4B)
 398              		.loc 1 319 21
 399 0240 7B68     		ldr	r3, [r7, #4]
 400 0242 1B68     		ldr	r3, [r3]
 401              		.loc 1 319 45
 402 0244 03F40063 		and	r3, r3, #2048
 403              		.loc 1 319 5
 404 0248 002B     		cmp	r3, #0
 405 024a 44D0     		beq	.L41
 320:./Drivers/STM32H7xx_HAL_Driver/Src/stm32h7xx_hal_rcc_ex.c ****   {
 321:./Drivers/STM32H7xx_HAL_Driver/Src/stm32h7xx_hal_rcc_ex.c ****     switch(PeriphClkInit->Sai4BClockSelection)
 406              		.loc 1 321 25
 407 024c 7B68     		ldr	r3, [r7, #4]
 408 024e D3F8A830 		ldr	r3, [r3, #168]
 409              		.loc 1 321 5
 410 0252 B3F1007F 		cmp	r3, #33554432
 411 0256 1FD0     		beq	.L42
 412 0258 B3F1007F 		cmp	r3, #33554432
 413 025c 05D8     		bhi	.L43
 414 025e 002B     		cmp	r3, #0
 415 0260 0AD0     		beq	.L44
ARM GAS  /tmp/cctM9lCy.s 			page 14


 416 0262 B3F1807F 		cmp	r3, #16777216
 417 0266 0ED0     		beq	.L45
 418 0268 1FE0     		b	.L46
 419              	.L43:
 420 026a B3F1407F 		cmp	r3, #50331648
 421 026e 1FD0     		beq	.L236
 422 0270 B3F1806F 		cmp	r3, #67108864
 423 0274 1ED0     		beq	.L237
 424 0276 18E0     		b	.L46
 425              	.L44:
 322:./Drivers/STM32H7xx_HAL_Driver/Src/stm32h7xx_hal_rcc_ex.c ****     {
 323:./Drivers/STM32H7xx_HAL_Driver/Src/stm32h7xx_hal_rcc_ex.c ****     case RCC_SAI4BCLKSOURCE_PLL:      /* PLL is used as clock source for SAI2*/
 324:./Drivers/STM32H7xx_HAL_Driver/Src/stm32h7xx_hal_rcc_ex.c ****       /* Enable SAI Clock output generated form System PLL . */
 325:./Drivers/STM32H7xx_HAL_Driver/Src/stm32h7xx_hal_rcc_ex.c ****       __HAL_RCC_PLLCLKOUT_ENABLE(RCC_PLL1_DIVQ);
 426              		.loc 1 325 7
 427 0278 214B     		ldr	r3, .L272
 428 027a DB6A     		ldr	r3, [r3, #44]
 429 027c 204A     		ldr	r2, .L272
 430 027e 43F40033 		orr	r3, r3, #131072
 431 0282 D362     		str	r3, [r2, #44]
 326:./Drivers/STM32H7xx_HAL_Driver/Src/stm32h7xx_hal_rcc_ex.c **** 
 327:./Drivers/STM32H7xx_HAL_Driver/Src/stm32h7xx_hal_rcc_ex.c ****       /* SAI1 clock source configuration done later after clock selection check */
 328:./Drivers/STM32H7xx_HAL_Driver/Src/stm32h7xx_hal_rcc_ex.c ****       break;
 432              		.loc 1 328 7
 433 0284 17E0     		b	.L49
 434              	.L45:
 329:./Drivers/STM32H7xx_HAL_Driver/Src/stm32h7xx_hal_rcc_ex.c **** 
 330:./Drivers/STM32H7xx_HAL_Driver/Src/stm32h7xx_hal_rcc_ex.c ****     case RCC_SAI4BCLKSOURCE_PLL2: /* PLL2 is used as clock source for SAI2*/
 331:./Drivers/STM32H7xx_HAL_Driver/Src/stm32h7xx_hal_rcc_ex.c **** 
 332:./Drivers/STM32H7xx_HAL_Driver/Src/stm32h7xx_hal_rcc_ex.c ****       ret = RCCEx_PLL2_Config(&(PeriphClkInit->PLL2),DIVIDER_P_UPDATE);
 435              		.loc 1 332 13
 436 0286 7B68     		ldr	r3, [r7, #4]
 437 0288 0433     		adds	r3, r3, #4
 438 028a 0021     		movs	r1, #0
 439 028c 1846     		mov	r0, r3
 440 028e FFF7FEFF 		bl	RCCEx_PLL2_Config
 441 0292 0346     		mov	r3, r0
 442 0294 FB75     		strb	r3, [r7, #23]
 333:./Drivers/STM32H7xx_HAL_Driver/Src/stm32h7xx_hal_rcc_ex.c **** 
 334:./Drivers/STM32H7xx_HAL_Driver/Src/stm32h7xx_hal_rcc_ex.c ****       /* SAI2 clock source configuration done later after clock selection check */
 335:./Drivers/STM32H7xx_HAL_Driver/Src/stm32h7xx_hal_rcc_ex.c ****       break;
 443              		.loc 1 335 7
 444 0296 0EE0     		b	.L49
 445              	.L42:
 336:./Drivers/STM32H7xx_HAL_Driver/Src/stm32h7xx_hal_rcc_ex.c **** 
 337:./Drivers/STM32H7xx_HAL_Driver/Src/stm32h7xx_hal_rcc_ex.c ****     case RCC_SAI4BCLKSOURCE_PLL3:  /* PLL3 is used as clock source for SAI2*/
 338:./Drivers/STM32H7xx_HAL_Driver/Src/stm32h7xx_hal_rcc_ex.c ****       ret = RCCEx_PLL3_Config(&(PeriphClkInit->PLL3), DIVIDER_P_UPDATE);
 446              		.loc 1 338 13
 447 0298 7B68     		ldr	r3, [r7, #4]
 448 029a 2433     		adds	r3, r3, #36
 449 029c 0021     		movs	r1, #0
 450 029e 1846     		mov	r0, r3
 451 02a0 FFF7FEFF 		bl	RCCEx_PLL3_Config
 452 02a4 0346     		mov	r3, r0
 453 02a6 FB75     		strb	r3, [r7, #23]
 339:./Drivers/STM32H7xx_HAL_Driver/Src/stm32h7xx_hal_rcc_ex.c **** 
 340:./Drivers/STM32H7xx_HAL_Driver/Src/stm32h7xx_hal_rcc_ex.c ****       /* SAI1 clock source configuration done later after clock selection check */
ARM GAS  /tmp/cctM9lCy.s 			page 15


 341:./Drivers/STM32H7xx_HAL_Driver/Src/stm32h7xx_hal_rcc_ex.c ****       break;
 454              		.loc 1 341 7
 455 02a8 05E0     		b	.L49
 456              	.L46:
 342:./Drivers/STM32H7xx_HAL_Driver/Src/stm32h7xx_hal_rcc_ex.c **** 
 343:./Drivers/STM32H7xx_HAL_Driver/Src/stm32h7xx_hal_rcc_ex.c ****     case RCC_SAI4BCLKSOURCE_PIN:
 344:./Drivers/STM32H7xx_HAL_Driver/Src/stm32h7xx_hal_rcc_ex.c ****       /* External clock is used as source of SAI2 clock*/
 345:./Drivers/STM32H7xx_HAL_Driver/Src/stm32h7xx_hal_rcc_ex.c ****       /* SAI2 clock source configuration done later after clock selection check */
 346:./Drivers/STM32H7xx_HAL_Driver/Src/stm32h7xx_hal_rcc_ex.c ****       break;
 347:./Drivers/STM32H7xx_HAL_Driver/Src/stm32h7xx_hal_rcc_ex.c **** 
 348:./Drivers/STM32H7xx_HAL_Driver/Src/stm32h7xx_hal_rcc_ex.c ****     case RCC_SAI4BCLKSOURCE_CLKP:
 349:./Drivers/STM32H7xx_HAL_Driver/Src/stm32h7xx_hal_rcc_ex.c ****       /* HSI, HSE, or CSI oscillator is used as source of SAI2 clock */
 350:./Drivers/STM32H7xx_HAL_Driver/Src/stm32h7xx_hal_rcc_ex.c ****       /* SAI1 clock source configuration done later after clock selection check */
 351:./Drivers/STM32H7xx_HAL_Driver/Src/stm32h7xx_hal_rcc_ex.c ****       break;
 352:./Drivers/STM32H7xx_HAL_Driver/Src/stm32h7xx_hal_rcc_ex.c **** 
 353:./Drivers/STM32H7xx_HAL_Driver/Src/stm32h7xx_hal_rcc_ex.c ****     default:
 354:./Drivers/STM32H7xx_HAL_Driver/Src/stm32h7xx_hal_rcc_ex.c ****       ret = HAL_ERROR;
 457              		.loc 1 354 11
 458 02aa 0123     		movs	r3, #1
 459 02ac FB75     		strb	r3, [r7, #23]
 355:./Drivers/STM32H7xx_HAL_Driver/Src/stm32h7xx_hal_rcc_ex.c ****       break;
 460              		.loc 1 355 7
 461 02ae 02E0     		b	.L49
 462              	.L236:
 346:./Drivers/STM32H7xx_HAL_Driver/Src/stm32h7xx_hal_rcc_ex.c **** 
 463              		.loc 1 346 7
 464 02b0 00BF     		nop
 465 02b2 00E0     		b	.L49
 466              	.L237:
 351:./Drivers/STM32H7xx_HAL_Driver/Src/stm32h7xx_hal_rcc_ex.c **** 
 467              		.loc 1 351 7
 468 02b4 00BF     		nop
 469              	.L49:
 356:./Drivers/STM32H7xx_HAL_Driver/Src/stm32h7xx_hal_rcc_ex.c ****     }
 357:./Drivers/STM32H7xx_HAL_Driver/Src/stm32h7xx_hal_rcc_ex.c **** 
 358:./Drivers/STM32H7xx_HAL_Driver/Src/stm32h7xx_hal_rcc_ex.c ****     if(ret == HAL_OK)
 470              		.loc 1 358 7
 471 02b6 FB7D     		ldrb	r3, [r7, #23]	@ zero_extendqisi2
 472 02b8 002B     		cmp	r3, #0
 473 02ba 0AD1     		bne	.L50
 359:./Drivers/STM32H7xx_HAL_Driver/Src/stm32h7xx_hal_rcc_ex.c ****     {
 360:./Drivers/STM32H7xx_HAL_Driver/Src/stm32h7xx_hal_rcc_ex.c ****       /* Set the source of SAI2 clock*/
 361:./Drivers/STM32H7xx_HAL_Driver/Src/stm32h7xx_hal_rcc_ex.c ****       __HAL_RCC_SAI4B_CONFIG(PeriphClkInit->Sai4BClockSelection);
 474              		.loc 1 361 7
 475 02bc 104B     		ldr	r3, .L272
 476 02be 9B6D     		ldr	r3, [r3, #88]
 477 02c0 23F0E062 		bic	r2, r3, #117440512
 478 02c4 7B68     		ldr	r3, [r7, #4]
 479 02c6 D3F8A830 		ldr	r3, [r3, #168]
 480 02ca 0D49     		ldr	r1, .L272
 481 02cc 1343     		orrs	r3, r3, r2
 482 02ce 8B65     		str	r3, [r1, #88]
 483 02d0 01E0     		b	.L41
 484              	.L50:
 362:./Drivers/STM32H7xx_HAL_Driver/Src/stm32h7xx_hal_rcc_ex.c ****     }
 363:./Drivers/STM32H7xx_HAL_Driver/Src/stm32h7xx_hal_rcc_ex.c ****     else
 364:./Drivers/STM32H7xx_HAL_Driver/Src/stm32h7xx_hal_rcc_ex.c ****     {
ARM GAS  /tmp/cctM9lCy.s 			page 16


 365:./Drivers/STM32H7xx_HAL_Driver/Src/stm32h7xx_hal_rcc_ex.c ****       /* set overall return value */
 366:./Drivers/STM32H7xx_HAL_Driver/Src/stm32h7xx_hal_rcc_ex.c ****       status = ret;
 485              		.loc 1 366 14
 486 02d2 FB7D     		ldrb	r3, [r7, #23]
 487 02d4 BB75     		strb	r3, [r7, #22]
 488              	.L41:
 367:./Drivers/STM32H7xx_HAL_Driver/Src/stm32h7xx_hal_rcc_ex.c ****     }
 368:./Drivers/STM32H7xx_HAL_Driver/Src/stm32h7xx_hal_rcc_ex.c ****   }
 369:./Drivers/STM32H7xx_HAL_Driver/Src/stm32h7xx_hal_rcc_ex.c ****   /*---------------------------- QSPI configuration -------------------------------*/
 370:./Drivers/STM32H7xx_HAL_Driver/Src/stm32h7xx_hal_rcc_ex.c ****   if(((PeriphClkInit->PeriphClockSelection) & RCC_PERIPHCLK_QSPI) == RCC_PERIPHCLK_QSPI)
 489              		.loc 1 370 21
 490 02d6 7B68     		ldr	r3, [r7, #4]
 491 02d8 1B68     		ldr	r3, [r3]
 492              		.loc 1 370 45
 493 02da 03F00073 		and	r3, r3, #33554432
 494              		.loc 1 370 5
 495 02de 002B     		cmp	r3, #0
 496 02e0 35D0     		beq	.L51
 371:./Drivers/STM32H7xx_HAL_Driver/Src/stm32h7xx_hal_rcc_ex.c ****   {
 372:./Drivers/STM32H7xx_HAL_Driver/Src/stm32h7xx_hal_rcc_ex.c ****     switch(PeriphClkInit->QspiClockSelection)
 497              		.loc 1 372 25
 498 02e2 7B68     		ldr	r3, [r7, #4]
 499 02e4 9B6C     		ldr	r3, [r3, #72]
 500              		.loc 1 372 5
 501 02e6 102B     		cmp	r3, #16
 502 02e8 0CD0     		beq	.L52
 503 02ea 102B     		cmp	r3, #16
 504 02ec 02D8     		bhi	.L53
 505 02ee 002B     		cmp	r3, #0
 506 02f0 1BD0     		beq	.L238
 507 02f2 17E0     		b	.L55
 508              	.L53:
 509 02f4 202B     		cmp	r3, #32
 510 02f6 0CD0     		beq	.L56
 511 02f8 302B     		cmp	r3, #48
 512 02fa 18D0     		beq	.L239
 513 02fc 12E0     		b	.L55
 514              	.L273:
 515 02fe 00BF     		.align	2
 516              	.L272:
 517 0300 00440258 		.word	1476543488
 518              	.L52:
 373:./Drivers/STM32H7xx_HAL_Driver/Src/stm32h7xx_hal_rcc_ex.c ****     {
 374:./Drivers/STM32H7xx_HAL_Driver/Src/stm32h7xx_hal_rcc_ex.c ****     case RCC_QSPICLKSOURCE_PLL:      /* PLL is used as clock source for QSPI*/
 375:./Drivers/STM32H7xx_HAL_Driver/Src/stm32h7xx_hal_rcc_ex.c ****       /* Enable QSPI Clock output generated form System PLL . */
 376:./Drivers/STM32H7xx_HAL_Driver/Src/stm32h7xx_hal_rcc_ex.c ****       __HAL_RCC_PLLCLKOUT_ENABLE(RCC_PLL1_DIVQ);
 519              		.loc 1 376 7
 520 0304 AF4B     		ldr	r3, .L274
 521 0306 DB6A     		ldr	r3, [r3, #44]
 522 0308 AE4A     		ldr	r2, .L274
 523 030a 43F40033 		orr	r3, r3, #131072
 524 030e D362     		str	r3, [r2, #44]
 377:./Drivers/STM32H7xx_HAL_Driver/Src/stm32h7xx_hal_rcc_ex.c **** 
 378:./Drivers/STM32H7xx_HAL_Driver/Src/stm32h7xx_hal_rcc_ex.c ****       /* QSPI clock source configuration done later after clock selection check */
 379:./Drivers/STM32H7xx_HAL_Driver/Src/stm32h7xx_hal_rcc_ex.c ****       break;
 525              		.loc 1 379 7
 526 0310 0EE0     		b	.L58
ARM GAS  /tmp/cctM9lCy.s 			page 17


 527              	.L56:
 380:./Drivers/STM32H7xx_HAL_Driver/Src/stm32h7xx_hal_rcc_ex.c **** 
 381:./Drivers/STM32H7xx_HAL_Driver/Src/stm32h7xx_hal_rcc_ex.c ****     case RCC_QSPICLKSOURCE_PLL2: /* PLL2 is used as clock source for QSPI*/
 382:./Drivers/STM32H7xx_HAL_Driver/Src/stm32h7xx_hal_rcc_ex.c **** 
 383:./Drivers/STM32H7xx_HAL_Driver/Src/stm32h7xx_hal_rcc_ex.c ****       ret = RCCEx_PLL2_Config(&(PeriphClkInit->PLL2),DIVIDER_R_UPDATE);
 528              		.loc 1 383 13
 529 0312 7B68     		ldr	r3, [r7, #4]
 530 0314 0433     		adds	r3, r3, #4
 531 0316 0221     		movs	r1, #2
 532 0318 1846     		mov	r0, r3
 533 031a FFF7FEFF 		bl	RCCEx_PLL2_Config
 534 031e 0346     		mov	r3, r0
 535 0320 FB75     		strb	r3, [r7, #23]
 384:./Drivers/STM32H7xx_HAL_Driver/Src/stm32h7xx_hal_rcc_ex.c **** 
 385:./Drivers/STM32H7xx_HAL_Driver/Src/stm32h7xx_hal_rcc_ex.c ****       /* QSPI clock source configuration done later after clock selection check */
 386:./Drivers/STM32H7xx_HAL_Driver/Src/stm32h7xx_hal_rcc_ex.c ****       break;
 536              		.loc 1 386 7
 537 0322 05E0     		b	.L58
 538              	.L55:
 387:./Drivers/STM32H7xx_HAL_Driver/Src/stm32h7xx_hal_rcc_ex.c **** 
 388:./Drivers/STM32H7xx_HAL_Driver/Src/stm32h7xx_hal_rcc_ex.c **** 
 389:./Drivers/STM32H7xx_HAL_Driver/Src/stm32h7xx_hal_rcc_ex.c ****     case RCC_QSPICLKSOURCE_CLKP:
 390:./Drivers/STM32H7xx_HAL_Driver/Src/stm32h7xx_hal_rcc_ex.c ****       /* HSI, HSE, or CSI oscillator is used as source of QSPI clock */
 391:./Drivers/STM32H7xx_HAL_Driver/Src/stm32h7xx_hal_rcc_ex.c ****       /* QSPI clock source configuration done later after clock selection check */
 392:./Drivers/STM32H7xx_HAL_Driver/Src/stm32h7xx_hal_rcc_ex.c ****       break;
 393:./Drivers/STM32H7xx_HAL_Driver/Src/stm32h7xx_hal_rcc_ex.c **** 
 394:./Drivers/STM32H7xx_HAL_Driver/Src/stm32h7xx_hal_rcc_ex.c ****     case RCC_QSPICLKSOURCE_D1HCLK:
 395:./Drivers/STM32H7xx_HAL_Driver/Src/stm32h7xx_hal_rcc_ex.c ****       /* Domain1 HCLK  clock selected as QSPI kernel peripheral clock */
 396:./Drivers/STM32H7xx_HAL_Driver/Src/stm32h7xx_hal_rcc_ex.c ****       break;
 397:./Drivers/STM32H7xx_HAL_Driver/Src/stm32h7xx_hal_rcc_ex.c **** 
 398:./Drivers/STM32H7xx_HAL_Driver/Src/stm32h7xx_hal_rcc_ex.c ****     default:
 399:./Drivers/STM32H7xx_HAL_Driver/Src/stm32h7xx_hal_rcc_ex.c ****       ret = HAL_ERROR;
 539              		.loc 1 399 11
 540 0324 0123     		movs	r3, #1
 541 0326 FB75     		strb	r3, [r7, #23]
 400:./Drivers/STM32H7xx_HAL_Driver/Src/stm32h7xx_hal_rcc_ex.c ****       break;
 542              		.loc 1 400 7
 543 0328 02E0     		b	.L58
 544              	.L238:
 396:./Drivers/STM32H7xx_HAL_Driver/Src/stm32h7xx_hal_rcc_ex.c **** 
 545              		.loc 1 396 7
 546 032a 00BF     		nop
 547 032c 00E0     		b	.L58
 548              	.L239:
 392:./Drivers/STM32H7xx_HAL_Driver/Src/stm32h7xx_hal_rcc_ex.c **** 
 549              		.loc 1 392 7
 550 032e 00BF     		nop
 551              	.L58:
 401:./Drivers/STM32H7xx_HAL_Driver/Src/stm32h7xx_hal_rcc_ex.c ****     }
 402:./Drivers/STM32H7xx_HAL_Driver/Src/stm32h7xx_hal_rcc_ex.c **** 
 403:./Drivers/STM32H7xx_HAL_Driver/Src/stm32h7xx_hal_rcc_ex.c ****     if(ret == HAL_OK)
 552              		.loc 1 403 7
 553 0330 FB7D     		ldrb	r3, [r7, #23]	@ zero_extendqisi2
 554 0332 002B     		cmp	r3, #0
 555 0334 09D1     		bne	.L59
 404:./Drivers/STM32H7xx_HAL_Driver/Src/stm32h7xx_hal_rcc_ex.c ****     {
 405:./Drivers/STM32H7xx_HAL_Driver/Src/stm32h7xx_hal_rcc_ex.c ****       /* Set the source of QSPI clock*/
ARM GAS  /tmp/cctM9lCy.s 			page 18


 406:./Drivers/STM32H7xx_HAL_Driver/Src/stm32h7xx_hal_rcc_ex.c ****       __HAL_RCC_QSPI_CONFIG(PeriphClkInit->QspiClockSelection);
 556              		.loc 1 406 7
 557 0336 A34B     		ldr	r3, .L274
 558 0338 DB6C     		ldr	r3, [r3, #76]
 559 033a 23F03002 		bic	r2, r3, #48
 560 033e 7B68     		ldr	r3, [r7, #4]
 561 0340 9B6C     		ldr	r3, [r3, #72]
 562 0342 A049     		ldr	r1, .L274
 563 0344 1343     		orrs	r3, r3, r2
 564 0346 CB64     		str	r3, [r1, #76]
 565 0348 01E0     		b	.L51
 566              	.L59:
 407:./Drivers/STM32H7xx_HAL_Driver/Src/stm32h7xx_hal_rcc_ex.c ****     }
 408:./Drivers/STM32H7xx_HAL_Driver/Src/stm32h7xx_hal_rcc_ex.c ****     else
 409:./Drivers/STM32H7xx_HAL_Driver/Src/stm32h7xx_hal_rcc_ex.c ****     {
 410:./Drivers/STM32H7xx_HAL_Driver/Src/stm32h7xx_hal_rcc_ex.c ****       /* set overall return value */
 411:./Drivers/STM32H7xx_HAL_Driver/Src/stm32h7xx_hal_rcc_ex.c ****       status = ret;
 567              		.loc 1 411 14
 568 034a FB7D     		ldrb	r3, [r7, #23]
 569 034c BB75     		strb	r3, [r7, #22]
 570              	.L51:
 412:./Drivers/STM32H7xx_HAL_Driver/Src/stm32h7xx_hal_rcc_ex.c ****     }
 413:./Drivers/STM32H7xx_HAL_Driver/Src/stm32h7xx_hal_rcc_ex.c ****   }
 414:./Drivers/STM32H7xx_HAL_Driver/Src/stm32h7xx_hal_rcc_ex.c **** 
 415:./Drivers/STM32H7xx_HAL_Driver/Src/stm32h7xx_hal_rcc_ex.c ****   /*---------------------------- SPI1/2/3 configuration -------------------------------*/
 416:./Drivers/STM32H7xx_HAL_Driver/Src/stm32h7xx_hal_rcc_ex.c ****   if(((PeriphClkInit->PeriphClockSelection) & RCC_PERIPHCLK_SPI123) == RCC_PERIPHCLK_SPI123)
 571              		.loc 1 416 21
 572 034e 7B68     		ldr	r3, [r7, #4]
 573 0350 1B68     		ldr	r3, [r3]
 574              		.loc 1 416 45
 575 0352 03F48053 		and	r3, r3, #4096
 576              		.loc 1 416 5
 577 0356 002B     		cmp	r3, #0
 578 0358 42D0     		beq	.L60
 417:./Drivers/STM32H7xx_HAL_Driver/Src/stm32h7xx_hal_rcc_ex.c ****   {
 418:./Drivers/STM32H7xx_HAL_Driver/Src/stm32h7xx_hal_rcc_ex.c ****     switch(PeriphClkInit->Spi123ClockSelection)
 579              		.loc 1 418 25
 580 035a 7B68     		ldr	r3, [r7, #4]
 581 035c DB6D     		ldr	r3, [r3, #92]
 582              		.loc 1 418 5
 583 035e B3F5005F 		cmp	r3, #8192
 584 0362 1FD0     		beq	.L61
 585 0364 B3F5005F 		cmp	r3, #8192
 586 0368 05D8     		bhi	.L62
 587 036a 002B     		cmp	r3, #0
 588 036c 0AD0     		beq	.L63
 589 036e B3F5805F 		cmp	r3, #4096
 590 0372 0ED0     		beq	.L64
 591 0374 1FE0     		b	.L65
 592              	.L62:
 593 0376 B3F5405F 		cmp	r3, #12288
 594 037a 1FD0     		beq	.L240
 595 037c B3F5804F 		cmp	r3, #16384
 596 0380 1ED0     		beq	.L241
 597 0382 18E0     		b	.L65
 598              	.L63:
 419:./Drivers/STM32H7xx_HAL_Driver/Src/stm32h7xx_hal_rcc_ex.c ****     {
ARM GAS  /tmp/cctM9lCy.s 			page 19


 420:./Drivers/STM32H7xx_HAL_Driver/Src/stm32h7xx_hal_rcc_ex.c ****     case RCC_SPI123CLKSOURCE_PLL:      /* PLL is used as clock source for SPI1/2/3 */
 421:./Drivers/STM32H7xx_HAL_Driver/Src/stm32h7xx_hal_rcc_ex.c ****       /* Enable SPI Clock output generated form System PLL . */
 422:./Drivers/STM32H7xx_HAL_Driver/Src/stm32h7xx_hal_rcc_ex.c ****       __HAL_RCC_PLLCLKOUT_ENABLE(RCC_PLL1_DIVQ);
 599              		.loc 1 422 7
 600 0384 8F4B     		ldr	r3, .L274
 601 0386 DB6A     		ldr	r3, [r3, #44]
 602 0388 8E4A     		ldr	r2, .L274
 603 038a 43F40033 		orr	r3, r3, #131072
 604 038e D362     		str	r3, [r2, #44]
 423:./Drivers/STM32H7xx_HAL_Driver/Src/stm32h7xx_hal_rcc_ex.c **** 
 424:./Drivers/STM32H7xx_HAL_Driver/Src/stm32h7xx_hal_rcc_ex.c ****       /* SPI1/2/3 clock source configuration done later after clock selection check */
 425:./Drivers/STM32H7xx_HAL_Driver/Src/stm32h7xx_hal_rcc_ex.c ****       break;
 605              		.loc 1 425 7
 606 0390 17E0     		b	.L68
 607              	.L64:
 426:./Drivers/STM32H7xx_HAL_Driver/Src/stm32h7xx_hal_rcc_ex.c **** 
 427:./Drivers/STM32H7xx_HAL_Driver/Src/stm32h7xx_hal_rcc_ex.c ****     case RCC_SPI123CLKSOURCE_PLL2: /* PLL2 is used as clock source for SPI1/2/3 */
 428:./Drivers/STM32H7xx_HAL_Driver/Src/stm32h7xx_hal_rcc_ex.c ****       ret = RCCEx_PLL2_Config(&(PeriphClkInit->PLL2),DIVIDER_P_UPDATE);
 608              		.loc 1 428 13
 609 0392 7B68     		ldr	r3, [r7, #4]
 610 0394 0433     		adds	r3, r3, #4
 611 0396 0021     		movs	r1, #0
 612 0398 1846     		mov	r0, r3
 613 039a FFF7FEFF 		bl	RCCEx_PLL2_Config
 614 039e 0346     		mov	r3, r0
 615 03a0 FB75     		strb	r3, [r7, #23]
 429:./Drivers/STM32H7xx_HAL_Driver/Src/stm32h7xx_hal_rcc_ex.c **** 
 430:./Drivers/STM32H7xx_HAL_Driver/Src/stm32h7xx_hal_rcc_ex.c ****       /* SPI1/2/3 clock source configuration done later after clock selection check */
 431:./Drivers/STM32H7xx_HAL_Driver/Src/stm32h7xx_hal_rcc_ex.c ****       break;
 616              		.loc 1 431 7
 617 03a2 0EE0     		b	.L68
 618              	.L61:
 432:./Drivers/STM32H7xx_HAL_Driver/Src/stm32h7xx_hal_rcc_ex.c **** 
 433:./Drivers/STM32H7xx_HAL_Driver/Src/stm32h7xx_hal_rcc_ex.c ****     case RCC_SPI123CLKSOURCE_PLL3:  /* PLL3 is used as clock source for SPI1/2/3 */
 434:./Drivers/STM32H7xx_HAL_Driver/Src/stm32h7xx_hal_rcc_ex.c ****       ret = RCCEx_PLL3_Config(&(PeriphClkInit->PLL3),DIVIDER_P_UPDATE);
 619              		.loc 1 434 13
 620 03a4 7B68     		ldr	r3, [r7, #4]
 621 03a6 2433     		adds	r3, r3, #36
 622 03a8 0021     		movs	r1, #0
 623 03aa 1846     		mov	r0, r3
 624 03ac FFF7FEFF 		bl	RCCEx_PLL3_Config
 625 03b0 0346     		mov	r3, r0
 626 03b2 FB75     		strb	r3, [r7, #23]
 435:./Drivers/STM32H7xx_HAL_Driver/Src/stm32h7xx_hal_rcc_ex.c **** 
 436:./Drivers/STM32H7xx_HAL_Driver/Src/stm32h7xx_hal_rcc_ex.c ****       /* SPI1/2/3 clock source configuration done later after clock selection check */
 437:./Drivers/STM32H7xx_HAL_Driver/Src/stm32h7xx_hal_rcc_ex.c ****       break;
 627              		.loc 1 437 7
 628 03b4 05E0     		b	.L68
 629              	.L65:
 438:./Drivers/STM32H7xx_HAL_Driver/Src/stm32h7xx_hal_rcc_ex.c **** 
 439:./Drivers/STM32H7xx_HAL_Driver/Src/stm32h7xx_hal_rcc_ex.c ****     case RCC_SPI123CLKSOURCE_PIN:
 440:./Drivers/STM32H7xx_HAL_Driver/Src/stm32h7xx_hal_rcc_ex.c ****       /* External clock is used as source of SPI1/2/3 clock*/
 441:./Drivers/STM32H7xx_HAL_Driver/Src/stm32h7xx_hal_rcc_ex.c ****       /* SPI1/2/3 clock source configuration done later after clock selection check */
 442:./Drivers/STM32H7xx_HAL_Driver/Src/stm32h7xx_hal_rcc_ex.c ****       break;
 443:./Drivers/STM32H7xx_HAL_Driver/Src/stm32h7xx_hal_rcc_ex.c **** 
 444:./Drivers/STM32H7xx_HAL_Driver/Src/stm32h7xx_hal_rcc_ex.c ****     case RCC_SPI123CLKSOURCE_CLKP:
 445:./Drivers/STM32H7xx_HAL_Driver/Src/stm32h7xx_hal_rcc_ex.c ****       /* HSI, HSE, or CSI oscillator is used as source of SPI1/2/3 clock */
ARM GAS  /tmp/cctM9lCy.s 			page 20


 446:./Drivers/STM32H7xx_HAL_Driver/Src/stm32h7xx_hal_rcc_ex.c ****       /* SPI1/2/3 clock source configuration done later after clock selection check */
 447:./Drivers/STM32H7xx_HAL_Driver/Src/stm32h7xx_hal_rcc_ex.c ****       break;
 448:./Drivers/STM32H7xx_HAL_Driver/Src/stm32h7xx_hal_rcc_ex.c **** 
 449:./Drivers/STM32H7xx_HAL_Driver/Src/stm32h7xx_hal_rcc_ex.c ****     default:
 450:./Drivers/STM32H7xx_HAL_Driver/Src/stm32h7xx_hal_rcc_ex.c ****       ret = HAL_ERROR;
 630              		.loc 1 450 11
 631 03b6 0123     		movs	r3, #1
 632 03b8 FB75     		strb	r3, [r7, #23]
 451:./Drivers/STM32H7xx_HAL_Driver/Src/stm32h7xx_hal_rcc_ex.c ****       break;
 633              		.loc 1 451 7
 634 03ba 02E0     		b	.L68
 635              	.L240:
 442:./Drivers/STM32H7xx_HAL_Driver/Src/stm32h7xx_hal_rcc_ex.c **** 
 636              		.loc 1 442 7
 637 03bc 00BF     		nop
 638 03be 00E0     		b	.L68
 639              	.L241:
 447:./Drivers/STM32H7xx_HAL_Driver/Src/stm32h7xx_hal_rcc_ex.c **** 
 640              		.loc 1 447 7
 641 03c0 00BF     		nop
 642              	.L68:
 452:./Drivers/STM32H7xx_HAL_Driver/Src/stm32h7xx_hal_rcc_ex.c ****     }
 453:./Drivers/STM32H7xx_HAL_Driver/Src/stm32h7xx_hal_rcc_ex.c **** 
 454:./Drivers/STM32H7xx_HAL_Driver/Src/stm32h7xx_hal_rcc_ex.c ****     if(ret == HAL_OK)
 643              		.loc 1 454 7
 644 03c2 FB7D     		ldrb	r3, [r7, #23]	@ zero_extendqisi2
 645 03c4 002B     		cmp	r3, #0
 646 03c6 09D1     		bne	.L69
 455:./Drivers/STM32H7xx_HAL_Driver/Src/stm32h7xx_hal_rcc_ex.c ****     {
 456:./Drivers/STM32H7xx_HAL_Driver/Src/stm32h7xx_hal_rcc_ex.c ****       /* Set the source of SPI1/2/3 clock*/
 457:./Drivers/STM32H7xx_HAL_Driver/Src/stm32h7xx_hal_rcc_ex.c ****       __HAL_RCC_SPI123_CONFIG(PeriphClkInit->Spi123ClockSelection);
 647              		.loc 1 457 7
 648 03c8 7E4B     		ldr	r3, .L274
 649 03ca 1B6D     		ldr	r3, [r3, #80]
 650 03cc 23F4E042 		bic	r2, r3, #28672
 651 03d0 7B68     		ldr	r3, [r7, #4]
 652 03d2 DB6D     		ldr	r3, [r3, #92]
 653 03d4 7B49     		ldr	r1, .L274
 654 03d6 1343     		orrs	r3, r3, r2
 655 03d8 0B65     		str	r3, [r1, #80]
 656 03da 01E0     		b	.L60
 657              	.L69:
 458:./Drivers/STM32H7xx_HAL_Driver/Src/stm32h7xx_hal_rcc_ex.c ****     }
 459:./Drivers/STM32H7xx_HAL_Driver/Src/stm32h7xx_hal_rcc_ex.c ****     else
 460:./Drivers/STM32H7xx_HAL_Driver/Src/stm32h7xx_hal_rcc_ex.c ****     {
 461:./Drivers/STM32H7xx_HAL_Driver/Src/stm32h7xx_hal_rcc_ex.c ****       /* set overall return value */
 462:./Drivers/STM32H7xx_HAL_Driver/Src/stm32h7xx_hal_rcc_ex.c ****       status = ret;
 658              		.loc 1 462 14
 659 03dc FB7D     		ldrb	r3, [r7, #23]
 660 03de BB75     		strb	r3, [r7, #22]
 661              	.L60:
 463:./Drivers/STM32H7xx_HAL_Driver/Src/stm32h7xx_hal_rcc_ex.c ****     }
 464:./Drivers/STM32H7xx_HAL_Driver/Src/stm32h7xx_hal_rcc_ex.c ****   }
 465:./Drivers/STM32H7xx_HAL_Driver/Src/stm32h7xx_hal_rcc_ex.c **** 
 466:./Drivers/STM32H7xx_HAL_Driver/Src/stm32h7xx_hal_rcc_ex.c ****   /*---------------------------- SPI4/5 configuration -------------------------------*/
 467:./Drivers/STM32H7xx_HAL_Driver/Src/stm32h7xx_hal_rcc_ex.c ****   if(((PeriphClkInit->PeriphClockSelection) & RCC_PERIPHCLK_SPI45) == RCC_PERIPHCLK_SPI45)
 662              		.loc 1 467 21
ARM GAS  /tmp/cctM9lCy.s 			page 21


 663 03e0 7B68     		ldr	r3, [r7, #4]
 664 03e2 1B68     		ldr	r3, [r3]
 665              		.loc 1 467 45
 666 03e4 03F40053 		and	r3, r3, #8192
 667              		.loc 1 467 5
 668 03e8 002B     		cmp	r3, #0
 669 03ea 42D0     		beq	.L70
 468:./Drivers/STM32H7xx_HAL_Driver/Src/stm32h7xx_hal_rcc_ex.c ****   {
 469:./Drivers/STM32H7xx_HAL_Driver/Src/stm32h7xx_hal_rcc_ex.c ****     switch(PeriphClkInit->Spi45ClockSelection)
 670              		.loc 1 469 25
 671 03ec 7B68     		ldr	r3, [r7, #4]
 672 03ee 1B6E     		ldr	r3, [r3, #96]
 673              		.loc 1 469 5
 674 03f0 B3F5003F 		cmp	r3, #131072
 675 03f4 1BD0     		beq	.L71
 676 03f6 B3F5003F 		cmp	r3, #131072
 677 03fa 05D8     		bhi	.L72
 678 03fc 002B     		cmp	r3, #0
 679 03fe 22D0     		beq	.L242
 680 0400 B3F5803F 		cmp	r3, #65536
 681 0404 0AD0     		beq	.L74
 682 0406 1BE0     		b	.L75
 683              	.L72:
 684 0408 B3F5802F 		cmp	r3, #262144
 685 040c 1DD0     		beq	.L243
 686 040e B3F5A02F 		cmp	r3, #327680
 687 0412 1CD0     		beq	.L244
 688 0414 B3F5403F 		cmp	r3, #196608
 689 0418 1BD0     		beq	.L245
 690 041a 11E0     		b	.L75
 691              	.L74:
 470:./Drivers/STM32H7xx_HAL_Driver/Src/stm32h7xx_hal_rcc_ex.c ****     {
 471:./Drivers/STM32H7xx_HAL_Driver/Src/stm32h7xx_hal_rcc_ex.c ****     case RCC_SPI45CLKSOURCE_D2PCLK1:      /* D2PCLK1 as clock source for SPI4/5 */
 472:./Drivers/STM32H7xx_HAL_Driver/Src/stm32h7xx_hal_rcc_ex.c ****       /* SPI4/5 clock source configuration done later after clock selection check */
 473:./Drivers/STM32H7xx_HAL_Driver/Src/stm32h7xx_hal_rcc_ex.c ****       break;
 474:./Drivers/STM32H7xx_HAL_Driver/Src/stm32h7xx_hal_rcc_ex.c **** 
 475:./Drivers/STM32H7xx_HAL_Driver/Src/stm32h7xx_hal_rcc_ex.c ****     case RCC_SPI45CLKSOURCE_PLL2: /* PLL2 is used as clock source for SPI4/5 */
 476:./Drivers/STM32H7xx_HAL_Driver/Src/stm32h7xx_hal_rcc_ex.c **** 
 477:./Drivers/STM32H7xx_HAL_Driver/Src/stm32h7xx_hal_rcc_ex.c ****       ret = RCCEx_PLL2_Config(&(PeriphClkInit->PLL2),DIVIDER_Q_UPDATE);
 692              		.loc 1 477 13
 693 041c 7B68     		ldr	r3, [r7, #4]
 694 041e 0433     		adds	r3, r3, #4
 695 0420 0121     		movs	r1, #1
 696 0422 1846     		mov	r0, r3
 697 0424 FFF7FEFF 		bl	RCCEx_PLL2_Config
 698 0428 0346     		mov	r3, r0
 699 042a FB75     		strb	r3, [r7, #23]
 478:./Drivers/STM32H7xx_HAL_Driver/Src/stm32h7xx_hal_rcc_ex.c **** 
 479:./Drivers/STM32H7xx_HAL_Driver/Src/stm32h7xx_hal_rcc_ex.c ****       /* SPI4/5 clock source configuration done later after clock selection check */
 480:./Drivers/STM32H7xx_HAL_Driver/Src/stm32h7xx_hal_rcc_ex.c ****       break;
 700              		.loc 1 480 7
 701 042c 12E0     		b	.L79
 702              	.L71:
 481:./Drivers/STM32H7xx_HAL_Driver/Src/stm32h7xx_hal_rcc_ex.c ****     case RCC_SPI45CLKSOURCE_PLL3:  /* PLL3 is used as clock source for SPI4/5 */
 482:./Drivers/STM32H7xx_HAL_Driver/Src/stm32h7xx_hal_rcc_ex.c ****       ret = RCCEx_PLL3_Config(&(PeriphClkInit->PLL3),DIVIDER_Q_UPDATE);
 703              		.loc 1 482 13
 704 042e 7B68     		ldr	r3, [r7, #4]
ARM GAS  /tmp/cctM9lCy.s 			page 22


 705 0430 2433     		adds	r3, r3, #36
 706 0432 0121     		movs	r1, #1
 707 0434 1846     		mov	r0, r3
 708 0436 FFF7FEFF 		bl	RCCEx_PLL3_Config
 709 043a 0346     		mov	r3, r0
 710 043c FB75     		strb	r3, [r7, #23]
 483:./Drivers/STM32H7xx_HAL_Driver/Src/stm32h7xx_hal_rcc_ex.c ****       /* SPI4/5 clock source configuration done later after clock selection check */
 484:./Drivers/STM32H7xx_HAL_Driver/Src/stm32h7xx_hal_rcc_ex.c ****       break;
 711              		.loc 1 484 7
 712 043e 09E0     		b	.L79
 713              	.L75:
 485:./Drivers/STM32H7xx_HAL_Driver/Src/stm32h7xx_hal_rcc_ex.c **** 
 486:./Drivers/STM32H7xx_HAL_Driver/Src/stm32h7xx_hal_rcc_ex.c ****     case RCC_SPI45CLKSOURCE_HSI:
 487:./Drivers/STM32H7xx_HAL_Driver/Src/stm32h7xx_hal_rcc_ex.c ****       /* HSI oscillator clock is used as source of SPI4/5 clock*/
 488:./Drivers/STM32H7xx_HAL_Driver/Src/stm32h7xx_hal_rcc_ex.c ****       /* SPI4/5 clock source configuration done later after clock selection check */
 489:./Drivers/STM32H7xx_HAL_Driver/Src/stm32h7xx_hal_rcc_ex.c ****       break;
 490:./Drivers/STM32H7xx_HAL_Driver/Src/stm32h7xx_hal_rcc_ex.c **** 
 491:./Drivers/STM32H7xx_HAL_Driver/Src/stm32h7xx_hal_rcc_ex.c ****     case RCC_SPI45CLKSOURCE_CSI:
 492:./Drivers/STM32H7xx_HAL_Driver/Src/stm32h7xx_hal_rcc_ex.c ****       /*  CSI oscillator clock is used as source of SPI4/5 clock */
 493:./Drivers/STM32H7xx_HAL_Driver/Src/stm32h7xx_hal_rcc_ex.c ****       /* SPI4/5 clock source configuration done later after clock selection check */
 494:./Drivers/STM32H7xx_HAL_Driver/Src/stm32h7xx_hal_rcc_ex.c ****       break;
 495:./Drivers/STM32H7xx_HAL_Driver/Src/stm32h7xx_hal_rcc_ex.c **** 
 496:./Drivers/STM32H7xx_HAL_Driver/Src/stm32h7xx_hal_rcc_ex.c ****     case RCC_SPI45CLKSOURCE_HSE:
 497:./Drivers/STM32H7xx_HAL_Driver/Src/stm32h7xx_hal_rcc_ex.c ****       /* HSE,  oscillator is used as source of SPI4/5 clock */
 498:./Drivers/STM32H7xx_HAL_Driver/Src/stm32h7xx_hal_rcc_ex.c ****       /* SPI4/5 clock source configuration done later after clock selection check */
 499:./Drivers/STM32H7xx_HAL_Driver/Src/stm32h7xx_hal_rcc_ex.c ****       break;
 500:./Drivers/STM32H7xx_HAL_Driver/Src/stm32h7xx_hal_rcc_ex.c **** 
 501:./Drivers/STM32H7xx_HAL_Driver/Src/stm32h7xx_hal_rcc_ex.c ****     default:
 502:./Drivers/STM32H7xx_HAL_Driver/Src/stm32h7xx_hal_rcc_ex.c ****       ret = HAL_ERROR;
 714              		.loc 1 502 11
 715 0440 0123     		movs	r3, #1
 716 0442 FB75     		strb	r3, [r7, #23]
 503:./Drivers/STM32H7xx_HAL_Driver/Src/stm32h7xx_hal_rcc_ex.c ****       break;
 717              		.loc 1 503 7
 718 0444 06E0     		b	.L79
 719              	.L242:
 473:./Drivers/STM32H7xx_HAL_Driver/Src/stm32h7xx_hal_rcc_ex.c **** 
 720              		.loc 1 473 7
 721 0446 00BF     		nop
 722 0448 04E0     		b	.L79
 723              	.L243:
 494:./Drivers/STM32H7xx_HAL_Driver/Src/stm32h7xx_hal_rcc_ex.c **** 
 724              		.loc 1 494 7
 725 044a 00BF     		nop
 726 044c 02E0     		b	.L79
 727              	.L244:
 499:./Drivers/STM32H7xx_HAL_Driver/Src/stm32h7xx_hal_rcc_ex.c **** 
 728              		.loc 1 499 7
 729 044e 00BF     		nop
 730 0450 00E0     		b	.L79
 731              	.L245:
 489:./Drivers/STM32H7xx_HAL_Driver/Src/stm32h7xx_hal_rcc_ex.c **** 
 732              		.loc 1 489 7
 733 0452 00BF     		nop
 734              	.L79:
 504:./Drivers/STM32H7xx_HAL_Driver/Src/stm32h7xx_hal_rcc_ex.c ****     }
 505:./Drivers/STM32H7xx_HAL_Driver/Src/stm32h7xx_hal_rcc_ex.c **** 
ARM GAS  /tmp/cctM9lCy.s 			page 23


 506:./Drivers/STM32H7xx_HAL_Driver/Src/stm32h7xx_hal_rcc_ex.c ****     if(ret == HAL_OK)
 735              		.loc 1 506 7
 736 0454 FB7D     		ldrb	r3, [r7, #23]	@ zero_extendqisi2
 737 0456 002B     		cmp	r3, #0
 738 0458 09D1     		bne	.L80
 507:./Drivers/STM32H7xx_HAL_Driver/Src/stm32h7xx_hal_rcc_ex.c ****     {
 508:./Drivers/STM32H7xx_HAL_Driver/Src/stm32h7xx_hal_rcc_ex.c ****       /* Set the source of SPI4/5 clock*/
 509:./Drivers/STM32H7xx_HAL_Driver/Src/stm32h7xx_hal_rcc_ex.c ****       __HAL_RCC_SPI45_CONFIG(PeriphClkInit->Spi45ClockSelection);
 739              		.loc 1 509 7
 740 045a 5A4B     		ldr	r3, .L274
 741 045c 1B6D     		ldr	r3, [r3, #80]
 742 045e 23F4E022 		bic	r2, r3, #458752
 743 0462 7B68     		ldr	r3, [r7, #4]
 744 0464 1B6E     		ldr	r3, [r3, #96]
 745 0466 5749     		ldr	r1, .L274
 746 0468 1343     		orrs	r3, r3, r2
 747 046a 0B65     		str	r3, [r1, #80]
 748 046c 01E0     		b	.L70
 749              	.L80:
 510:./Drivers/STM32H7xx_HAL_Driver/Src/stm32h7xx_hal_rcc_ex.c ****     }
 511:./Drivers/STM32H7xx_HAL_Driver/Src/stm32h7xx_hal_rcc_ex.c ****     else
 512:./Drivers/STM32H7xx_HAL_Driver/Src/stm32h7xx_hal_rcc_ex.c ****     {
 513:./Drivers/STM32H7xx_HAL_Driver/Src/stm32h7xx_hal_rcc_ex.c ****       /* set overall return value */
 514:./Drivers/STM32H7xx_HAL_Driver/Src/stm32h7xx_hal_rcc_ex.c ****       status = ret;
 750              		.loc 1 514 14
 751 046e FB7D     		ldrb	r3, [r7, #23]
 752 0470 BB75     		strb	r3, [r7, #22]
 753              	.L70:
 515:./Drivers/STM32H7xx_HAL_Driver/Src/stm32h7xx_hal_rcc_ex.c ****     }
 516:./Drivers/STM32H7xx_HAL_Driver/Src/stm32h7xx_hal_rcc_ex.c ****   }
 517:./Drivers/STM32H7xx_HAL_Driver/Src/stm32h7xx_hal_rcc_ex.c **** 
 518:./Drivers/STM32H7xx_HAL_Driver/Src/stm32h7xx_hal_rcc_ex.c ****   /*---------------------------- SPI6 configuration -------------------------------*/
 519:./Drivers/STM32H7xx_HAL_Driver/Src/stm32h7xx_hal_rcc_ex.c ****   if(((PeriphClkInit->PeriphClockSelection) & RCC_PERIPHCLK_SPI6) == RCC_PERIPHCLK_SPI6)
 754              		.loc 1 519 21
 755 0472 7B68     		ldr	r3, [r7, #4]
 756 0474 1B68     		ldr	r3, [r3]
 757              		.loc 1 519 45
 758 0476 03F48043 		and	r3, r3, #16384
 759              		.loc 1 519 5
 760 047a 002B     		cmp	r3, #0
 761 047c 44D0     		beq	.L81
 520:./Drivers/STM32H7xx_HAL_Driver/Src/stm32h7xx_hal_rcc_ex.c ****   {
 521:./Drivers/STM32H7xx_HAL_Driver/Src/stm32h7xx_hal_rcc_ex.c ****     switch(PeriphClkInit->Spi6ClockSelection)
 762              		.loc 1 521 25
 763 047e 7B68     		ldr	r3, [r7, #4]
 764 0480 D3F8AC30 		ldr	r3, [r3, #172]
 765              		.loc 1 521 5
 766 0484 B3F1005F 		cmp	r3, #536870912
 767 0488 1BD0     		beq	.L82
 768 048a B3F1005F 		cmp	r3, #536870912
 769 048e 05D8     		bhi	.L83
 770 0490 002B     		cmp	r3, #0
 771 0492 22D0     		beq	.L246
 772 0494 B3F1805F 		cmp	r3, #268435456
 773 0498 0AD0     		beq	.L85
 774 049a 1BE0     		b	.L86
 775              	.L83:
ARM GAS  /tmp/cctM9lCy.s 			page 24


 776 049c B3F1804F 		cmp	r3, #1073741824
 777 04a0 1DD0     		beq	.L247
 778 04a2 B3F1A04F 		cmp	r3, #1342177280
 779 04a6 1CD0     		beq	.L248
 780 04a8 B3F1405F 		cmp	r3, #805306368
 781 04ac 1BD0     		beq	.L249
 782 04ae 11E0     		b	.L86
 783              	.L85:
 522:./Drivers/STM32H7xx_HAL_Driver/Src/stm32h7xx_hal_rcc_ex.c ****     {
 523:./Drivers/STM32H7xx_HAL_Driver/Src/stm32h7xx_hal_rcc_ex.c ****     case RCC_SPI6CLKSOURCE_D3PCLK1:      /* D3PCLK1 as clock source for SPI6*/
 524:./Drivers/STM32H7xx_HAL_Driver/Src/stm32h7xx_hal_rcc_ex.c ****       /* SPI6 clock source configuration done later after clock selection check */
 525:./Drivers/STM32H7xx_HAL_Driver/Src/stm32h7xx_hal_rcc_ex.c ****       break;
 526:./Drivers/STM32H7xx_HAL_Driver/Src/stm32h7xx_hal_rcc_ex.c **** 
 527:./Drivers/STM32H7xx_HAL_Driver/Src/stm32h7xx_hal_rcc_ex.c ****     case RCC_SPI6CLKSOURCE_PLL2: /* PLL2 is used as clock source for SPI6*/
 528:./Drivers/STM32H7xx_HAL_Driver/Src/stm32h7xx_hal_rcc_ex.c **** 
 529:./Drivers/STM32H7xx_HAL_Driver/Src/stm32h7xx_hal_rcc_ex.c ****       ret = RCCEx_PLL2_Config(&(PeriphClkInit->PLL2),DIVIDER_Q_UPDATE);
 784              		.loc 1 529 13
 785 04b0 7B68     		ldr	r3, [r7, #4]
 786 04b2 0433     		adds	r3, r3, #4
 787 04b4 0121     		movs	r1, #1
 788 04b6 1846     		mov	r0, r3
 789 04b8 FFF7FEFF 		bl	RCCEx_PLL2_Config
 790 04bc 0346     		mov	r3, r0
 791 04be FB75     		strb	r3, [r7, #23]
 530:./Drivers/STM32H7xx_HAL_Driver/Src/stm32h7xx_hal_rcc_ex.c **** 
 531:./Drivers/STM32H7xx_HAL_Driver/Src/stm32h7xx_hal_rcc_ex.c ****       /* SPI6 clock source configuration done later after clock selection check */
 532:./Drivers/STM32H7xx_HAL_Driver/Src/stm32h7xx_hal_rcc_ex.c ****       break;
 792              		.loc 1 532 7
 793 04c0 12E0     		b	.L90
 794              	.L82:
 533:./Drivers/STM32H7xx_HAL_Driver/Src/stm32h7xx_hal_rcc_ex.c ****     case RCC_SPI6CLKSOURCE_PLL3:  /* PLL3 is used as clock source for SPI6*/
 534:./Drivers/STM32H7xx_HAL_Driver/Src/stm32h7xx_hal_rcc_ex.c ****       ret = RCCEx_PLL3_Config(&(PeriphClkInit->PLL3),DIVIDER_Q_UPDATE);
 795              		.loc 1 534 13
 796 04c2 7B68     		ldr	r3, [r7, #4]
 797 04c4 2433     		adds	r3, r3, #36
 798 04c6 0121     		movs	r1, #1
 799 04c8 1846     		mov	r0, r3
 800 04ca FFF7FEFF 		bl	RCCEx_PLL3_Config
 801 04ce 0346     		mov	r3, r0
 802 04d0 FB75     		strb	r3, [r7, #23]
 535:./Drivers/STM32H7xx_HAL_Driver/Src/stm32h7xx_hal_rcc_ex.c ****       /* SPI6 clock source configuration done later after clock selection check */
 536:./Drivers/STM32H7xx_HAL_Driver/Src/stm32h7xx_hal_rcc_ex.c ****       break;
 803              		.loc 1 536 7
 804 04d2 09E0     		b	.L90
 805              	.L86:
 537:./Drivers/STM32H7xx_HAL_Driver/Src/stm32h7xx_hal_rcc_ex.c **** 
 538:./Drivers/STM32H7xx_HAL_Driver/Src/stm32h7xx_hal_rcc_ex.c ****     case RCC_SPI6CLKSOURCE_HSI:
 539:./Drivers/STM32H7xx_HAL_Driver/Src/stm32h7xx_hal_rcc_ex.c ****       /* HSI oscillator clock is used as source of SPI6 clock*/
 540:./Drivers/STM32H7xx_HAL_Driver/Src/stm32h7xx_hal_rcc_ex.c ****       /* SPI6 clock source configuration done later after clock selection check */
 541:./Drivers/STM32H7xx_HAL_Driver/Src/stm32h7xx_hal_rcc_ex.c ****       break;
 542:./Drivers/STM32H7xx_HAL_Driver/Src/stm32h7xx_hal_rcc_ex.c **** 
 543:./Drivers/STM32H7xx_HAL_Driver/Src/stm32h7xx_hal_rcc_ex.c ****     case RCC_SPI6CLKSOURCE_CSI:
 544:./Drivers/STM32H7xx_HAL_Driver/Src/stm32h7xx_hal_rcc_ex.c ****       /*  CSI oscillator clock is used as source of SPI6 clock */
 545:./Drivers/STM32H7xx_HAL_Driver/Src/stm32h7xx_hal_rcc_ex.c ****       /* SPI6 clock source configuration done later after clock selection check */
 546:./Drivers/STM32H7xx_HAL_Driver/Src/stm32h7xx_hal_rcc_ex.c ****       break;
 547:./Drivers/STM32H7xx_HAL_Driver/Src/stm32h7xx_hal_rcc_ex.c **** 
 548:./Drivers/STM32H7xx_HAL_Driver/Src/stm32h7xx_hal_rcc_ex.c ****     case RCC_SPI6CLKSOURCE_HSE:
ARM GAS  /tmp/cctM9lCy.s 			page 25


 549:./Drivers/STM32H7xx_HAL_Driver/Src/stm32h7xx_hal_rcc_ex.c ****       /* HSE,  oscillator is used as source of SPI6 clock */
 550:./Drivers/STM32H7xx_HAL_Driver/Src/stm32h7xx_hal_rcc_ex.c ****       /* SPI6 clock source configuration done later after clock selection check */
 551:./Drivers/STM32H7xx_HAL_Driver/Src/stm32h7xx_hal_rcc_ex.c ****       break;
 552:./Drivers/STM32H7xx_HAL_Driver/Src/stm32h7xx_hal_rcc_ex.c **** 
 553:./Drivers/STM32H7xx_HAL_Driver/Src/stm32h7xx_hal_rcc_ex.c ****     default:
 554:./Drivers/STM32H7xx_HAL_Driver/Src/stm32h7xx_hal_rcc_ex.c ****       ret = HAL_ERROR;
 806              		.loc 1 554 11
 807 04d4 0123     		movs	r3, #1
 808 04d6 FB75     		strb	r3, [r7, #23]
 555:./Drivers/STM32H7xx_HAL_Driver/Src/stm32h7xx_hal_rcc_ex.c ****       break;
 809              		.loc 1 555 7
 810 04d8 06E0     		b	.L90
 811              	.L246:
 525:./Drivers/STM32H7xx_HAL_Driver/Src/stm32h7xx_hal_rcc_ex.c **** 
 812              		.loc 1 525 7
 813 04da 00BF     		nop
 814 04dc 04E0     		b	.L90
 815              	.L247:
 546:./Drivers/STM32H7xx_HAL_Driver/Src/stm32h7xx_hal_rcc_ex.c **** 
 816              		.loc 1 546 7
 817 04de 00BF     		nop
 818 04e0 02E0     		b	.L90
 819              	.L248:
 551:./Drivers/STM32H7xx_HAL_Driver/Src/stm32h7xx_hal_rcc_ex.c **** 
 820              		.loc 1 551 7
 821 04e2 00BF     		nop
 822 04e4 00E0     		b	.L90
 823              	.L249:
 541:./Drivers/STM32H7xx_HAL_Driver/Src/stm32h7xx_hal_rcc_ex.c **** 
 824              		.loc 1 541 7
 825 04e6 00BF     		nop
 826              	.L90:
 556:./Drivers/STM32H7xx_HAL_Driver/Src/stm32h7xx_hal_rcc_ex.c ****     }
 557:./Drivers/STM32H7xx_HAL_Driver/Src/stm32h7xx_hal_rcc_ex.c **** 
 558:./Drivers/STM32H7xx_HAL_Driver/Src/stm32h7xx_hal_rcc_ex.c ****     if(ret == HAL_OK)
 827              		.loc 1 558 7
 828 04e8 FB7D     		ldrb	r3, [r7, #23]	@ zero_extendqisi2
 829 04ea 002B     		cmp	r3, #0
 830 04ec 0AD1     		bne	.L91
 559:./Drivers/STM32H7xx_HAL_Driver/Src/stm32h7xx_hal_rcc_ex.c ****     {
 560:./Drivers/STM32H7xx_HAL_Driver/Src/stm32h7xx_hal_rcc_ex.c ****       /* Set the source of SPI6 clock*/
 561:./Drivers/STM32H7xx_HAL_Driver/Src/stm32h7xx_hal_rcc_ex.c ****       __HAL_RCC_SPI6_CONFIG(PeriphClkInit->Spi6ClockSelection);
 831              		.loc 1 561 7
 832 04ee 354B     		ldr	r3, .L274
 833 04f0 9B6D     		ldr	r3, [r3, #88]
 834 04f2 23F0E042 		bic	r2, r3, #1879048192
 835 04f6 7B68     		ldr	r3, [r7, #4]
 836 04f8 D3F8AC30 		ldr	r3, [r3, #172]
 837 04fc 3149     		ldr	r1, .L274
 838 04fe 1343     		orrs	r3, r3, r2
 839 0500 8B65     		str	r3, [r1, #88]
 840 0502 01E0     		b	.L81
 841              	.L91:
 562:./Drivers/STM32H7xx_HAL_Driver/Src/stm32h7xx_hal_rcc_ex.c ****     }
 563:./Drivers/STM32H7xx_HAL_Driver/Src/stm32h7xx_hal_rcc_ex.c ****     else
 564:./Drivers/STM32H7xx_HAL_Driver/Src/stm32h7xx_hal_rcc_ex.c ****     {
 565:./Drivers/STM32H7xx_HAL_Driver/Src/stm32h7xx_hal_rcc_ex.c ****       /* set overall return value */
ARM GAS  /tmp/cctM9lCy.s 			page 26


 566:./Drivers/STM32H7xx_HAL_Driver/Src/stm32h7xx_hal_rcc_ex.c ****       status = ret;
 842              		.loc 1 566 14
 843 0504 FB7D     		ldrb	r3, [r7, #23]
 844 0506 BB75     		strb	r3, [r7, #22]
 845              	.L81:
 567:./Drivers/STM32H7xx_HAL_Driver/Src/stm32h7xx_hal_rcc_ex.c ****     }
 568:./Drivers/STM32H7xx_HAL_Driver/Src/stm32h7xx_hal_rcc_ex.c ****   }
 569:./Drivers/STM32H7xx_HAL_Driver/Src/stm32h7xx_hal_rcc_ex.c **** 
 570:./Drivers/STM32H7xx_HAL_Driver/Src/stm32h7xx_hal_rcc_ex.c **** #if defined(DSI)
 571:./Drivers/STM32H7xx_HAL_Driver/Src/stm32h7xx_hal_rcc_ex.c ****   /*---------------------------- DSI configuration -------------------------------*/
 572:./Drivers/STM32H7xx_HAL_Driver/Src/stm32h7xx_hal_rcc_ex.c ****   if(((PeriphClkInit->PeriphClockSelection) & RCC_PERIPHCLK_DSI) == RCC_PERIPHCLK_DSI)
 573:./Drivers/STM32H7xx_HAL_Driver/Src/stm32h7xx_hal_rcc_ex.c ****   {
 574:./Drivers/STM32H7xx_HAL_Driver/Src/stm32h7xx_hal_rcc_ex.c ****     switch(PeriphClkInit->DsiClockSelection)
 575:./Drivers/STM32H7xx_HAL_Driver/Src/stm32h7xx_hal_rcc_ex.c ****     {
 576:./Drivers/STM32H7xx_HAL_Driver/Src/stm32h7xx_hal_rcc_ex.c **** 
 577:./Drivers/STM32H7xx_HAL_Driver/Src/stm32h7xx_hal_rcc_ex.c ****     case RCC_DSICLKSOURCE_PLL2: /* PLL2 is used as clock source for DSI*/
 578:./Drivers/STM32H7xx_HAL_Driver/Src/stm32h7xx_hal_rcc_ex.c **** 
 579:./Drivers/STM32H7xx_HAL_Driver/Src/stm32h7xx_hal_rcc_ex.c ****       ret = RCCEx_PLL2_Config(&(PeriphClkInit->PLL2),DIVIDER_Q_UPDATE);
 580:./Drivers/STM32H7xx_HAL_Driver/Src/stm32h7xx_hal_rcc_ex.c **** 
 581:./Drivers/STM32H7xx_HAL_Driver/Src/stm32h7xx_hal_rcc_ex.c ****       /* DSI clock source configuration done later after clock selection check */
 582:./Drivers/STM32H7xx_HAL_Driver/Src/stm32h7xx_hal_rcc_ex.c ****       break;
 583:./Drivers/STM32H7xx_HAL_Driver/Src/stm32h7xx_hal_rcc_ex.c **** 
 584:./Drivers/STM32H7xx_HAL_Driver/Src/stm32h7xx_hal_rcc_ex.c ****     case RCC_DSICLKSOURCE_PHY:
 585:./Drivers/STM32H7xx_HAL_Driver/Src/stm32h7xx_hal_rcc_ex.c ****       /* PHY is used as clock source for DSI*/
 586:./Drivers/STM32H7xx_HAL_Driver/Src/stm32h7xx_hal_rcc_ex.c ****       /* DSI clock source configuration done later after clock selection check */
 587:./Drivers/STM32H7xx_HAL_Driver/Src/stm32h7xx_hal_rcc_ex.c ****       break;
 588:./Drivers/STM32H7xx_HAL_Driver/Src/stm32h7xx_hal_rcc_ex.c **** 
 589:./Drivers/STM32H7xx_HAL_Driver/Src/stm32h7xx_hal_rcc_ex.c ****     default:
 590:./Drivers/STM32H7xx_HAL_Driver/Src/stm32h7xx_hal_rcc_ex.c ****       ret = HAL_ERROR;
 591:./Drivers/STM32H7xx_HAL_Driver/Src/stm32h7xx_hal_rcc_ex.c ****       break;
 592:./Drivers/STM32H7xx_HAL_Driver/Src/stm32h7xx_hal_rcc_ex.c ****     }
 593:./Drivers/STM32H7xx_HAL_Driver/Src/stm32h7xx_hal_rcc_ex.c **** 
 594:./Drivers/STM32H7xx_HAL_Driver/Src/stm32h7xx_hal_rcc_ex.c ****     if(ret == HAL_OK)
 595:./Drivers/STM32H7xx_HAL_Driver/Src/stm32h7xx_hal_rcc_ex.c ****     {
 596:./Drivers/STM32H7xx_HAL_Driver/Src/stm32h7xx_hal_rcc_ex.c ****       /* Set the source of DSI clock*/
 597:./Drivers/STM32H7xx_HAL_Driver/Src/stm32h7xx_hal_rcc_ex.c ****       __HAL_RCC_DSI_CONFIG(PeriphClkInit->DsiClockSelection);
 598:./Drivers/STM32H7xx_HAL_Driver/Src/stm32h7xx_hal_rcc_ex.c ****     }
 599:./Drivers/STM32H7xx_HAL_Driver/Src/stm32h7xx_hal_rcc_ex.c ****     else
 600:./Drivers/STM32H7xx_HAL_Driver/Src/stm32h7xx_hal_rcc_ex.c ****     {
 601:./Drivers/STM32H7xx_HAL_Driver/Src/stm32h7xx_hal_rcc_ex.c ****       /* set overall return value */
 602:./Drivers/STM32H7xx_HAL_Driver/Src/stm32h7xx_hal_rcc_ex.c ****       status = ret;
 603:./Drivers/STM32H7xx_HAL_Driver/Src/stm32h7xx_hal_rcc_ex.c ****     }
 604:./Drivers/STM32H7xx_HAL_Driver/Src/stm32h7xx_hal_rcc_ex.c ****   }
 605:./Drivers/STM32H7xx_HAL_Driver/Src/stm32h7xx_hal_rcc_ex.c **** #endif /*DSI*/
 606:./Drivers/STM32H7xx_HAL_Driver/Src/stm32h7xx_hal_rcc_ex.c **** 
 607:./Drivers/STM32H7xx_HAL_Driver/Src/stm32h7xx_hal_rcc_ex.c **** #if defined(FDCAN1) || defined(FDCAN2)
 608:./Drivers/STM32H7xx_HAL_Driver/Src/stm32h7xx_hal_rcc_ex.c ****   /*---------------------------- FDCAN configuration -------------------------------*/
 609:./Drivers/STM32H7xx_HAL_Driver/Src/stm32h7xx_hal_rcc_ex.c ****   if(((PeriphClkInit->PeriphClockSelection) & RCC_PERIPHCLK_FDCAN) == RCC_PERIPHCLK_FDCAN)
 846              		.loc 1 609 21
 847 0508 7B68     		ldr	r3, [r7, #4]
 848 050a 1B68     		ldr	r3, [r3]
 849              		.loc 1 609 45
 850 050c 03F40043 		and	r3, r3, #32768
 851              		.loc 1 609 5
 852 0510 002B     		cmp	r3, #0
 853 0512 2DD0     		beq	.L92
 610:./Drivers/STM32H7xx_HAL_Driver/Src/stm32h7xx_hal_rcc_ex.c ****   {
ARM GAS  /tmp/cctM9lCy.s 			page 27


 611:./Drivers/STM32H7xx_HAL_Driver/Src/stm32h7xx_hal_rcc_ex.c ****     switch(PeriphClkInit->FdcanClockSelection)
 854              		.loc 1 611 25
 855 0514 7B68     		ldr	r3, [r7, #4]
 856 0516 DB6E     		ldr	r3, [r3, #108]
 857              		.loc 1 611 5
 858 0518 B3F1805F 		cmp	r3, #268435456
 859 051c 05D0     		beq	.L93
 860 051e B3F1005F 		cmp	r3, #536870912
 861 0522 09D0     		beq	.L94
 862 0524 002B     		cmp	r3, #0
 863 0526 13D0     		beq	.L250
 864 0528 0FE0     		b	.L228
 865              	.L93:
 612:./Drivers/STM32H7xx_HAL_Driver/Src/stm32h7xx_hal_rcc_ex.c ****     {
 613:./Drivers/STM32H7xx_HAL_Driver/Src/stm32h7xx_hal_rcc_ex.c ****     case RCC_FDCANCLKSOURCE_PLL:      /* PLL is used as clock source for FDCAN*/
 614:./Drivers/STM32H7xx_HAL_Driver/Src/stm32h7xx_hal_rcc_ex.c ****       /* Enable FDCAN Clock output generated form System PLL . */
 615:./Drivers/STM32H7xx_HAL_Driver/Src/stm32h7xx_hal_rcc_ex.c ****       __HAL_RCC_PLLCLKOUT_ENABLE(RCC_PLL1_DIVQ);
 866              		.loc 1 615 7
 867 052a 264B     		ldr	r3, .L274
 868 052c DB6A     		ldr	r3, [r3, #44]
 869 052e 254A     		ldr	r2, .L274
 870 0530 43F40033 		orr	r3, r3, #131072
 871 0534 D362     		str	r3, [r2, #44]
 616:./Drivers/STM32H7xx_HAL_Driver/Src/stm32h7xx_hal_rcc_ex.c **** 
 617:./Drivers/STM32H7xx_HAL_Driver/Src/stm32h7xx_hal_rcc_ex.c ****       /* FDCAN clock source configuration done later after clock selection check */
 618:./Drivers/STM32H7xx_HAL_Driver/Src/stm32h7xx_hal_rcc_ex.c ****       break;
 872              		.loc 1 618 7
 873 0536 0CE0     		b	.L97
 874              	.L94:
 619:./Drivers/STM32H7xx_HAL_Driver/Src/stm32h7xx_hal_rcc_ex.c **** 
 620:./Drivers/STM32H7xx_HAL_Driver/Src/stm32h7xx_hal_rcc_ex.c ****     case RCC_FDCANCLKSOURCE_PLL2: /* PLL2 is used as clock source for FDCAN*/
 621:./Drivers/STM32H7xx_HAL_Driver/Src/stm32h7xx_hal_rcc_ex.c **** 
 622:./Drivers/STM32H7xx_HAL_Driver/Src/stm32h7xx_hal_rcc_ex.c ****       ret = RCCEx_PLL2_Config(&(PeriphClkInit->PLL2),DIVIDER_Q_UPDATE);
 875              		.loc 1 622 13
 876 0538 7B68     		ldr	r3, [r7, #4]
 877 053a 0433     		adds	r3, r3, #4
 878 053c 0121     		movs	r1, #1
 879 053e 1846     		mov	r0, r3
 880 0540 FFF7FEFF 		bl	RCCEx_PLL2_Config
 881 0544 0346     		mov	r3, r0
 882 0546 FB75     		strb	r3, [r7, #23]
 623:./Drivers/STM32H7xx_HAL_Driver/Src/stm32h7xx_hal_rcc_ex.c **** 
 624:./Drivers/STM32H7xx_HAL_Driver/Src/stm32h7xx_hal_rcc_ex.c ****       /* FDCAN clock source configuration done later after clock selection check */
 625:./Drivers/STM32H7xx_HAL_Driver/Src/stm32h7xx_hal_rcc_ex.c ****       break;
 883              		.loc 1 625 7
 884 0548 03E0     		b	.L97
 885              	.L228:
 626:./Drivers/STM32H7xx_HAL_Driver/Src/stm32h7xx_hal_rcc_ex.c **** 
 627:./Drivers/STM32H7xx_HAL_Driver/Src/stm32h7xx_hal_rcc_ex.c ****     case RCC_FDCANCLKSOURCE_HSE:
 628:./Drivers/STM32H7xx_HAL_Driver/Src/stm32h7xx_hal_rcc_ex.c ****       /* HSE is used as clock source for FDCAN*/
 629:./Drivers/STM32H7xx_HAL_Driver/Src/stm32h7xx_hal_rcc_ex.c ****       /* FDCAN clock source configuration done later after clock selection check */
 630:./Drivers/STM32H7xx_HAL_Driver/Src/stm32h7xx_hal_rcc_ex.c ****       break;
 631:./Drivers/STM32H7xx_HAL_Driver/Src/stm32h7xx_hal_rcc_ex.c **** 
 632:./Drivers/STM32H7xx_HAL_Driver/Src/stm32h7xx_hal_rcc_ex.c ****     default:
 633:./Drivers/STM32H7xx_HAL_Driver/Src/stm32h7xx_hal_rcc_ex.c ****       ret = HAL_ERROR;
 886              		.loc 1 633 11
 887 054a 0123     		movs	r3, #1
ARM GAS  /tmp/cctM9lCy.s 			page 28


 888 054c FB75     		strb	r3, [r7, #23]
 634:./Drivers/STM32H7xx_HAL_Driver/Src/stm32h7xx_hal_rcc_ex.c ****       break;
 889              		.loc 1 634 7
 890 054e 00E0     		b	.L97
 891              	.L250:
 630:./Drivers/STM32H7xx_HAL_Driver/Src/stm32h7xx_hal_rcc_ex.c **** 
 892              		.loc 1 630 7
 893 0550 00BF     		nop
 894              	.L97:
 635:./Drivers/STM32H7xx_HAL_Driver/Src/stm32h7xx_hal_rcc_ex.c ****     }
 636:./Drivers/STM32H7xx_HAL_Driver/Src/stm32h7xx_hal_rcc_ex.c **** 
 637:./Drivers/STM32H7xx_HAL_Driver/Src/stm32h7xx_hal_rcc_ex.c ****     if(ret == HAL_OK)
 895              		.loc 1 637 7
 896 0552 FB7D     		ldrb	r3, [r7, #23]	@ zero_extendqisi2
 897 0554 002B     		cmp	r3, #0
 898 0556 09D1     		bne	.L98
 638:./Drivers/STM32H7xx_HAL_Driver/Src/stm32h7xx_hal_rcc_ex.c ****     {
 639:./Drivers/STM32H7xx_HAL_Driver/Src/stm32h7xx_hal_rcc_ex.c ****       /* Set the source of FDCAN clock*/
 640:./Drivers/STM32H7xx_HAL_Driver/Src/stm32h7xx_hal_rcc_ex.c ****       __HAL_RCC_FDCAN_CONFIG(PeriphClkInit->FdcanClockSelection);
 899              		.loc 1 640 7
 900 0558 1A4B     		ldr	r3, .L274
 901 055a 1B6D     		ldr	r3, [r3, #80]
 902 055c 23F04052 		bic	r2, r3, #805306368
 903 0560 7B68     		ldr	r3, [r7, #4]
 904 0562 DB6E     		ldr	r3, [r3, #108]
 905 0564 1749     		ldr	r1, .L274
 906 0566 1343     		orrs	r3, r3, r2
 907 0568 0B65     		str	r3, [r1, #80]
 908 056a 01E0     		b	.L92
 909              	.L98:
 641:./Drivers/STM32H7xx_HAL_Driver/Src/stm32h7xx_hal_rcc_ex.c ****     }
 642:./Drivers/STM32H7xx_HAL_Driver/Src/stm32h7xx_hal_rcc_ex.c ****     else
 643:./Drivers/STM32H7xx_HAL_Driver/Src/stm32h7xx_hal_rcc_ex.c ****     {
 644:./Drivers/STM32H7xx_HAL_Driver/Src/stm32h7xx_hal_rcc_ex.c ****       /* set overall return value */
 645:./Drivers/STM32H7xx_HAL_Driver/Src/stm32h7xx_hal_rcc_ex.c ****       status = ret;
 910              		.loc 1 645 14
 911 056c FB7D     		ldrb	r3, [r7, #23]
 912 056e BB75     		strb	r3, [r7, #22]
 913              	.L92:
 646:./Drivers/STM32H7xx_HAL_Driver/Src/stm32h7xx_hal_rcc_ex.c ****     }
 647:./Drivers/STM32H7xx_HAL_Driver/Src/stm32h7xx_hal_rcc_ex.c ****   }
 648:./Drivers/STM32H7xx_HAL_Driver/Src/stm32h7xx_hal_rcc_ex.c **** 
 649:./Drivers/STM32H7xx_HAL_Driver/Src/stm32h7xx_hal_rcc_ex.c **** #endif /*FDCAN1 || FDCAN2*/
 650:./Drivers/STM32H7xx_HAL_Driver/Src/stm32h7xx_hal_rcc_ex.c ****   /*---------------------------- FMC configuration -------------------------------*/
 651:./Drivers/STM32H7xx_HAL_Driver/Src/stm32h7xx_hal_rcc_ex.c ****   if(((PeriphClkInit->PeriphClockSelection) & RCC_PERIPHCLK_FMC) == RCC_PERIPHCLK_FMC)
 914              		.loc 1 651 21
 915 0570 7B68     		ldr	r3, [r7, #4]
 916 0572 1B68     		ldr	r3, [r3]
 917              		.loc 1 651 45
 918 0574 03F08073 		and	r3, r3, #16777216
 919              		.loc 1 651 5
 920 0578 002B     		cmp	r3, #0
 921 057a 35D0     		beq	.L99
 652:./Drivers/STM32H7xx_HAL_Driver/Src/stm32h7xx_hal_rcc_ex.c ****   {
 653:./Drivers/STM32H7xx_HAL_Driver/Src/stm32h7xx_hal_rcc_ex.c ****     switch(PeriphClkInit->FmcClockSelection)
 922              		.loc 1 653 25
 923 057c 7B68     		ldr	r3, [r7, #4]
ARM GAS  /tmp/cctM9lCy.s 			page 29


 924 057e 5B6C     		ldr	r3, [r3, #68]
 925              		.loc 1 653 5
 926 0580 032B     		cmp	r3, #3
 927 0582 1BD8     		bhi	.L100
 928 0584 01A2     		adr	r2, .L102
 929 0586 52F823F0 		ldr	pc, [r2, r3, lsl #2]
 930 058a 00BF     		.p2align 2
 931              	.L102:
 932 058c C9050000 		.word	.L251+1
 933 0590 9D050000 		.word	.L104+1
 934 0594 AB050000 		.word	.L103+1
 935 0598 C9050000 		.word	.L251+1
 936              		.p2align 1
 937              	.L104:
 654:./Drivers/STM32H7xx_HAL_Driver/Src/stm32h7xx_hal_rcc_ex.c ****     {
 655:./Drivers/STM32H7xx_HAL_Driver/Src/stm32h7xx_hal_rcc_ex.c ****     case RCC_FMCCLKSOURCE_PLL:      /* PLL is used as clock source for FMC*/
 656:./Drivers/STM32H7xx_HAL_Driver/Src/stm32h7xx_hal_rcc_ex.c ****       /* Enable FMC Clock output generated form System PLL . */
 657:./Drivers/STM32H7xx_HAL_Driver/Src/stm32h7xx_hal_rcc_ex.c ****       __HAL_RCC_PLLCLKOUT_ENABLE(RCC_PLL1_DIVQ);
 938              		.loc 1 657 7
 939 059c 094B     		ldr	r3, .L274
 940 059e DB6A     		ldr	r3, [r3, #44]
 941 05a0 084A     		ldr	r2, .L274
 942 05a2 43F40033 		orr	r3, r3, #131072
 943 05a6 D362     		str	r3, [r2, #44]
 658:./Drivers/STM32H7xx_HAL_Driver/Src/stm32h7xx_hal_rcc_ex.c **** 
 659:./Drivers/STM32H7xx_HAL_Driver/Src/stm32h7xx_hal_rcc_ex.c ****       /* FMC clock source configuration done later after clock selection check */
 660:./Drivers/STM32H7xx_HAL_Driver/Src/stm32h7xx_hal_rcc_ex.c ****       break;
 944              		.loc 1 660 7
 945 05a8 0FE0     		b	.L106
 946              	.L103:
 661:./Drivers/STM32H7xx_HAL_Driver/Src/stm32h7xx_hal_rcc_ex.c **** 
 662:./Drivers/STM32H7xx_HAL_Driver/Src/stm32h7xx_hal_rcc_ex.c ****     case RCC_FMCCLKSOURCE_PLL2: /* PLL2 is used as clock source for FMC*/
 663:./Drivers/STM32H7xx_HAL_Driver/Src/stm32h7xx_hal_rcc_ex.c **** 
 664:./Drivers/STM32H7xx_HAL_Driver/Src/stm32h7xx_hal_rcc_ex.c ****       ret = RCCEx_PLL2_Config(&(PeriphClkInit->PLL2),DIVIDER_R_UPDATE);
 947              		.loc 1 664 13
 948 05aa 7B68     		ldr	r3, [r7, #4]
 949 05ac 0433     		adds	r3, r3, #4
 950 05ae 0221     		movs	r1, #2
 951 05b0 1846     		mov	r0, r3
 952 05b2 FFF7FEFF 		bl	RCCEx_PLL2_Config
 953 05b6 0346     		mov	r3, r0
 954 05b8 FB75     		strb	r3, [r7, #23]
 665:./Drivers/STM32H7xx_HAL_Driver/Src/stm32h7xx_hal_rcc_ex.c **** 
 666:./Drivers/STM32H7xx_HAL_Driver/Src/stm32h7xx_hal_rcc_ex.c ****       /* FMC clock source configuration done later after clock selection check */
 667:./Drivers/STM32H7xx_HAL_Driver/Src/stm32h7xx_hal_rcc_ex.c ****       break;
 955              		.loc 1 667 7
 956 05ba 06E0     		b	.L106
 957              	.L100:
 668:./Drivers/STM32H7xx_HAL_Driver/Src/stm32h7xx_hal_rcc_ex.c **** 
 669:./Drivers/STM32H7xx_HAL_Driver/Src/stm32h7xx_hal_rcc_ex.c **** 
 670:./Drivers/STM32H7xx_HAL_Driver/Src/stm32h7xx_hal_rcc_ex.c ****     case RCC_FMCCLKSOURCE_CLKP:
 671:./Drivers/STM32H7xx_HAL_Driver/Src/stm32h7xx_hal_rcc_ex.c ****       /* HSI, HSE, or CSI oscillator is used as source of FMC clock */
 672:./Drivers/STM32H7xx_HAL_Driver/Src/stm32h7xx_hal_rcc_ex.c ****       /* FMC clock source configuration done later after clock selection check */
 673:./Drivers/STM32H7xx_HAL_Driver/Src/stm32h7xx_hal_rcc_ex.c ****       break;
 674:./Drivers/STM32H7xx_HAL_Driver/Src/stm32h7xx_hal_rcc_ex.c **** 
 675:./Drivers/STM32H7xx_HAL_Driver/Src/stm32h7xx_hal_rcc_ex.c ****     case RCC_FMCCLKSOURCE_D1HCLK:
 676:./Drivers/STM32H7xx_HAL_Driver/Src/stm32h7xx_hal_rcc_ex.c ****       /* Domain1 HCLK  clock selected as QSPI kernel peripheral clock */
ARM GAS  /tmp/cctM9lCy.s 			page 30


 677:./Drivers/STM32H7xx_HAL_Driver/Src/stm32h7xx_hal_rcc_ex.c ****       break;
 678:./Drivers/STM32H7xx_HAL_Driver/Src/stm32h7xx_hal_rcc_ex.c **** 
 679:./Drivers/STM32H7xx_HAL_Driver/Src/stm32h7xx_hal_rcc_ex.c ****     default:
 680:./Drivers/STM32H7xx_HAL_Driver/Src/stm32h7xx_hal_rcc_ex.c ****       ret = HAL_ERROR;
 958              		.loc 1 680 11
 959 05bc 0123     		movs	r3, #1
 960 05be FB75     		strb	r3, [r7, #23]
 681:./Drivers/STM32H7xx_HAL_Driver/Src/stm32h7xx_hal_rcc_ex.c ****       break;
 961              		.loc 1 681 7
 962 05c0 03E0     		b	.L106
 963              	.L275:
 964 05c2 00BF     		.align	2
 965              	.L274:
 966 05c4 00440258 		.word	1476543488
 967              	.L251:
 677:./Drivers/STM32H7xx_HAL_Driver/Src/stm32h7xx_hal_rcc_ex.c **** 
 968              		.loc 1 677 7
 969 05c8 00BF     		nop
 970              	.L106:
 682:./Drivers/STM32H7xx_HAL_Driver/Src/stm32h7xx_hal_rcc_ex.c ****     }
 683:./Drivers/STM32H7xx_HAL_Driver/Src/stm32h7xx_hal_rcc_ex.c **** 
 684:./Drivers/STM32H7xx_HAL_Driver/Src/stm32h7xx_hal_rcc_ex.c ****     if(ret == HAL_OK)
 971              		.loc 1 684 7
 972 05ca FB7D     		ldrb	r3, [r7, #23]	@ zero_extendqisi2
 973 05cc 002B     		cmp	r3, #0
 974 05ce 09D1     		bne	.L107
 685:./Drivers/STM32H7xx_HAL_Driver/Src/stm32h7xx_hal_rcc_ex.c ****     {
 686:./Drivers/STM32H7xx_HAL_Driver/Src/stm32h7xx_hal_rcc_ex.c ****       /* Set the source of FMC clock*/
 687:./Drivers/STM32H7xx_HAL_Driver/Src/stm32h7xx_hal_rcc_ex.c ****       __HAL_RCC_FMC_CONFIG(PeriphClkInit->FmcClockSelection);
 975              		.loc 1 687 7
 976 05d0 BA4B     		ldr	r3, .L276
 977 05d2 DB6C     		ldr	r3, [r3, #76]
 978 05d4 23F00302 		bic	r2, r3, #3
 979 05d8 7B68     		ldr	r3, [r7, #4]
 980 05da 5B6C     		ldr	r3, [r3, #68]
 981 05dc B749     		ldr	r1, .L276
 982 05de 1343     		orrs	r3, r3, r2
 983 05e0 CB64     		str	r3, [r1, #76]
 984 05e2 01E0     		b	.L99
 985              	.L107:
 688:./Drivers/STM32H7xx_HAL_Driver/Src/stm32h7xx_hal_rcc_ex.c ****     }
 689:./Drivers/STM32H7xx_HAL_Driver/Src/stm32h7xx_hal_rcc_ex.c ****     else
 690:./Drivers/STM32H7xx_HAL_Driver/Src/stm32h7xx_hal_rcc_ex.c ****     {
 691:./Drivers/STM32H7xx_HAL_Driver/Src/stm32h7xx_hal_rcc_ex.c ****       /* set overall return value */
 692:./Drivers/STM32H7xx_HAL_Driver/Src/stm32h7xx_hal_rcc_ex.c ****       status = ret;
 986              		.loc 1 692 14
 987 05e4 FB7D     		ldrb	r3, [r7, #23]
 988 05e6 BB75     		strb	r3, [r7, #22]
 989              	.L99:
 693:./Drivers/STM32H7xx_HAL_Driver/Src/stm32h7xx_hal_rcc_ex.c ****     }
 694:./Drivers/STM32H7xx_HAL_Driver/Src/stm32h7xx_hal_rcc_ex.c ****   }
 695:./Drivers/STM32H7xx_HAL_Driver/Src/stm32h7xx_hal_rcc_ex.c **** 
 696:./Drivers/STM32H7xx_HAL_Driver/Src/stm32h7xx_hal_rcc_ex.c ****   /*---------------------------- RTC configuration -------------------------------*/
 697:./Drivers/STM32H7xx_HAL_Driver/Src/stm32h7xx_hal_rcc_ex.c ****   if(((PeriphClkInit->PeriphClockSelection) & RCC_PERIPHCLK_RTC) == RCC_PERIPHCLK_RTC)
 990              		.loc 1 697 21
 991 05e8 7B68     		ldr	r3, [r7, #4]
 992 05ea 1B68     		ldr	r3, [r3]
ARM GAS  /tmp/cctM9lCy.s 			page 31


 993              		.loc 1 697 45
 994 05ec 03F48003 		and	r3, r3, #4194304
 995              		.loc 1 697 5
 996 05f0 002B     		cmp	r3, #0
 997 05f2 00F08680 		beq	.L108
 698:./Drivers/STM32H7xx_HAL_Driver/Src/stm32h7xx_hal_rcc_ex.c ****   {
 699:./Drivers/STM32H7xx_HAL_Driver/Src/stm32h7xx_hal_rcc_ex.c ****     /* check for RTC Parameters used to output RTCCLK */
 700:./Drivers/STM32H7xx_HAL_Driver/Src/stm32h7xx_hal_rcc_ex.c ****     assert_param(IS_RCC_RTCCLKSOURCE(PeriphClkInit->RTCClockSelection));
 701:./Drivers/STM32H7xx_HAL_Driver/Src/stm32h7xx_hal_rcc_ex.c **** 
 702:./Drivers/STM32H7xx_HAL_Driver/Src/stm32h7xx_hal_rcc_ex.c ****     /* Enable write access to Backup domain */
 703:./Drivers/STM32H7xx_HAL_Driver/Src/stm32h7xx_hal_rcc_ex.c ****     SET_BIT(PWR->CR1, PWR_CR1_DBP);
 998              		.loc 1 703 5
 999 05f6 B24B     		ldr	r3, .L276+4
 1000 05f8 1B68     		ldr	r3, [r3]
 1001 05fa B14A     		ldr	r2, .L276+4
 1002 05fc 43F48073 		orr	r3, r3, #256
 1003 0600 1360     		str	r3, [r2]
 704:./Drivers/STM32H7xx_HAL_Driver/Src/stm32h7xx_hal_rcc_ex.c **** 
 705:./Drivers/STM32H7xx_HAL_Driver/Src/stm32h7xx_hal_rcc_ex.c ****     /* Wait for Backup domain Write protection disable */
 706:./Drivers/STM32H7xx_HAL_Driver/Src/stm32h7xx_hal_rcc_ex.c ****     tickstart = HAL_GetTick();
 1004              		.loc 1 706 17
 1005 0602 FFF7FEFF 		bl	HAL_GetTick
 1006 0606 3861     		str	r0, [r7, #16]
 707:./Drivers/STM32H7xx_HAL_Driver/Src/stm32h7xx_hal_rcc_ex.c **** 
 708:./Drivers/STM32H7xx_HAL_Driver/Src/stm32h7xx_hal_rcc_ex.c ****     while((PWR->CR1 & PWR_CR1_DBP) == 0U)
 1007              		.loc 1 708 10
 1008 0608 09E0     		b	.L109
 1009              	.L111:
 709:./Drivers/STM32H7xx_HAL_Driver/Src/stm32h7xx_hal_rcc_ex.c ****     {
 710:./Drivers/STM32H7xx_HAL_Driver/Src/stm32h7xx_hal_rcc_ex.c ****       if((HAL_GetTick() - tickstart) > RCC_DBP_TIMEOUT_VALUE)
 1010              		.loc 1 710 11
 1011 060a FFF7FEFF 		bl	HAL_GetTick
 1012 060e 0246     		mov	r2, r0
 1013              		.loc 1 710 25
 1014 0610 3B69     		ldr	r3, [r7, #16]
 1015 0612 D31A     		subs	r3, r2, r3
 1016              		.loc 1 710 9
 1017 0614 642B     		cmp	r3, #100
 1018 0616 02D9     		bls	.L109
 711:./Drivers/STM32H7xx_HAL_Driver/Src/stm32h7xx_hal_rcc_ex.c ****       {
 712:./Drivers/STM32H7xx_HAL_Driver/Src/stm32h7xx_hal_rcc_ex.c ****         ret = HAL_TIMEOUT;
 1019              		.loc 1 712 13
 1020 0618 0323     		movs	r3, #3
 1021 061a FB75     		strb	r3, [r7, #23]
 713:./Drivers/STM32H7xx_HAL_Driver/Src/stm32h7xx_hal_rcc_ex.c ****         break;
 1022              		.loc 1 713 9
 1023 061c 05E0     		b	.L110
 1024              	.L109:
 708:./Drivers/STM32H7xx_HAL_Driver/Src/stm32h7xx_hal_rcc_ex.c ****     {
 1025              		.loc 1 708 15
 1026 061e A84B     		ldr	r3, .L276+4
 1027 0620 1B68     		ldr	r3, [r3]
 708:./Drivers/STM32H7xx_HAL_Driver/Src/stm32h7xx_hal_rcc_ex.c ****     {
 1028              		.loc 1 708 21
 1029 0622 03F48073 		and	r3, r3, #256
 708:./Drivers/STM32H7xx_HAL_Driver/Src/stm32h7xx_hal_rcc_ex.c ****     {
 1030              		.loc 1 708 10
ARM GAS  /tmp/cctM9lCy.s 			page 32


 1031 0626 002B     		cmp	r3, #0
 1032 0628 EFD0     		beq	.L111
 1033              	.L110:
 714:./Drivers/STM32H7xx_HAL_Driver/Src/stm32h7xx_hal_rcc_ex.c ****       }
 715:./Drivers/STM32H7xx_HAL_Driver/Src/stm32h7xx_hal_rcc_ex.c ****     }
 716:./Drivers/STM32H7xx_HAL_Driver/Src/stm32h7xx_hal_rcc_ex.c **** 
 717:./Drivers/STM32H7xx_HAL_Driver/Src/stm32h7xx_hal_rcc_ex.c ****     if(ret == HAL_OK)
 1034              		.loc 1 717 7
 1035 062a FB7D     		ldrb	r3, [r7, #23]	@ zero_extendqisi2
 1036 062c 002B     		cmp	r3, #0
 1037 062e 66D1     		bne	.L112
 718:./Drivers/STM32H7xx_HAL_Driver/Src/stm32h7xx_hal_rcc_ex.c ****     {
 719:./Drivers/STM32H7xx_HAL_Driver/Src/stm32h7xx_hal_rcc_ex.c ****       /* Reset the Backup domain only if the RTC Clock source selection is modified */
 720:./Drivers/STM32H7xx_HAL_Driver/Src/stm32h7xx_hal_rcc_ex.c ****       if((RCC->BDCR & RCC_BDCR_RTCSEL) != (PeriphClkInit->RTCClockSelection & RCC_BDCR_RTCSEL))
 1038              		.loc 1 720 14
 1039 0630 A24B     		ldr	r3, .L276
 1040 0632 1A6F     		ldr	r2, [r3, #112]
 1041              		.loc 1 720 57
 1042 0634 7B68     		ldr	r3, [r7, #4]
 1043 0636 D3F8B030 		ldr	r3, [r3, #176]
 1044              		.loc 1 720 40
 1045 063a 5340     		eors	r3, r3, r2
 1046 063c 03F44073 		and	r3, r3, #768
 1047              		.loc 1 720 9
 1048 0640 002B     		cmp	r3, #0
 1049 0642 13D0     		beq	.L113
 721:./Drivers/STM32H7xx_HAL_Driver/Src/stm32h7xx_hal_rcc_ex.c ****       {
 722:./Drivers/STM32H7xx_HAL_Driver/Src/stm32h7xx_hal_rcc_ex.c ****         /* Store the content of BDCR register before the reset of Backup Domain */
 723:./Drivers/STM32H7xx_HAL_Driver/Src/stm32h7xx_hal_rcc_ex.c ****         tmpreg = (RCC->BDCR & ~(RCC_BDCR_RTCSEL));
 1050              		.loc 1 723 22
 1051 0644 9D4B     		ldr	r3, .L276
 1052 0646 1B6F     		ldr	r3, [r3, #112]
 1053              		.loc 1 723 16
 1054 0648 23F44073 		bic	r3, r3, #768
 1055 064c FB60     		str	r3, [r7, #12]
 724:./Drivers/STM32H7xx_HAL_Driver/Src/stm32h7xx_hal_rcc_ex.c ****         /* RTC Clock selection can be changed only if the Backup Domain is reset */
 725:./Drivers/STM32H7xx_HAL_Driver/Src/stm32h7xx_hal_rcc_ex.c ****         __HAL_RCC_BACKUPRESET_FORCE();
 1056              		.loc 1 725 9
 1057 064e 9B4B     		ldr	r3, .L276
 1058 0650 1B6F     		ldr	r3, [r3, #112]
 1059 0652 9A4A     		ldr	r2, .L276
 1060 0654 43F48033 		orr	r3, r3, #65536
 1061 0658 1367     		str	r3, [r2, #112]
 726:./Drivers/STM32H7xx_HAL_Driver/Src/stm32h7xx_hal_rcc_ex.c ****         __HAL_RCC_BACKUPRESET_RELEASE();
 1062              		.loc 1 726 9
 1063 065a 984B     		ldr	r3, .L276
 1064 065c 1B6F     		ldr	r3, [r3, #112]
 1065 065e 974A     		ldr	r2, .L276
 1066 0660 23F48033 		bic	r3, r3, #65536
 1067 0664 1367     		str	r3, [r2, #112]
 727:./Drivers/STM32H7xx_HAL_Driver/Src/stm32h7xx_hal_rcc_ex.c ****         /* Restore the Content of BDCR register */
 728:./Drivers/STM32H7xx_HAL_Driver/Src/stm32h7xx_hal_rcc_ex.c ****         RCC->BDCR = tmpreg;
 1068              		.loc 1 728 12
 1069 0666 954A     		ldr	r2, .L276
 1070              		.loc 1 728 19
 1071 0668 FB68     		ldr	r3, [r7, #12]
 1072 066a 1367     		str	r3, [r2, #112]
ARM GAS  /tmp/cctM9lCy.s 			page 33


 1073              	.L113:
 729:./Drivers/STM32H7xx_HAL_Driver/Src/stm32h7xx_hal_rcc_ex.c ****       }
 730:./Drivers/STM32H7xx_HAL_Driver/Src/stm32h7xx_hal_rcc_ex.c **** 
 731:./Drivers/STM32H7xx_HAL_Driver/Src/stm32h7xx_hal_rcc_ex.c ****       /* If LSE is selected as RTC clock source, wait for LSE reactivation */
 732:./Drivers/STM32H7xx_HAL_Driver/Src/stm32h7xx_hal_rcc_ex.c ****       if(PeriphClkInit->RTCClockSelection == RCC_RTCCLKSOURCE_LSE)
 1074              		.loc 1 732 23
 1075 066c 7B68     		ldr	r3, [r7, #4]
 1076 066e D3F8B030 		ldr	r3, [r3, #176]
 1077              		.loc 1 732 9
 1078 0672 B3F5807F 		cmp	r3, #256
 1079 0676 15D1     		bne	.L114
 733:./Drivers/STM32H7xx_HAL_Driver/Src/stm32h7xx_hal_rcc_ex.c ****       {
 734:./Drivers/STM32H7xx_HAL_Driver/Src/stm32h7xx_hal_rcc_ex.c ****         /* Get Start Tick*/
 735:./Drivers/STM32H7xx_HAL_Driver/Src/stm32h7xx_hal_rcc_ex.c ****         tickstart = HAL_GetTick();
 1080              		.loc 1 735 21
 1081 0678 FFF7FEFF 		bl	HAL_GetTick
 1082 067c 3861     		str	r0, [r7, #16]
 736:./Drivers/STM32H7xx_HAL_Driver/Src/stm32h7xx_hal_rcc_ex.c **** 
 737:./Drivers/STM32H7xx_HAL_Driver/Src/stm32h7xx_hal_rcc_ex.c ****         /* Wait till LSE is ready */
 738:./Drivers/STM32H7xx_HAL_Driver/Src/stm32h7xx_hal_rcc_ex.c ****         while(__HAL_RCC_GET_FLAG(RCC_FLAG_LSERDY) == 0U)
 1083              		.loc 1 738 14
 1084 067e 0BE0     		b	.L115
 1085              	.L116:
 739:./Drivers/STM32H7xx_HAL_Driver/Src/stm32h7xx_hal_rcc_ex.c ****         {
 740:./Drivers/STM32H7xx_HAL_Driver/Src/stm32h7xx_hal_rcc_ex.c ****           if((HAL_GetTick() - tickstart) > RCC_LSE_TIMEOUT_VALUE)
 1086              		.loc 1 740 15
 1087 0680 FFF7FEFF 		bl	HAL_GetTick
 1088 0684 0246     		mov	r2, r0
 1089              		.loc 1 740 29
 1090 0686 3B69     		ldr	r3, [r7, #16]
 1091 0688 D31A     		subs	r3, r2, r3
 1092              		.loc 1 740 13
 1093 068a 41F28832 		movw	r2, #5000
 1094 068e 9342     		cmp	r3, r2
 1095 0690 02D9     		bls	.L115
 741:./Drivers/STM32H7xx_HAL_Driver/Src/stm32h7xx_hal_rcc_ex.c ****           {
 742:./Drivers/STM32H7xx_HAL_Driver/Src/stm32h7xx_hal_rcc_ex.c ****             ret = HAL_TIMEOUT;
 1096              		.loc 1 742 17
 1097 0692 0323     		movs	r3, #3
 1098 0694 FB75     		strb	r3, [r7, #23]
 743:./Drivers/STM32H7xx_HAL_Driver/Src/stm32h7xx_hal_rcc_ex.c ****             break;
 1099              		.loc 1 743 13
 1100 0696 05E0     		b	.L114
 1101              	.L115:
 738:./Drivers/STM32H7xx_HAL_Driver/Src/stm32h7xx_hal_rcc_ex.c ****         {
 1102              		.loc 1 738 15
 1103 0698 884B     		ldr	r3, .L276
 1104 069a 1B6F     		ldr	r3, [r3, #112]
 1105 069c 03F00203 		and	r3, r3, #2
 738:./Drivers/STM32H7xx_HAL_Driver/Src/stm32h7xx_hal_rcc_ex.c ****         {
 1106              		.loc 1 738 14
 1107 06a0 002B     		cmp	r3, #0
 1108 06a2 EDD0     		beq	.L116
 1109              	.L114:
 744:./Drivers/STM32H7xx_HAL_Driver/Src/stm32h7xx_hal_rcc_ex.c ****           }
 745:./Drivers/STM32H7xx_HAL_Driver/Src/stm32h7xx_hal_rcc_ex.c ****         }
 746:./Drivers/STM32H7xx_HAL_Driver/Src/stm32h7xx_hal_rcc_ex.c ****       }
ARM GAS  /tmp/cctM9lCy.s 			page 34


 747:./Drivers/STM32H7xx_HAL_Driver/Src/stm32h7xx_hal_rcc_ex.c **** 
 748:./Drivers/STM32H7xx_HAL_Driver/Src/stm32h7xx_hal_rcc_ex.c ****       if(ret == HAL_OK)
 1110              		.loc 1 748 9
 1111 06a4 FB7D     		ldrb	r3, [r7, #23]	@ zero_extendqisi2
 1112 06a6 002B     		cmp	r3, #0
 1113 06a8 26D1     		bne	.L117
 749:./Drivers/STM32H7xx_HAL_Driver/Src/stm32h7xx_hal_rcc_ex.c ****       {
 750:./Drivers/STM32H7xx_HAL_Driver/Src/stm32h7xx_hal_rcc_ex.c ****         __HAL_RCC_RTC_CONFIG(PeriphClkInit->RTCClockSelection);
 1114              		.loc 1 750 9
 1115 06aa 7B68     		ldr	r3, [r7, #4]
 1116 06ac D3F8B030 		ldr	r3, [r3, #176]
 1117 06b0 03F44073 		and	r3, r3, #768
 1118 06b4 B3F5407F 		cmp	r3, #768
 1119 06b8 0DD1     		bne	.L118
 1120              		.loc 1 750 9 is_stmt 0 discriminator 1
 1121 06ba 804B     		ldr	r3, .L276
 1122 06bc 1B69     		ldr	r3, [r3, #16]
 1123 06be 23F47C52 		bic	r2, r3, #16128
 1124 06c2 7B68     		ldr	r3, [r7, #4]
 1125 06c4 D3F8B030 		ldr	r3, [r3, #176]
 1126 06c8 1909     		lsrs	r1, r3, #4
 1127 06ca 7E4B     		ldr	r3, .L276+8
 1128 06cc 0B40     		ands	r3, r3, r1
 1129 06ce 7B49     		ldr	r1, .L276
 1130 06d0 1343     		orrs	r3, r3, r2
 1131 06d2 0B61     		str	r3, [r1, #16]
 1132 06d4 05E0     		b	.L119
 1133              	.L118:
 1134              		.loc 1 750 9 discriminator 2
 1135 06d6 794B     		ldr	r3, .L276
 1136 06d8 1B69     		ldr	r3, [r3, #16]
 1137 06da 784A     		ldr	r2, .L276
 1138 06dc 23F47C53 		bic	r3, r3, #16128
 1139 06e0 1361     		str	r3, [r2, #16]
 1140              	.L119:
 1141              		.loc 1 750 9 discriminator 4
 1142 06e2 764B     		ldr	r3, .L276
 1143 06e4 1A6F     		ldr	r2, [r3, #112]
 1144 06e6 7B68     		ldr	r3, [r7, #4]
 1145 06e8 D3F8B030 		ldr	r3, [r3, #176]
 1146 06ec C3F30B03 		ubfx	r3, r3, #0, #12
 1147 06f0 7249     		ldr	r1, .L276
 1148 06f2 1343     		orrs	r3, r3, r2
 1149 06f4 0B67     		str	r3, [r1, #112]
 1150 06f6 04E0     		b	.L108
 1151              	.L117:
 751:./Drivers/STM32H7xx_HAL_Driver/Src/stm32h7xx_hal_rcc_ex.c ****       }
 752:./Drivers/STM32H7xx_HAL_Driver/Src/stm32h7xx_hal_rcc_ex.c ****       else
 753:./Drivers/STM32H7xx_HAL_Driver/Src/stm32h7xx_hal_rcc_ex.c ****       {
 754:./Drivers/STM32H7xx_HAL_Driver/Src/stm32h7xx_hal_rcc_ex.c ****         /* set overall return value */
 755:./Drivers/STM32H7xx_HAL_Driver/Src/stm32h7xx_hal_rcc_ex.c ****         status = ret;
 1152              		.loc 1 755 16 is_stmt 1
 1153 06f8 FB7D     		ldrb	r3, [r7, #23]
 1154 06fa BB75     		strb	r3, [r7, #22]
 1155 06fc 01E0     		b	.L108
 1156              	.L112:
 756:./Drivers/STM32H7xx_HAL_Driver/Src/stm32h7xx_hal_rcc_ex.c ****       }
ARM GAS  /tmp/cctM9lCy.s 			page 35


 757:./Drivers/STM32H7xx_HAL_Driver/Src/stm32h7xx_hal_rcc_ex.c ****     }
 758:./Drivers/STM32H7xx_HAL_Driver/Src/stm32h7xx_hal_rcc_ex.c ****     else
 759:./Drivers/STM32H7xx_HAL_Driver/Src/stm32h7xx_hal_rcc_ex.c ****     {
 760:./Drivers/STM32H7xx_HAL_Driver/Src/stm32h7xx_hal_rcc_ex.c ****       /* set overall return value */
 761:./Drivers/STM32H7xx_HAL_Driver/Src/stm32h7xx_hal_rcc_ex.c ****       status = ret;
 1157              		.loc 1 761 14
 1158 06fe FB7D     		ldrb	r3, [r7, #23]
 1159 0700 BB75     		strb	r3, [r7, #22]
 1160              	.L108:
 762:./Drivers/STM32H7xx_HAL_Driver/Src/stm32h7xx_hal_rcc_ex.c ****     }
 763:./Drivers/STM32H7xx_HAL_Driver/Src/stm32h7xx_hal_rcc_ex.c ****   }
 764:./Drivers/STM32H7xx_HAL_Driver/Src/stm32h7xx_hal_rcc_ex.c **** 
 765:./Drivers/STM32H7xx_HAL_Driver/Src/stm32h7xx_hal_rcc_ex.c **** 
 766:./Drivers/STM32H7xx_HAL_Driver/Src/stm32h7xx_hal_rcc_ex.c ****   /*-------------------------- USART1/6 configuration --------------------------*/
 767:./Drivers/STM32H7xx_HAL_Driver/Src/stm32h7xx_hal_rcc_ex.c ****   if(((PeriphClkInit->PeriphClockSelection) & RCC_PERIPHCLK_USART16) == RCC_PERIPHCLK_USART16)
 1161              		.loc 1 767 21
 1162 0702 7B68     		ldr	r3, [r7, #4]
 1163 0704 1B68     		ldr	r3, [r3]
 1164              		.loc 1 767 45
 1165 0706 03F00103 		and	r3, r3, #1
 1166              		.loc 1 767 5
 1167 070a 002B     		cmp	r3, #0
 1168 070c 7DD0     		beq	.L121
 768:./Drivers/STM32H7xx_HAL_Driver/Src/stm32h7xx_hal_rcc_ex.c ****   {
 769:./Drivers/STM32H7xx_HAL_Driver/Src/stm32h7xx_hal_rcc_ex.c ****     switch(PeriphClkInit->Usart16ClockSelection)
 1169              		.loc 1 769 25
 1170 070e 7B68     		ldr	r3, [r7, #4]
 1171 0710 9B6F     		ldr	r3, [r3, #120]
 1172              		.loc 1 769 5
 1173 0712 282B     		cmp	r3, #40
 1174 0714 66D8     		bhi	.L122
 1175 0716 01A2     		adr	r2, .L124
 1176 0718 52F823F0 		ldr	pc, [r2, r3, lsl #2]
 1177              		.p2align 2
 1178              	.L124:
 1179 071c EB070000 		.word	.L252+1
 1180 0720 E5070000 		.word	.L122+1
 1181 0724 E5070000 		.word	.L122+1
 1182 0728 E5070000 		.word	.L122+1
 1183 072c E5070000 		.word	.L122+1
 1184 0730 E5070000 		.word	.L122+1
 1185 0734 E5070000 		.word	.L122+1
 1186 0738 E5070000 		.word	.L122+1
 1187 073c C1070000 		.word	.L128+1
 1188 0740 E5070000 		.word	.L122+1
 1189 0744 E5070000 		.word	.L122+1
 1190 0748 E5070000 		.word	.L122+1
 1191 074c E5070000 		.word	.L122+1
 1192 0750 E5070000 		.word	.L122+1
 1193 0754 E5070000 		.word	.L122+1
 1194 0758 E5070000 		.word	.L122+1
 1195 075c D3070000 		.word	.L127+1
 1196 0760 E5070000 		.word	.L122+1
 1197 0764 E5070000 		.word	.L122+1
 1198 0768 E5070000 		.word	.L122+1
 1199 076c E5070000 		.word	.L122+1
 1200 0770 E5070000 		.word	.L122+1
ARM GAS  /tmp/cctM9lCy.s 			page 36


 1201 0774 E5070000 		.word	.L122+1
 1202 0778 E5070000 		.word	.L122+1
 1203 077c EB070000 		.word	.L252+1
 1204 0780 E5070000 		.word	.L122+1
 1205 0784 E5070000 		.word	.L122+1
 1206 0788 E5070000 		.word	.L122+1
 1207 078c E5070000 		.word	.L122+1
 1208 0790 E5070000 		.word	.L122+1
 1209 0794 E5070000 		.word	.L122+1
 1210 0798 E5070000 		.word	.L122+1
 1211 079c EB070000 		.word	.L252+1
 1212 07a0 E5070000 		.word	.L122+1
 1213 07a4 E5070000 		.word	.L122+1
 1214 07a8 E5070000 		.word	.L122+1
 1215 07ac E5070000 		.word	.L122+1
 1216 07b0 E5070000 		.word	.L122+1
 1217 07b4 E5070000 		.word	.L122+1
 1218 07b8 E5070000 		.word	.L122+1
 1219 07bc EB070000 		.word	.L252+1
 1220              		.p2align 1
 1221              	.L128:
 770:./Drivers/STM32H7xx_HAL_Driver/Src/stm32h7xx_hal_rcc_ex.c ****     {
 771:./Drivers/STM32H7xx_HAL_Driver/Src/stm32h7xx_hal_rcc_ex.c ****     case RCC_USART16CLKSOURCE_D2PCLK2: /* D2PCLK2 as clock source for USART1/6 */
 772:./Drivers/STM32H7xx_HAL_Driver/Src/stm32h7xx_hal_rcc_ex.c ****       /* USART1/6 clock source configuration done later after clock selection check */
 773:./Drivers/STM32H7xx_HAL_Driver/Src/stm32h7xx_hal_rcc_ex.c ****       break;
 774:./Drivers/STM32H7xx_HAL_Driver/Src/stm32h7xx_hal_rcc_ex.c **** 
 775:./Drivers/STM32H7xx_HAL_Driver/Src/stm32h7xx_hal_rcc_ex.c ****     case RCC_USART16CLKSOURCE_PLL2: /* PLL2 is used as clock source for USART1/6 */
 776:./Drivers/STM32H7xx_HAL_Driver/Src/stm32h7xx_hal_rcc_ex.c ****       ret = RCCEx_PLL2_Config(&(PeriphClkInit->PLL2),DIVIDER_Q_UPDATE);
 1222              		.loc 1 776 13
 1223 07c0 7B68     		ldr	r3, [r7, #4]
 1224 07c2 0433     		adds	r3, r3, #4
 1225 07c4 0121     		movs	r1, #1
 1226 07c6 1846     		mov	r0, r3
 1227 07c8 FFF7FEFF 		bl	RCCEx_PLL2_Config
 1228 07cc 0346     		mov	r3, r0
 1229 07ce FB75     		strb	r3, [r7, #23]
 777:./Drivers/STM32H7xx_HAL_Driver/Src/stm32h7xx_hal_rcc_ex.c ****       /* USART1/6 clock source configuration done later after clock selection check */
 778:./Drivers/STM32H7xx_HAL_Driver/Src/stm32h7xx_hal_rcc_ex.c ****       break;
 1230              		.loc 1 778 7
 1231 07d0 0CE0     		b	.L130
 1232              	.L127:
 779:./Drivers/STM32H7xx_HAL_Driver/Src/stm32h7xx_hal_rcc_ex.c **** 
 780:./Drivers/STM32H7xx_HAL_Driver/Src/stm32h7xx_hal_rcc_ex.c ****     case RCC_USART16CLKSOURCE_PLL3: /* PLL3 is used as clock source for USART1/6 */
 781:./Drivers/STM32H7xx_HAL_Driver/Src/stm32h7xx_hal_rcc_ex.c ****       ret = RCCEx_PLL3_Config(&(PeriphClkInit->PLL3),DIVIDER_Q_UPDATE);
 1233              		.loc 1 781 13
 1234 07d2 7B68     		ldr	r3, [r7, #4]
 1235 07d4 2433     		adds	r3, r3, #36
 1236 07d6 0121     		movs	r1, #1
 1237 07d8 1846     		mov	r0, r3
 1238 07da FFF7FEFF 		bl	RCCEx_PLL3_Config
 1239 07de 0346     		mov	r3, r0
 1240 07e0 FB75     		strb	r3, [r7, #23]
 782:./Drivers/STM32H7xx_HAL_Driver/Src/stm32h7xx_hal_rcc_ex.c ****       /* USART1/6 clock source configuration done later after clock selection check */
 783:./Drivers/STM32H7xx_HAL_Driver/Src/stm32h7xx_hal_rcc_ex.c ****       break;
 1241              		.loc 1 783 7
 1242 07e2 03E0     		b	.L130
 1243              	.L122:
ARM GAS  /tmp/cctM9lCy.s 			page 37


 784:./Drivers/STM32H7xx_HAL_Driver/Src/stm32h7xx_hal_rcc_ex.c **** 
 785:./Drivers/STM32H7xx_HAL_Driver/Src/stm32h7xx_hal_rcc_ex.c ****     case RCC_USART16CLKSOURCE_HSI:
 786:./Drivers/STM32H7xx_HAL_Driver/Src/stm32h7xx_hal_rcc_ex.c ****       /* HSI oscillator clock is used as source of USART1/6 clock */
 787:./Drivers/STM32H7xx_HAL_Driver/Src/stm32h7xx_hal_rcc_ex.c ****       /* USART1/6 clock source configuration done later after clock selection check */
 788:./Drivers/STM32H7xx_HAL_Driver/Src/stm32h7xx_hal_rcc_ex.c ****       break;
 789:./Drivers/STM32H7xx_HAL_Driver/Src/stm32h7xx_hal_rcc_ex.c **** 
 790:./Drivers/STM32H7xx_HAL_Driver/Src/stm32h7xx_hal_rcc_ex.c ****     case RCC_USART16CLKSOURCE_CSI:
 791:./Drivers/STM32H7xx_HAL_Driver/Src/stm32h7xx_hal_rcc_ex.c ****       /* CSI oscillator clock is used as source of USART1/6 clock */
 792:./Drivers/STM32H7xx_HAL_Driver/Src/stm32h7xx_hal_rcc_ex.c ****       /* USART1/6 clock source configuration done later after clock selection check */
 793:./Drivers/STM32H7xx_HAL_Driver/Src/stm32h7xx_hal_rcc_ex.c ****       break;
 794:./Drivers/STM32H7xx_HAL_Driver/Src/stm32h7xx_hal_rcc_ex.c **** 
 795:./Drivers/STM32H7xx_HAL_Driver/Src/stm32h7xx_hal_rcc_ex.c ****     case RCC_USART16CLKSOURCE_LSE:
 796:./Drivers/STM32H7xx_HAL_Driver/Src/stm32h7xx_hal_rcc_ex.c ****       /* LSE,  oscillator is used as source of USART1/6 clock */
 797:./Drivers/STM32H7xx_HAL_Driver/Src/stm32h7xx_hal_rcc_ex.c ****       /* USART1/6 clock source configuration done later after clock selection check */
 798:./Drivers/STM32H7xx_HAL_Driver/Src/stm32h7xx_hal_rcc_ex.c ****       break;
 799:./Drivers/STM32H7xx_HAL_Driver/Src/stm32h7xx_hal_rcc_ex.c **** 
 800:./Drivers/STM32H7xx_HAL_Driver/Src/stm32h7xx_hal_rcc_ex.c ****     default:
 801:./Drivers/STM32H7xx_HAL_Driver/Src/stm32h7xx_hal_rcc_ex.c ****       ret = HAL_ERROR;
 1244              		.loc 1 801 11
 1245 07e4 0123     		movs	r3, #1
 1246 07e6 FB75     		strb	r3, [r7, #23]
 802:./Drivers/STM32H7xx_HAL_Driver/Src/stm32h7xx_hal_rcc_ex.c ****       break;
 1247              		.loc 1 802 7
 1248 07e8 00E0     		b	.L130
 1249              	.L252:
 773:./Drivers/STM32H7xx_HAL_Driver/Src/stm32h7xx_hal_rcc_ex.c **** 
 1250              		.loc 1 773 7
 1251 07ea 00BF     		nop
 1252              	.L130:
 803:./Drivers/STM32H7xx_HAL_Driver/Src/stm32h7xx_hal_rcc_ex.c ****     }
 804:./Drivers/STM32H7xx_HAL_Driver/Src/stm32h7xx_hal_rcc_ex.c **** 
 805:./Drivers/STM32H7xx_HAL_Driver/Src/stm32h7xx_hal_rcc_ex.c ****     if(ret == HAL_OK)
 1253              		.loc 1 805 7
 1254 07ec FB7D     		ldrb	r3, [r7, #23]	@ zero_extendqisi2
 1255 07ee 002B     		cmp	r3, #0
 1256 07f0 09D1     		bne	.L131
 806:./Drivers/STM32H7xx_HAL_Driver/Src/stm32h7xx_hal_rcc_ex.c ****     {
 807:./Drivers/STM32H7xx_HAL_Driver/Src/stm32h7xx_hal_rcc_ex.c ****       /* Set the source of USART1/6 clock */
 808:./Drivers/STM32H7xx_HAL_Driver/Src/stm32h7xx_hal_rcc_ex.c ****       __HAL_RCC_USART16_CONFIG(PeriphClkInit->Usart16ClockSelection);
 1257              		.loc 1 808 7
 1258 07f2 324B     		ldr	r3, .L276
 1259 07f4 5B6D     		ldr	r3, [r3, #84]
 1260 07f6 23F03802 		bic	r2, r3, #56
 1261 07fa 7B68     		ldr	r3, [r7, #4]
 1262 07fc 9B6F     		ldr	r3, [r3, #120]
 1263 07fe 2F49     		ldr	r1, .L276
 1264 0800 1343     		orrs	r3, r3, r2
 1265 0802 4B65     		str	r3, [r1, #84]
 1266 0804 01E0     		b	.L121
 1267              	.L131:
 809:./Drivers/STM32H7xx_HAL_Driver/Src/stm32h7xx_hal_rcc_ex.c ****     }
 810:./Drivers/STM32H7xx_HAL_Driver/Src/stm32h7xx_hal_rcc_ex.c ****     else
 811:./Drivers/STM32H7xx_HAL_Driver/Src/stm32h7xx_hal_rcc_ex.c ****     {
 812:./Drivers/STM32H7xx_HAL_Driver/Src/stm32h7xx_hal_rcc_ex.c ****       /* set overall return value */
 813:./Drivers/STM32H7xx_HAL_Driver/Src/stm32h7xx_hal_rcc_ex.c ****       status = ret;
 1268              		.loc 1 813 14
 1269 0806 FB7D     		ldrb	r3, [r7, #23]
ARM GAS  /tmp/cctM9lCy.s 			page 38


 1270 0808 BB75     		strb	r3, [r7, #22]
 1271              	.L121:
 814:./Drivers/STM32H7xx_HAL_Driver/Src/stm32h7xx_hal_rcc_ex.c ****     }
 815:./Drivers/STM32H7xx_HAL_Driver/Src/stm32h7xx_hal_rcc_ex.c ****   }
 816:./Drivers/STM32H7xx_HAL_Driver/Src/stm32h7xx_hal_rcc_ex.c **** 
 817:./Drivers/STM32H7xx_HAL_Driver/Src/stm32h7xx_hal_rcc_ex.c ****   /*-------------------------- USART2/3/4/5/7/8 Configuration --------------------------*/
 818:./Drivers/STM32H7xx_HAL_Driver/Src/stm32h7xx_hal_rcc_ex.c ****   if(((PeriphClkInit->PeriphClockSelection) & RCC_PERIPHCLK_USART234578) == RCC_PERIPHCLK_USART2345
 1272              		.loc 1 818 21
 1273 080a 7B68     		ldr	r3, [r7, #4]
 1274 080c 1B68     		ldr	r3, [r3]
 1275              		.loc 1 818 45
 1276 080e 03F00203 		and	r3, r3, #2
 1277              		.loc 1 818 5
 1278 0812 002B     		cmp	r3, #0
 1279 0814 37D0     		beq	.L132
 819:./Drivers/STM32H7xx_HAL_Driver/Src/stm32h7xx_hal_rcc_ex.c ****   {
 820:./Drivers/STM32H7xx_HAL_Driver/Src/stm32h7xx_hal_rcc_ex.c ****     switch(PeriphClkInit->Usart234578ClockSelection)
 1280              		.loc 1 820 25
 1281 0816 7B68     		ldr	r3, [r7, #4]
 1282 0818 5B6F     		ldr	r3, [r3, #116]
 1283              		.loc 1 820 5
 1284 081a 052B     		cmp	r3, #5
 1285 081c 20D8     		bhi	.L133
 1286 081e 01A2     		adr	r2, .L135
 1287 0820 52F823F0 		ldr	pc, [r2, r3, lsl #2]
 1288              		.p2align 2
 1289              	.L135:
 1290 0824 67080000 		.word	.L253+1
 1291 0828 3D080000 		.word	.L139+1
 1292 082c 4F080000 		.word	.L138+1
 1293 0830 67080000 		.word	.L253+1
 1294 0834 67080000 		.word	.L253+1
 1295 0838 67080000 		.word	.L253+1
 1296              		.p2align 1
 1297              	.L139:
 821:./Drivers/STM32H7xx_HAL_Driver/Src/stm32h7xx_hal_rcc_ex.c ****     {
 822:./Drivers/STM32H7xx_HAL_Driver/Src/stm32h7xx_hal_rcc_ex.c ****     case RCC_USART234578CLKSOURCE_D2PCLK1: /* D2PCLK1 as clock source for USART2/3/4/5/7/8 */
 823:./Drivers/STM32H7xx_HAL_Driver/Src/stm32h7xx_hal_rcc_ex.c ****       /* USART2/3/4/5/7/8 clock source configuration done later after clock selection check */
 824:./Drivers/STM32H7xx_HAL_Driver/Src/stm32h7xx_hal_rcc_ex.c ****       break;
 825:./Drivers/STM32H7xx_HAL_Driver/Src/stm32h7xx_hal_rcc_ex.c **** 
 826:./Drivers/STM32H7xx_HAL_Driver/Src/stm32h7xx_hal_rcc_ex.c ****     case RCC_USART234578CLKSOURCE_PLL2: /* PLL2 is used as clock source for USART2/3/4/5/7/8 */
 827:./Drivers/STM32H7xx_HAL_Driver/Src/stm32h7xx_hal_rcc_ex.c ****       ret = RCCEx_PLL2_Config(&(PeriphClkInit->PLL2),DIVIDER_Q_UPDATE);
 1298              		.loc 1 827 13
 1299 083c 7B68     		ldr	r3, [r7, #4]
 1300 083e 0433     		adds	r3, r3, #4
 1301 0840 0121     		movs	r1, #1
 1302 0842 1846     		mov	r0, r3
 1303 0844 FFF7FEFF 		bl	RCCEx_PLL2_Config
 1304 0848 0346     		mov	r3, r0
 1305 084a FB75     		strb	r3, [r7, #23]
 828:./Drivers/STM32H7xx_HAL_Driver/Src/stm32h7xx_hal_rcc_ex.c ****       /* USART2/3/4/5/7/8 clock source configuration done later after clock selection check */
 829:./Drivers/STM32H7xx_HAL_Driver/Src/stm32h7xx_hal_rcc_ex.c ****       break;
 1306              		.loc 1 829 7
 1307 084c 0CE0     		b	.L141
 1308              	.L138:
 830:./Drivers/STM32H7xx_HAL_Driver/Src/stm32h7xx_hal_rcc_ex.c **** 
 831:./Drivers/STM32H7xx_HAL_Driver/Src/stm32h7xx_hal_rcc_ex.c ****     case RCC_USART234578CLKSOURCE_PLL3: /* PLL3 is used as clock source for USART2/3/4/5/7/8 */
ARM GAS  /tmp/cctM9lCy.s 			page 39


 832:./Drivers/STM32H7xx_HAL_Driver/Src/stm32h7xx_hal_rcc_ex.c ****       ret = RCCEx_PLL3_Config(&(PeriphClkInit->PLL3),DIVIDER_Q_UPDATE);
 1309              		.loc 1 832 13
 1310 084e 7B68     		ldr	r3, [r7, #4]
 1311 0850 2433     		adds	r3, r3, #36
 1312 0852 0121     		movs	r1, #1
 1313 0854 1846     		mov	r0, r3
 1314 0856 FFF7FEFF 		bl	RCCEx_PLL3_Config
 1315 085a 0346     		mov	r3, r0
 1316 085c FB75     		strb	r3, [r7, #23]
 833:./Drivers/STM32H7xx_HAL_Driver/Src/stm32h7xx_hal_rcc_ex.c ****       /* USART2/3/4/5/7/8 clock source configuration done later after clock selection check */
 834:./Drivers/STM32H7xx_HAL_Driver/Src/stm32h7xx_hal_rcc_ex.c ****       break;
 1317              		.loc 1 834 7
 1318 085e 03E0     		b	.L141
 1319              	.L133:
 835:./Drivers/STM32H7xx_HAL_Driver/Src/stm32h7xx_hal_rcc_ex.c **** 
 836:./Drivers/STM32H7xx_HAL_Driver/Src/stm32h7xx_hal_rcc_ex.c ****     case RCC_USART234578CLKSOURCE_HSI:
 837:./Drivers/STM32H7xx_HAL_Driver/Src/stm32h7xx_hal_rcc_ex.c ****       /* HSI oscillator clock is used as source of USART2/3/4/5/7/8 clock */
 838:./Drivers/STM32H7xx_HAL_Driver/Src/stm32h7xx_hal_rcc_ex.c ****       /* USART2/3/4/5/7/8 clock source configuration done later after clock selection check */
 839:./Drivers/STM32H7xx_HAL_Driver/Src/stm32h7xx_hal_rcc_ex.c ****       break;
 840:./Drivers/STM32H7xx_HAL_Driver/Src/stm32h7xx_hal_rcc_ex.c **** 
 841:./Drivers/STM32H7xx_HAL_Driver/Src/stm32h7xx_hal_rcc_ex.c ****     case RCC_USART234578CLKSOURCE_CSI:
 842:./Drivers/STM32H7xx_HAL_Driver/Src/stm32h7xx_hal_rcc_ex.c ****       /* CSI oscillator clock is used as source of USART2/3/4/5/7/8 clock */
 843:./Drivers/STM32H7xx_HAL_Driver/Src/stm32h7xx_hal_rcc_ex.c ****       /* USART2/3/4/5/7/8 clock source configuration done later after clock selection check */
 844:./Drivers/STM32H7xx_HAL_Driver/Src/stm32h7xx_hal_rcc_ex.c ****       break;
 845:./Drivers/STM32H7xx_HAL_Driver/Src/stm32h7xx_hal_rcc_ex.c **** 
 846:./Drivers/STM32H7xx_HAL_Driver/Src/stm32h7xx_hal_rcc_ex.c ****     case RCC_USART234578CLKSOURCE_LSE:
 847:./Drivers/STM32H7xx_HAL_Driver/Src/stm32h7xx_hal_rcc_ex.c ****       /* LSE,  oscillator is used as source of USART2/3/4/5/7/8 clock */
 848:./Drivers/STM32H7xx_HAL_Driver/Src/stm32h7xx_hal_rcc_ex.c ****       /* USART2/3/4/5/7/8 clock source configuration done later after clock selection check */
 849:./Drivers/STM32H7xx_HAL_Driver/Src/stm32h7xx_hal_rcc_ex.c ****       break;
 850:./Drivers/STM32H7xx_HAL_Driver/Src/stm32h7xx_hal_rcc_ex.c **** 
 851:./Drivers/STM32H7xx_HAL_Driver/Src/stm32h7xx_hal_rcc_ex.c ****     default:
 852:./Drivers/STM32H7xx_HAL_Driver/Src/stm32h7xx_hal_rcc_ex.c ****       ret = HAL_ERROR;
 1320              		.loc 1 852 11
 1321 0860 0123     		movs	r3, #1
 1322 0862 FB75     		strb	r3, [r7, #23]
 853:./Drivers/STM32H7xx_HAL_Driver/Src/stm32h7xx_hal_rcc_ex.c ****       break;
 1323              		.loc 1 853 7
 1324 0864 00E0     		b	.L141
 1325              	.L253:
 824:./Drivers/STM32H7xx_HAL_Driver/Src/stm32h7xx_hal_rcc_ex.c **** 
 1326              		.loc 1 824 7
 1327 0866 00BF     		nop
 1328              	.L141:
 854:./Drivers/STM32H7xx_HAL_Driver/Src/stm32h7xx_hal_rcc_ex.c ****     }
 855:./Drivers/STM32H7xx_HAL_Driver/Src/stm32h7xx_hal_rcc_ex.c **** 
 856:./Drivers/STM32H7xx_HAL_Driver/Src/stm32h7xx_hal_rcc_ex.c ****     if(ret == HAL_OK)
 1329              		.loc 1 856 7
 1330 0868 FB7D     		ldrb	r3, [r7, #23]	@ zero_extendqisi2
 1331 086a 002B     		cmp	r3, #0
 1332 086c 09D1     		bne	.L142
 857:./Drivers/STM32H7xx_HAL_Driver/Src/stm32h7xx_hal_rcc_ex.c ****     {
 858:./Drivers/STM32H7xx_HAL_Driver/Src/stm32h7xx_hal_rcc_ex.c ****       /* Set the source of USART2/3/4/5/7/8 clock */
 859:./Drivers/STM32H7xx_HAL_Driver/Src/stm32h7xx_hal_rcc_ex.c ****       __HAL_RCC_USART234578_CONFIG(PeriphClkInit->Usart234578ClockSelection);
 1333              		.loc 1 859 7
 1334 086e 134B     		ldr	r3, .L276
 1335 0870 5B6D     		ldr	r3, [r3, #84]
 1336 0872 23F00702 		bic	r2, r3, #7
ARM GAS  /tmp/cctM9lCy.s 			page 40


 1337 0876 7B68     		ldr	r3, [r7, #4]
 1338 0878 5B6F     		ldr	r3, [r3, #116]
 1339 087a 1049     		ldr	r1, .L276
 1340 087c 1343     		orrs	r3, r3, r2
 1341 087e 4B65     		str	r3, [r1, #84]
 1342 0880 01E0     		b	.L132
 1343              	.L142:
 860:./Drivers/STM32H7xx_HAL_Driver/Src/stm32h7xx_hal_rcc_ex.c ****     }
 861:./Drivers/STM32H7xx_HAL_Driver/Src/stm32h7xx_hal_rcc_ex.c ****     else
 862:./Drivers/STM32H7xx_HAL_Driver/Src/stm32h7xx_hal_rcc_ex.c ****     {
 863:./Drivers/STM32H7xx_HAL_Driver/Src/stm32h7xx_hal_rcc_ex.c ****       /* set overall return value */
 864:./Drivers/STM32H7xx_HAL_Driver/Src/stm32h7xx_hal_rcc_ex.c ****       status = ret;
 1344              		.loc 1 864 14
 1345 0882 FB7D     		ldrb	r3, [r7, #23]
 1346 0884 BB75     		strb	r3, [r7, #22]
 1347              	.L132:
 865:./Drivers/STM32H7xx_HAL_Driver/Src/stm32h7xx_hal_rcc_ex.c ****     }
 866:./Drivers/STM32H7xx_HAL_Driver/Src/stm32h7xx_hal_rcc_ex.c ****   }
 867:./Drivers/STM32H7xx_HAL_Driver/Src/stm32h7xx_hal_rcc_ex.c **** 
 868:./Drivers/STM32H7xx_HAL_Driver/Src/stm32h7xx_hal_rcc_ex.c ****   /*-------------------------- LPUART1 Configuration -------------------------*/
 869:./Drivers/STM32H7xx_HAL_Driver/Src/stm32h7xx_hal_rcc_ex.c ****   if(((PeriphClkInit->PeriphClockSelection) & RCC_PERIPHCLK_LPUART1) == RCC_PERIPHCLK_LPUART1)
 1348              		.loc 1 869 21
 1349 0886 7B68     		ldr	r3, [r7, #4]
 1350 0888 1B68     		ldr	r3, [r3]
 1351              		.loc 1 869 45
 1352 088a 03F00403 		and	r3, r3, #4
 1353              		.loc 1 869 5
 1354 088e 002B     		cmp	r3, #0
 1355 0890 40D0     		beq	.L143
 870:./Drivers/STM32H7xx_HAL_Driver/Src/stm32h7xx_hal_rcc_ex.c ****   {
 871:./Drivers/STM32H7xx_HAL_Driver/Src/stm32h7xx_hal_rcc_ex.c ****     switch(PeriphClkInit->Lpuart1ClockSelection)
 1356              		.loc 1 871 25
 1357 0892 7B68     		ldr	r3, [r7, #4]
 1358 0894 D3F89030 		ldr	r3, [r3, #144]
 1359              		.loc 1 871 5
 1360 0898 052B     		cmp	r3, #5
 1361 089a 27D8     		bhi	.L144
 1362 089c 01A2     		adr	r2, .L146
 1363 089e 52F823F0 		ldr	pc, [r2, r3, lsl #2]
 1364 08a2 00BF     		.p2align 2
 1365              	.L146:
 1366 08a4 F3080000 		.word	.L254+1
 1367 08a8 C9080000 		.word	.L150+1
 1368 08ac DB080000 		.word	.L149+1
 1369 08b0 F3080000 		.word	.L254+1
 1370 08b4 F3080000 		.word	.L254+1
 1371 08b8 F3080000 		.word	.L254+1
 1372              		.p2align 1
 1373              	.L277:
 1374              		.align	2
 1375              	.L276:
 1376 08bc 00440258 		.word	1476543488
 1377 08c0 00480258 		.word	1476544512
 1378 08c4 CFFFFF00 		.word	16777167
 1379              	.L150:
 872:./Drivers/STM32H7xx_HAL_Driver/Src/stm32h7xx_hal_rcc_ex.c ****     {
 873:./Drivers/STM32H7xx_HAL_Driver/Src/stm32h7xx_hal_rcc_ex.c ****     case RCC_LPUART1CLKSOURCE_D3PCLK1: /* D3PCLK1 as clock source for LPUART1 */
ARM GAS  /tmp/cctM9lCy.s 			page 41


 874:./Drivers/STM32H7xx_HAL_Driver/Src/stm32h7xx_hal_rcc_ex.c ****       /* LPUART1 clock source configuration done later after clock selection check */
 875:./Drivers/STM32H7xx_HAL_Driver/Src/stm32h7xx_hal_rcc_ex.c ****       break;
 876:./Drivers/STM32H7xx_HAL_Driver/Src/stm32h7xx_hal_rcc_ex.c **** 
 877:./Drivers/STM32H7xx_HAL_Driver/Src/stm32h7xx_hal_rcc_ex.c ****     case RCC_LPUART1CLKSOURCE_PLL2: /* PLL2 is used as clock source for LPUART1 */
 878:./Drivers/STM32H7xx_HAL_Driver/Src/stm32h7xx_hal_rcc_ex.c ****       ret = RCCEx_PLL2_Config(&(PeriphClkInit->PLL2),DIVIDER_Q_UPDATE);
 1380              		.loc 1 878 13
 1381 08c8 7B68     		ldr	r3, [r7, #4]
 1382 08ca 0433     		adds	r3, r3, #4
 1383 08cc 0121     		movs	r1, #1
 1384 08ce 1846     		mov	r0, r3
 1385 08d0 FFF7FEFF 		bl	RCCEx_PLL2_Config
 1386 08d4 0346     		mov	r3, r0
 1387 08d6 FB75     		strb	r3, [r7, #23]
 879:./Drivers/STM32H7xx_HAL_Driver/Src/stm32h7xx_hal_rcc_ex.c ****       /* LPUART1 clock source configuration done later after clock selection check */
 880:./Drivers/STM32H7xx_HAL_Driver/Src/stm32h7xx_hal_rcc_ex.c ****       break;
 1388              		.loc 1 880 7
 1389 08d8 0CE0     		b	.L152
 1390              	.L149:
 881:./Drivers/STM32H7xx_HAL_Driver/Src/stm32h7xx_hal_rcc_ex.c **** 
 882:./Drivers/STM32H7xx_HAL_Driver/Src/stm32h7xx_hal_rcc_ex.c ****     case RCC_LPUART1CLKSOURCE_PLL3: /* PLL3 is used as clock source for LPUART1 */
 883:./Drivers/STM32H7xx_HAL_Driver/Src/stm32h7xx_hal_rcc_ex.c ****       ret = RCCEx_PLL3_Config(&(PeriphClkInit->PLL3),DIVIDER_Q_UPDATE);
 1391              		.loc 1 883 13
 1392 08da 7B68     		ldr	r3, [r7, #4]
 1393 08dc 2433     		adds	r3, r3, #36
 1394 08de 0121     		movs	r1, #1
 1395 08e0 1846     		mov	r0, r3
 1396 08e2 FFF7FEFF 		bl	RCCEx_PLL3_Config
 1397 08e6 0346     		mov	r3, r0
 1398 08e8 FB75     		strb	r3, [r7, #23]
 884:./Drivers/STM32H7xx_HAL_Driver/Src/stm32h7xx_hal_rcc_ex.c ****       /* LPUART1 clock source configuration done later after clock selection check */
 885:./Drivers/STM32H7xx_HAL_Driver/Src/stm32h7xx_hal_rcc_ex.c ****       break;
 1399              		.loc 1 885 7
 1400 08ea 03E0     		b	.L152
 1401              	.L144:
 886:./Drivers/STM32H7xx_HAL_Driver/Src/stm32h7xx_hal_rcc_ex.c **** 
 887:./Drivers/STM32H7xx_HAL_Driver/Src/stm32h7xx_hal_rcc_ex.c ****     case RCC_LPUART1CLKSOURCE_HSI:
 888:./Drivers/STM32H7xx_HAL_Driver/Src/stm32h7xx_hal_rcc_ex.c ****       /* HSI oscillator clock is used as source of LPUART1 clock */
 889:./Drivers/STM32H7xx_HAL_Driver/Src/stm32h7xx_hal_rcc_ex.c ****       /* LPUART1 clock source configuration done later after clock selection check */
 890:./Drivers/STM32H7xx_HAL_Driver/Src/stm32h7xx_hal_rcc_ex.c ****       break;
 891:./Drivers/STM32H7xx_HAL_Driver/Src/stm32h7xx_hal_rcc_ex.c **** 
 892:./Drivers/STM32H7xx_HAL_Driver/Src/stm32h7xx_hal_rcc_ex.c ****     case RCC_LPUART1CLKSOURCE_CSI:
 893:./Drivers/STM32H7xx_HAL_Driver/Src/stm32h7xx_hal_rcc_ex.c ****       /* CSI oscillator clock is used as source of LPUART1 clock */
 894:./Drivers/STM32H7xx_HAL_Driver/Src/stm32h7xx_hal_rcc_ex.c ****       /* LPUART1 clock source configuration done later after clock selection check */
 895:./Drivers/STM32H7xx_HAL_Driver/Src/stm32h7xx_hal_rcc_ex.c ****       break;
 896:./Drivers/STM32H7xx_HAL_Driver/Src/stm32h7xx_hal_rcc_ex.c **** 
 897:./Drivers/STM32H7xx_HAL_Driver/Src/stm32h7xx_hal_rcc_ex.c ****     case RCC_LPUART1CLKSOURCE_LSE:
 898:./Drivers/STM32H7xx_HAL_Driver/Src/stm32h7xx_hal_rcc_ex.c ****       /* LSE,  oscillator is used as source of LPUART1 clock */
 899:./Drivers/STM32H7xx_HAL_Driver/Src/stm32h7xx_hal_rcc_ex.c ****       /* LPUART1 clock source configuration done later after clock selection check */
 900:./Drivers/STM32H7xx_HAL_Driver/Src/stm32h7xx_hal_rcc_ex.c ****       break;
 901:./Drivers/STM32H7xx_HAL_Driver/Src/stm32h7xx_hal_rcc_ex.c **** 
 902:./Drivers/STM32H7xx_HAL_Driver/Src/stm32h7xx_hal_rcc_ex.c ****     default:
 903:./Drivers/STM32H7xx_HAL_Driver/Src/stm32h7xx_hal_rcc_ex.c ****       ret = HAL_ERROR;
 1402              		.loc 1 903 11
 1403 08ec 0123     		movs	r3, #1
 1404 08ee FB75     		strb	r3, [r7, #23]
 904:./Drivers/STM32H7xx_HAL_Driver/Src/stm32h7xx_hal_rcc_ex.c ****       break;
 1405              		.loc 1 904 7
ARM GAS  /tmp/cctM9lCy.s 			page 42


 1406 08f0 00E0     		b	.L152
 1407              	.L254:
 875:./Drivers/STM32H7xx_HAL_Driver/Src/stm32h7xx_hal_rcc_ex.c **** 
 1408              		.loc 1 875 7
 1409 08f2 00BF     		nop
 1410              	.L152:
 905:./Drivers/STM32H7xx_HAL_Driver/Src/stm32h7xx_hal_rcc_ex.c ****     }
 906:./Drivers/STM32H7xx_HAL_Driver/Src/stm32h7xx_hal_rcc_ex.c **** 
 907:./Drivers/STM32H7xx_HAL_Driver/Src/stm32h7xx_hal_rcc_ex.c ****     if(ret == HAL_OK)
 1411              		.loc 1 907 7
 1412 08f4 FB7D     		ldrb	r3, [r7, #23]	@ zero_extendqisi2
 1413 08f6 002B     		cmp	r3, #0
 1414 08f8 0AD1     		bne	.L153
 908:./Drivers/STM32H7xx_HAL_Driver/Src/stm32h7xx_hal_rcc_ex.c ****     {
 909:./Drivers/STM32H7xx_HAL_Driver/Src/stm32h7xx_hal_rcc_ex.c ****       /* Set the source of LPUART1 clock */
 910:./Drivers/STM32H7xx_HAL_Driver/Src/stm32h7xx_hal_rcc_ex.c ****       __HAL_RCC_LPUART1_CONFIG(PeriphClkInit->Lpuart1ClockSelection);
 1415              		.loc 1 910 7
 1416 08fa B34B     		ldr	r3, .L278
 1417 08fc 9B6D     		ldr	r3, [r3, #88]
 1418 08fe 23F00702 		bic	r2, r3, #7
 1419 0902 7B68     		ldr	r3, [r7, #4]
 1420 0904 D3F89030 		ldr	r3, [r3, #144]
 1421 0908 AF49     		ldr	r1, .L278
 1422 090a 1343     		orrs	r3, r3, r2
 1423 090c 8B65     		str	r3, [r1, #88]
 1424 090e 01E0     		b	.L143
 1425              	.L153:
 911:./Drivers/STM32H7xx_HAL_Driver/Src/stm32h7xx_hal_rcc_ex.c ****     }
 912:./Drivers/STM32H7xx_HAL_Driver/Src/stm32h7xx_hal_rcc_ex.c ****     else
 913:./Drivers/STM32H7xx_HAL_Driver/Src/stm32h7xx_hal_rcc_ex.c ****     {
 914:./Drivers/STM32H7xx_HAL_Driver/Src/stm32h7xx_hal_rcc_ex.c ****       /* set overall return value */
 915:./Drivers/STM32H7xx_HAL_Driver/Src/stm32h7xx_hal_rcc_ex.c ****       status = ret;
 1426              		.loc 1 915 14
 1427 0910 FB7D     		ldrb	r3, [r7, #23]
 1428 0912 BB75     		strb	r3, [r7, #22]
 1429              	.L143:
 916:./Drivers/STM32H7xx_HAL_Driver/Src/stm32h7xx_hal_rcc_ex.c ****     }
 917:./Drivers/STM32H7xx_HAL_Driver/Src/stm32h7xx_hal_rcc_ex.c ****   }
 918:./Drivers/STM32H7xx_HAL_Driver/Src/stm32h7xx_hal_rcc_ex.c **** 
 919:./Drivers/STM32H7xx_HAL_Driver/Src/stm32h7xx_hal_rcc_ex.c ****   /*---------------------------- LPTIM1 configuration -------------------------------*/
 920:./Drivers/STM32H7xx_HAL_Driver/Src/stm32h7xx_hal_rcc_ex.c ****   if(((PeriphClkInit->PeriphClockSelection) & RCC_PERIPHCLK_LPTIM1) == RCC_PERIPHCLK_LPTIM1)
 1430              		.loc 1 920 21
 1431 0914 7B68     		ldr	r3, [r7, #4]
 1432 0916 1B68     		ldr	r3, [r3]
 1433              		.loc 1 920 45
 1434 0918 03F02003 		and	r3, r3, #32
 1435              		.loc 1 920 5
 1436 091c 002B     		cmp	r3, #0
 1437 091e 44D0     		beq	.L154
 921:./Drivers/STM32H7xx_HAL_Driver/Src/stm32h7xx_hal_rcc_ex.c ****   {
 922:./Drivers/STM32H7xx_HAL_Driver/Src/stm32h7xx_hal_rcc_ex.c ****     switch(PeriphClkInit->Lptim1ClockSelection)
 1438              		.loc 1 922 25
 1439 0920 7B68     		ldr	r3, [r7, #4]
 1440 0922 D3F88C30 		ldr	r3, [r3, #140]
 1441              		.loc 1 922 5
 1442 0926 B3F1005F 		cmp	r3, #536870912
 1443 092a 1BD0     		beq	.L155
ARM GAS  /tmp/cctM9lCy.s 			page 43


 1444 092c B3F1005F 		cmp	r3, #536870912
 1445 0930 05D8     		bhi	.L156
 1446 0932 002B     		cmp	r3, #0
 1447 0934 22D0     		beq	.L255
 1448 0936 B3F1805F 		cmp	r3, #268435456
 1449 093a 0AD0     		beq	.L158
 1450 093c 1BE0     		b	.L159
 1451              	.L156:
 1452 093e B3F1804F 		cmp	r3, #1073741824
 1453 0942 1DD0     		beq	.L256
 1454 0944 B3F1A04F 		cmp	r3, #1342177280
 1455 0948 1CD0     		beq	.L257
 1456 094a B3F1405F 		cmp	r3, #805306368
 1457 094e 1BD0     		beq	.L258
 1458 0950 11E0     		b	.L159
 1459              	.L158:
 923:./Drivers/STM32H7xx_HAL_Driver/Src/stm32h7xx_hal_rcc_ex.c ****     {
 924:./Drivers/STM32H7xx_HAL_Driver/Src/stm32h7xx_hal_rcc_ex.c ****     case RCC_LPTIM1CLKSOURCE_D2PCLK1:      /* D2PCLK1 as clock source for LPTIM1*/
 925:./Drivers/STM32H7xx_HAL_Driver/Src/stm32h7xx_hal_rcc_ex.c ****       /* LPTIM1 clock source configuration done later after clock selection check */
 926:./Drivers/STM32H7xx_HAL_Driver/Src/stm32h7xx_hal_rcc_ex.c ****       break;
 927:./Drivers/STM32H7xx_HAL_Driver/Src/stm32h7xx_hal_rcc_ex.c **** 
 928:./Drivers/STM32H7xx_HAL_Driver/Src/stm32h7xx_hal_rcc_ex.c ****     case RCC_LPTIM1CLKSOURCE_PLL2: /* PLL2 is used as clock source for LPTIM1*/
 929:./Drivers/STM32H7xx_HAL_Driver/Src/stm32h7xx_hal_rcc_ex.c **** 
 930:./Drivers/STM32H7xx_HAL_Driver/Src/stm32h7xx_hal_rcc_ex.c ****       ret = RCCEx_PLL2_Config(&(PeriphClkInit->PLL2),DIVIDER_P_UPDATE);
 1460              		.loc 1 930 13
 1461 0952 7B68     		ldr	r3, [r7, #4]
 1462 0954 0433     		adds	r3, r3, #4
 1463 0956 0021     		movs	r1, #0
 1464 0958 1846     		mov	r0, r3
 1465 095a FFF7FEFF 		bl	RCCEx_PLL2_Config
 1466 095e 0346     		mov	r3, r0
 1467 0960 FB75     		strb	r3, [r7, #23]
 931:./Drivers/STM32H7xx_HAL_Driver/Src/stm32h7xx_hal_rcc_ex.c **** 
 932:./Drivers/STM32H7xx_HAL_Driver/Src/stm32h7xx_hal_rcc_ex.c ****       /* LPTIM1 clock source configuration done later after clock selection check */
 933:./Drivers/STM32H7xx_HAL_Driver/Src/stm32h7xx_hal_rcc_ex.c ****       break;
 1468              		.loc 1 933 7
 1469 0962 12E0     		b	.L163
 1470              	.L155:
 934:./Drivers/STM32H7xx_HAL_Driver/Src/stm32h7xx_hal_rcc_ex.c **** 
 935:./Drivers/STM32H7xx_HAL_Driver/Src/stm32h7xx_hal_rcc_ex.c ****     case RCC_LPTIM1CLKSOURCE_PLL3:  /* PLL3 is used as clock source for LPTIM1*/
 936:./Drivers/STM32H7xx_HAL_Driver/Src/stm32h7xx_hal_rcc_ex.c ****       ret = RCCEx_PLL3_Config(&(PeriphClkInit->PLL3),DIVIDER_R_UPDATE);
 1471              		.loc 1 936 13
 1472 0964 7B68     		ldr	r3, [r7, #4]
 1473 0966 2433     		adds	r3, r3, #36
 1474 0968 0221     		movs	r1, #2
 1475 096a 1846     		mov	r0, r3
 1476 096c FFF7FEFF 		bl	RCCEx_PLL3_Config
 1477 0970 0346     		mov	r3, r0
 1478 0972 FB75     		strb	r3, [r7, #23]
 937:./Drivers/STM32H7xx_HAL_Driver/Src/stm32h7xx_hal_rcc_ex.c **** 
 938:./Drivers/STM32H7xx_HAL_Driver/Src/stm32h7xx_hal_rcc_ex.c ****       /* LPTIM1 clock source configuration done later after clock selection check */
 939:./Drivers/STM32H7xx_HAL_Driver/Src/stm32h7xx_hal_rcc_ex.c ****       break;
 1479              		.loc 1 939 7
 1480 0974 09E0     		b	.L163
 1481              	.L159:
 940:./Drivers/STM32H7xx_HAL_Driver/Src/stm32h7xx_hal_rcc_ex.c **** 
 941:./Drivers/STM32H7xx_HAL_Driver/Src/stm32h7xx_hal_rcc_ex.c ****     case RCC_LPTIM1CLKSOURCE_LSE:
ARM GAS  /tmp/cctM9lCy.s 			page 44


 942:./Drivers/STM32H7xx_HAL_Driver/Src/stm32h7xx_hal_rcc_ex.c ****       /* External low speed OSC clock is used as source of LPTIM1 clock*/
 943:./Drivers/STM32H7xx_HAL_Driver/Src/stm32h7xx_hal_rcc_ex.c ****       /* LPTIM1 clock source configuration done later after clock selection check */
 944:./Drivers/STM32H7xx_HAL_Driver/Src/stm32h7xx_hal_rcc_ex.c ****       break;
 945:./Drivers/STM32H7xx_HAL_Driver/Src/stm32h7xx_hal_rcc_ex.c **** 
 946:./Drivers/STM32H7xx_HAL_Driver/Src/stm32h7xx_hal_rcc_ex.c ****     case RCC_LPTIM1CLKSOURCE_LSI:
 947:./Drivers/STM32H7xx_HAL_Driver/Src/stm32h7xx_hal_rcc_ex.c ****       /* Internal  low speed OSC clock is used  as source of LPTIM1 clock*/
 948:./Drivers/STM32H7xx_HAL_Driver/Src/stm32h7xx_hal_rcc_ex.c ****       /* LPTIM1 clock source configuration done later after clock selection check */
 949:./Drivers/STM32H7xx_HAL_Driver/Src/stm32h7xx_hal_rcc_ex.c ****       break;
 950:./Drivers/STM32H7xx_HAL_Driver/Src/stm32h7xx_hal_rcc_ex.c ****     case RCC_LPTIM1CLKSOURCE_CLKP:
 951:./Drivers/STM32H7xx_HAL_Driver/Src/stm32h7xx_hal_rcc_ex.c ****       /* HSI, HSE, or CSI oscillator is used as source of LPTIM1 clock */
 952:./Drivers/STM32H7xx_HAL_Driver/Src/stm32h7xx_hal_rcc_ex.c ****       /* LPTIM1 clock source configuration done later after clock selection check */
 953:./Drivers/STM32H7xx_HAL_Driver/Src/stm32h7xx_hal_rcc_ex.c ****       break;
 954:./Drivers/STM32H7xx_HAL_Driver/Src/stm32h7xx_hal_rcc_ex.c **** 
 955:./Drivers/STM32H7xx_HAL_Driver/Src/stm32h7xx_hal_rcc_ex.c ****     default:
 956:./Drivers/STM32H7xx_HAL_Driver/Src/stm32h7xx_hal_rcc_ex.c ****       ret = HAL_ERROR;
 1482              		.loc 1 956 11
 1483 0976 0123     		movs	r3, #1
 1484 0978 FB75     		strb	r3, [r7, #23]
 957:./Drivers/STM32H7xx_HAL_Driver/Src/stm32h7xx_hal_rcc_ex.c ****       break;
 1485              		.loc 1 957 7
 1486 097a 06E0     		b	.L163
 1487              	.L255:
 926:./Drivers/STM32H7xx_HAL_Driver/Src/stm32h7xx_hal_rcc_ex.c **** 
 1488              		.loc 1 926 7
 1489 097c 00BF     		nop
 1490 097e 04E0     		b	.L163
 1491              	.L256:
 949:./Drivers/STM32H7xx_HAL_Driver/Src/stm32h7xx_hal_rcc_ex.c ****     case RCC_LPTIM1CLKSOURCE_CLKP:
 1492              		.loc 1 949 7
 1493 0980 00BF     		nop
 1494 0982 02E0     		b	.L163
 1495              	.L257:
 953:./Drivers/STM32H7xx_HAL_Driver/Src/stm32h7xx_hal_rcc_ex.c **** 
 1496              		.loc 1 953 7
 1497 0984 00BF     		nop
 1498 0986 00E0     		b	.L163
 1499              	.L258:
 944:./Drivers/STM32H7xx_HAL_Driver/Src/stm32h7xx_hal_rcc_ex.c **** 
 1500              		.loc 1 944 7
 1501 0988 00BF     		nop
 1502              	.L163:
 958:./Drivers/STM32H7xx_HAL_Driver/Src/stm32h7xx_hal_rcc_ex.c ****     }
 959:./Drivers/STM32H7xx_HAL_Driver/Src/stm32h7xx_hal_rcc_ex.c **** 
 960:./Drivers/STM32H7xx_HAL_Driver/Src/stm32h7xx_hal_rcc_ex.c ****     if(ret == HAL_OK)
 1503              		.loc 1 960 7
 1504 098a FB7D     		ldrb	r3, [r7, #23]	@ zero_extendqisi2
 1505 098c 002B     		cmp	r3, #0
 1506 098e 0AD1     		bne	.L164
 961:./Drivers/STM32H7xx_HAL_Driver/Src/stm32h7xx_hal_rcc_ex.c ****     {
 962:./Drivers/STM32H7xx_HAL_Driver/Src/stm32h7xx_hal_rcc_ex.c ****       /* Set the source of LPTIM1 clock*/
 963:./Drivers/STM32H7xx_HAL_Driver/Src/stm32h7xx_hal_rcc_ex.c ****       __HAL_RCC_LPTIM1_CONFIG(PeriphClkInit->Lptim1ClockSelection);
 1507              		.loc 1 963 7
 1508 0990 8D4B     		ldr	r3, .L278
 1509 0992 5B6D     		ldr	r3, [r3, #84]
 1510 0994 23F0E042 		bic	r2, r3, #1879048192
 1511 0998 7B68     		ldr	r3, [r7, #4]
 1512 099a D3F88C30 		ldr	r3, [r3, #140]
ARM GAS  /tmp/cctM9lCy.s 			page 45


 1513 099e 8A49     		ldr	r1, .L278
 1514 09a0 1343     		orrs	r3, r3, r2
 1515 09a2 4B65     		str	r3, [r1, #84]
 1516 09a4 01E0     		b	.L154
 1517              	.L164:
 964:./Drivers/STM32H7xx_HAL_Driver/Src/stm32h7xx_hal_rcc_ex.c ****     }
 965:./Drivers/STM32H7xx_HAL_Driver/Src/stm32h7xx_hal_rcc_ex.c ****     else
 966:./Drivers/STM32H7xx_HAL_Driver/Src/stm32h7xx_hal_rcc_ex.c ****     {
 967:./Drivers/STM32H7xx_HAL_Driver/Src/stm32h7xx_hal_rcc_ex.c ****       /* set overall return value */
 968:./Drivers/STM32H7xx_HAL_Driver/Src/stm32h7xx_hal_rcc_ex.c ****       status = ret;
 1518              		.loc 1 968 14
 1519 09a6 FB7D     		ldrb	r3, [r7, #23]
 1520 09a8 BB75     		strb	r3, [r7, #22]
 1521              	.L154:
 969:./Drivers/STM32H7xx_HAL_Driver/Src/stm32h7xx_hal_rcc_ex.c ****     }
 970:./Drivers/STM32H7xx_HAL_Driver/Src/stm32h7xx_hal_rcc_ex.c ****   }
 971:./Drivers/STM32H7xx_HAL_Driver/Src/stm32h7xx_hal_rcc_ex.c **** 
 972:./Drivers/STM32H7xx_HAL_Driver/Src/stm32h7xx_hal_rcc_ex.c ****   /*---------------------------- LPTIM2 configuration -------------------------------*/
 973:./Drivers/STM32H7xx_HAL_Driver/Src/stm32h7xx_hal_rcc_ex.c ****   if(((PeriphClkInit->PeriphClockSelection) & RCC_PERIPHCLK_LPTIM2) == RCC_PERIPHCLK_LPTIM2)
 1522              		.loc 1 973 21
 1523 09aa 7B68     		ldr	r3, [r7, #4]
 1524 09ac 1B68     		ldr	r3, [r3]
 1525              		.loc 1 973 45
 1526 09ae 03F04003 		and	r3, r3, #64
 1527              		.loc 1 973 5
 1528 09b2 002B     		cmp	r3, #0
 1529 09b4 44D0     		beq	.L165
 974:./Drivers/STM32H7xx_HAL_Driver/Src/stm32h7xx_hal_rcc_ex.c ****   {
 975:./Drivers/STM32H7xx_HAL_Driver/Src/stm32h7xx_hal_rcc_ex.c ****     switch(PeriphClkInit->Lptim2ClockSelection)
 1530              		.loc 1 975 25
 1531 09b6 7B68     		ldr	r3, [r7, #4]
 1532 09b8 D3F89830 		ldr	r3, [r3, #152]
 1533              		.loc 1 975 5
 1534 09bc B3F5006F 		cmp	r3, #2048
 1535 09c0 1BD0     		beq	.L166
 1536 09c2 B3F5006F 		cmp	r3, #2048
 1537 09c6 05D8     		bhi	.L167
 1538 09c8 002B     		cmp	r3, #0
 1539 09ca 22D0     		beq	.L259
 1540 09cc B3F5806F 		cmp	r3, #1024
 1541 09d0 0AD0     		beq	.L169
 1542 09d2 1BE0     		b	.L170
 1543              	.L167:
 1544 09d4 B3F5805F 		cmp	r3, #4096
 1545 09d8 1DD0     		beq	.L260
 1546 09da B3F5A05F 		cmp	r3, #5120
 1547 09de 1CD0     		beq	.L261
 1548 09e0 B3F5406F 		cmp	r3, #3072
 1549 09e4 1BD0     		beq	.L262
 1550 09e6 11E0     		b	.L170
 1551              	.L169:
 976:./Drivers/STM32H7xx_HAL_Driver/Src/stm32h7xx_hal_rcc_ex.c ****     {
 977:./Drivers/STM32H7xx_HAL_Driver/Src/stm32h7xx_hal_rcc_ex.c ****     case RCC_LPTIM2CLKSOURCE_D3PCLK1:      /* D3PCLK1 as clock source for LPTIM2*/
 978:./Drivers/STM32H7xx_HAL_Driver/Src/stm32h7xx_hal_rcc_ex.c ****       /* LPTIM2 clock source configuration done later after clock selection check */
 979:./Drivers/STM32H7xx_HAL_Driver/Src/stm32h7xx_hal_rcc_ex.c ****       break;
 980:./Drivers/STM32H7xx_HAL_Driver/Src/stm32h7xx_hal_rcc_ex.c **** 
 981:./Drivers/STM32H7xx_HAL_Driver/Src/stm32h7xx_hal_rcc_ex.c ****     case RCC_LPTIM2CLKSOURCE_PLL2: /* PLL2 is used as clock source for LPTIM2*/
ARM GAS  /tmp/cctM9lCy.s 			page 46


 982:./Drivers/STM32H7xx_HAL_Driver/Src/stm32h7xx_hal_rcc_ex.c **** 
 983:./Drivers/STM32H7xx_HAL_Driver/Src/stm32h7xx_hal_rcc_ex.c ****       ret = RCCEx_PLL2_Config(&(PeriphClkInit->PLL2),DIVIDER_P_UPDATE);
 1552              		.loc 1 983 13
 1553 09e8 7B68     		ldr	r3, [r7, #4]
 1554 09ea 0433     		adds	r3, r3, #4
 1555 09ec 0021     		movs	r1, #0
 1556 09ee 1846     		mov	r0, r3
 1557 09f0 FFF7FEFF 		bl	RCCEx_PLL2_Config
 1558 09f4 0346     		mov	r3, r0
 1559 09f6 FB75     		strb	r3, [r7, #23]
 984:./Drivers/STM32H7xx_HAL_Driver/Src/stm32h7xx_hal_rcc_ex.c **** 
 985:./Drivers/STM32H7xx_HAL_Driver/Src/stm32h7xx_hal_rcc_ex.c ****       /* LPTIM2 clock source configuration done later after clock selection check */
 986:./Drivers/STM32H7xx_HAL_Driver/Src/stm32h7xx_hal_rcc_ex.c ****       break;
 1560              		.loc 1 986 7
 1561 09f8 12E0     		b	.L174
 1562              	.L166:
 987:./Drivers/STM32H7xx_HAL_Driver/Src/stm32h7xx_hal_rcc_ex.c **** 
 988:./Drivers/STM32H7xx_HAL_Driver/Src/stm32h7xx_hal_rcc_ex.c ****     case RCC_LPTIM2CLKSOURCE_PLL3:  /* PLL3 is used as clock source for LPTIM2*/
 989:./Drivers/STM32H7xx_HAL_Driver/Src/stm32h7xx_hal_rcc_ex.c ****       ret = RCCEx_PLL3_Config(&(PeriphClkInit->PLL3),DIVIDER_R_UPDATE);
 1563              		.loc 1 989 13
 1564 09fa 7B68     		ldr	r3, [r7, #4]
 1565 09fc 2433     		adds	r3, r3, #36
 1566 09fe 0221     		movs	r1, #2
 1567 0a00 1846     		mov	r0, r3
 1568 0a02 FFF7FEFF 		bl	RCCEx_PLL3_Config
 1569 0a06 0346     		mov	r3, r0
 1570 0a08 FB75     		strb	r3, [r7, #23]
 990:./Drivers/STM32H7xx_HAL_Driver/Src/stm32h7xx_hal_rcc_ex.c **** 
 991:./Drivers/STM32H7xx_HAL_Driver/Src/stm32h7xx_hal_rcc_ex.c ****       /* LPTIM2 clock source configuration done later after clock selection check */
 992:./Drivers/STM32H7xx_HAL_Driver/Src/stm32h7xx_hal_rcc_ex.c ****       break;
 1571              		.loc 1 992 7
 1572 0a0a 09E0     		b	.L174
 1573              	.L170:
 993:./Drivers/STM32H7xx_HAL_Driver/Src/stm32h7xx_hal_rcc_ex.c **** 
 994:./Drivers/STM32H7xx_HAL_Driver/Src/stm32h7xx_hal_rcc_ex.c ****     case RCC_LPTIM2CLKSOURCE_LSE:
 995:./Drivers/STM32H7xx_HAL_Driver/Src/stm32h7xx_hal_rcc_ex.c ****       /* External low speed OSC clock is used as source of LPTIM2 clock*/
 996:./Drivers/STM32H7xx_HAL_Driver/Src/stm32h7xx_hal_rcc_ex.c ****       /* LPTIM2 clock source configuration done later after clock selection check */
 997:./Drivers/STM32H7xx_HAL_Driver/Src/stm32h7xx_hal_rcc_ex.c ****       break;
 998:./Drivers/STM32H7xx_HAL_Driver/Src/stm32h7xx_hal_rcc_ex.c **** 
 999:./Drivers/STM32H7xx_HAL_Driver/Src/stm32h7xx_hal_rcc_ex.c ****     case RCC_LPTIM2CLKSOURCE_LSI:
1000:./Drivers/STM32H7xx_HAL_Driver/Src/stm32h7xx_hal_rcc_ex.c ****       /* Internal  low speed OSC clock is used  as source of LPTIM2 clock*/
1001:./Drivers/STM32H7xx_HAL_Driver/Src/stm32h7xx_hal_rcc_ex.c ****       /* LPTIM2 clock source configuration done later after clock selection check */
1002:./Drivers/STM32H7xx_HAL_Driver/Src/stm32h7xx_hal_rcc_ex.c ****       break;
1003:./Drivers/STM32H7xx_HAL_Driver/Src/stm32h7xx_hal_rcc_ex.c ****     case RCC_LPTIM2CLKSOURCE_CLKP:
1004:./Drivers/STM32H7xx_HAL_Driver/Src/stm32h7xx_hal_rcc_ex.c ****       /* HSI, HSE, or CSI oscillator is used as source of LPTIM2 clock */
1005:./Drivers/STM32H7xx_HAL_Driver/Src/stm32h7xx_hal_rcc_ex.c ****       /* LPTIM2 clock source configuration done later after clock selection check */
1006:./Drivers/STM32H7xx_HAL_Driver/Src/stm32h7xx_hal_rcc_ex.c ****       break;
1007:./Drivers/STM32H7xx_HAL_Driver/Src/stm32h7xx_hal_rcc_ex.c **** 
1008:./Drivers/STM32H7xx_HAL_Driver/Src/stm32h7xx_hal_rcc_ex.c ****     default:
1009:./Drivers/STM32H7xx_HAL_Driver/Src/stm32h7xx_hal_rcc_ex.c ****       ret = HAL_ERROR;
 1574              		.loc 1 1009 11
 1575 0a0c 0123     		movs	r3, #1
 1576 0a0e FB75     		strb	r3, [r7, #23]
1010:./Drivers/STM32H7xx_HAL_Driver/Src/stm32h7xx_hal_rcc_ex.c ****       break;
 1577              		.loc 1 1010 7
 1578 0a10 06E0     		b	.L174
 1579              	.L259:
ARM GAS  /tmp/cctM9lCy.s 			page 47


 979:./Drivers/STM32H7xx_HAL_Driver/Src/stm32h7xx_hal_rcc_ex.c **** 
 1580              		.loc 1 979 7
 1581 0a12 00BF     		nop
 1582 0a14 04E0     		b	.L174
 1583              	.L260:
1002:./Drivers/STM32H7xx_HAL_Driver/Src/stm32h7xx_hal_rcc_ex.c ****     case RCC_LPTIM2CLKSOURCE_CLKP:
 1584              		.loc 1 1002 7
 1585 0a16 00BF     		nop
 1586 0a18 02E0     		b	.L174
 1587              	.L261:
1006:./Drivers/STM32H7xx_HAL_Driver/Src/stm32h7xx_hal_rcc_ex.c **** 
 1588              		.loc 1 1006 7
 1589 0a1a 00BF     		nop
 1590 0a1c 00E0     		b	.L174
 1591              	.L262:
 997:./Drivers/STM32H7xx_HAL_Driver/Src/stm32h7xx_hal_rcc_ex.c **** 
 1592              		.loc 1 997 7
 1593 0a1e 00BF     		nop
 1594              	.L174:
1011:./Drivers/STM32H7xx_HAL_Driver/Src/stm32h7xx_hal_rcc_ex.c ****     }
1012:./Drivers/STM32H7xx_HAL_Driver/Src/stm32h7xx_hal_rcc_ex.c **** 
1013:./Drivers/STM32H7xx_HAL_Driver/Src/stm32h7xx_hal_rcc_ex.c ****     if(ret == HAL_OK)
 1595              		.loc 1 1013 7
 1596 0a20 FB7D     		ldrb	r3, [r7, #23]	@ zero_extendqisi2
 1597 0a22 002B     		cmp	r3, #0
 1598 0a24 0AD1     		bne	.L175
1014:./Drivers/STM32H7xx_HAL_Driver/Src/stm32h7xx_hal_rcc_ex.c ****     {
1015:./Drivers/STM32H7xx_HAL_Driver/Src/stm32h7xx_hal_rcc_ex.c ****       /* Set the source of LPTIM2 clock*/
1016:./Drivers/STM32H7xx_HAL_Driver/Src/stm32h7xx_hal_rcc_ex.c ****       __HAL_RCC_LPTIM2_CONFIG(PeriphClkInit->Lptim2ClockSelection);
 1599              		.loc 1 1016 7
 1600 0a26 684B     		ldr	r3, .L278
 1601 0a28 9B6D     		ldr	r3, [r3, #88]
 1602 0a2a 23F4E052 		bic	r2, r3, #7168
 1603 0a2e 7B68     		ldr	r3, [r7, #4]
 1604 0a30 D3F89830 		ldr	r3, [r3, #152]
 1605 0a34 6449     		ldr	r1, .L278
 1606 0a36 1343     		orrs	r3, r3, r2
 1607 0a38 8B65     		str	r3, [r1, #88]
 1608 0a3a 01E0     		b	.L165
 1609              	.L175:
1017:./Drivers/STM32H7xx_HAL_Driver/Src/stm32h7xx_hal_rcc_ex.c ****     }
1018:./Drivers/STM32H7xx_HAL_Driver/Src/stm32h7xx_hal_rcc_ex.c ****     else
1019:./Drivers/STM32H7xx_HAL_Driver/Src/stm32h7xx_hal_rcc_ex.c ****     {
1020:./Drivers/STM32H7xx_HAL_Driver/Src/stm32h7xx_hal_rcc_ex.c ****       /* set overall return value */
1021:./Drivers/STM32H7xx_HAL_Driver/Src/stm32h7xx_hal_rcc_ex.c ****       status = ret;
 1610              		.loc 1 1021 14
 1611 0a3c FB7D     		ldrb	r3, [r7, #23]
 1612 0a3e BB75     		strb	r3, [r7, #22]
 1613              	.L165:
1022:./Drivers/STM32H7xx_HAL_Driver/Src/stm32h7xx_hal_rcc_ex.c ****     }
1023:./Drivers/STM32H7xx_HAL_Driver/Src/stm32h7xx_hal_rcc_ex.c ****   }
1024:./Drivers/STM32H7xx_HAL_Driver/Src/stm32h7xx_hal_rcc_ex.c **** 
1025:./Drivers/STM32H7xx_HAL_Driver/Src/stm32h7xx_hal_rcc_ex.c ****   /*---------------------------- LPTIM345 configuration -------------------------------*/
1026:./Drivers/STM32H7xx_HAL_Driver/Src/stm32h7xx_hal_rcc_ex.c ****   if(((PeriphClkInit->PeriphClockSelection) & RCC_PERIPHCLK_LPTIM345) == RCC_PERIPHCLK_LPTIM345)
 1614              		.loc 1 1026 21
 1615 0a40 7B68     		ldr	r3, [r7, #4]
 1616 0a42 1B68     		ldr	r3, [r3]
ARM GAS  /tmp/cctM9lCy.s 			page 48


 1617              		.loc 1 1026 45
 1618 0a44 03F08003 		and	r3, r3, #128
 1619              		.loc 1 1026 5
 1620 0a48 002B     		cmp	r3, #0
 1621 0a4a 44D0     		beq	.L176
1027:./Drivers/STM32H7xx_HAL_Driver/Src/stm32h7xx_hal_rcc_ex.c ****   {
1028:./Drivers/STM32H7xx_HAL_Driver/Src/stm32h7xx_hal_rcc_ex.c ****     switch(PeriphClkInit->Lptim345ClockSelection)
 1622              		.loc 1 1028 25
 1623 0a4c 7B68     		ldr	r3, [r7, #4]
 1624 0a4e D3F89C30 		ldr	r3, [r3, #156]
 1625              		.loc 1 1028 5
 1626 0a52 B3F5804F 		cmp	r3, #16384
 1627 0a56 1BD0     		beq	.L177
 1628 0a58 B3F5804F 		cmp	r3, #16384
 1629 0a5c 05D8     		bhi	.L178
 1630 0a5e 002B     		cmp	r3, #0
 1631 0a60 22D0     		beq	.L263
 1632 0a62 B3F5005F 		cmp	r3, #8192
 1633 0a66 0AD0     		beq	.L180
 1634 0a68 1BE0     		b	.L181
 1635              	.L178:
 1636 0a6a B3F5004F 		cmp	r3, #32768
 1637 0a6e 1DD0     		beq	.L264
 1638 0a70 B3F5204F 		cmp	r3, #40960
 1639 0a74 1CD0     		beq	.L265
 1640 0a76 B3F5C04F 		cmp	r3, #24576
 1641 0a7a 1BD0     		beq	.L266
 1642 0a7c 11E0     		b	.L181
 1643              	.L180:
1029:./Drivers/STM32H7xx_HAL_Driver/Src/stm32h7xx_hal_rcc_ex.c ****     {
1030:./Drivers/STM32H7xx_HAL_Driver/Src/stm32h7xx_hal_rcc_ex.c **** 
1031:./Drivers/STM32H7xx_HAL_Driver/Src/stm32h7xx_hal_rcc_ex.c ****     case RCC_LPTIM345CLKSOURCE_D3PCLK1:      /* D3PCLK1 as clock source for LPTIM3/4/5 */
1032:./Drivers/STM32H7xx_HAL_Driver/Src/stm32h7xx_hal_rcc_ex.c ****       /* LPTIM3/4/5 clock source configuration done later after clock selection check */
1033:./Drivers/STM32H7xx_HAL_Driver/Src/stm32h7xx_hal_rcc_ex.c ****       break;
1034:./Drivers/STM32H7xx_HAL_Driver/Src/stm32h7xx_hal_rcc_ex.c **** 
1035:./Drivers/STM32H7xx_HAL_Driver/Src/stm32h7xx_hal_rcc_ex.c ****     case RCC_LPTIM345CLKSOURCE_PLL2: /* PLL2 is used as clock source for LPTIM3/4/5 */
1036:./Drivers/STM32H7xx_HAL_Driver/Src/stm32h7xx_hal_rcc_ex.c ****       ret = RCCEx_PLL2_Config(&(PeriphClkInit->PLL2),DIVIDER_P_UPDATE);
 1644              		.loc 1 1036 13
 1645 0a7e 7B68     		ldr	r3, [r7, #4]
 1646 0a80 0433     		adds	r3, r3, #4
 1647 0a82 0021     		movs	r1, #0
 1648 0a84 1846     		mov	r0, r3
 1649 0a86 FFF7FEFF 		bl	RCCEx_PLL2_Config
 1650 0a8a 0346     		mov	r3, r0
 1651 0a8c FB75     		strb	r3, [r7, #23]
1037:./Drivers/STM32H7xx_HAL_Driver/Src/stm32h7xx_hal_rcc_ex.c **** 
1038:./Drivers/STM32H7xx_HAL_Driver/Src/stm32h7xx_hal_rcc_ex.c ****       /* LPTIM3/4/5 clock source configuration done later after clock selection check */
1039:./Drivers/STM32H7xx_HAL_Driver/Src/stm32h7xx_hal_rcc_ex.c ****       break;
 1652              		.loc 1 1039 7
 1653 0a8e 12E0     		b	.L185
 1654              	.L177:
1040:./Drivers/STM32H7xx_HAL_Driver/Src/stm32h7xx_hal_rcc_ex.c **** 
1041:./Drivers/STM32H7xx_HAL_Driver/Src/stm32h7xx_hal_rcc_ex.c ****     case RCC_LPTIM345CLKSOURCE_PLL3:  /* PLL3 is used as clock source for LPTIM3/4/5 */
1042:./Drivers/STM32H7xx_HAL_Driver/Src/stm32h7xx_hal_rcc_ex.c ****       ret = RCCEx_PLL3_Config(&(PeriphClkInit->PLL3),DIVIDER_R_UPDATE);
 1655              		.loc 1 1042 13
 1656 0a90 7B68     		ldr	r3, [r7, #4]
 1657 0a92 2433     		adds	r3, r3, #36
ARM GAS  /tmp/cctM9lCy.s 			page 49


 1658 0a94 0221     		movs	r1, #2
 1659 0a96 1846     		mov	r0, r3
 1660 0a98 FFF7FEFF 		bl	RCCEx_PLL3_Config
 1661 0a9c 0346     		mov	r3, r0
 1662 0a9e FB75     		strb	r3, [r7, #23]
1043:./Drivers/STM32H7xx_HAL_Driver/Src/stm32h7xx_hal_rcc_ex.c **** 
1044:./Drivers/STM32H7xx_HAL_Driver/Src/stm32h7xx_hal_rcc_ex.c ****       /* LPTIM3/4/5 clock source configuration done later after clock selection check */
1045:./Drivers/STM32H7xx_HAL_Driver/Src/stm32h7xx_hal_rcc_ex.c ****       break;
 1663              		.loc 1 1045 7
 1664 0aa0 09E0     		b	.L185
 1665              	.L181:
1046:./Drivers/STM32H7xx_HAL_Driver/Src/stm32h7xx_hal_rcc_ex.c **** 
1047:./Drivers/STM32H7xx_HAL_Driver/Src/stm32h7xx_hal_rcc_ex.c ****     case RCC_LPTIM345CLKSOURCE_LSE:
1048:./Drivers/STM32H7xx_HAL_Driver/Src/stm32h7xx_hal_rcc_ex.c ****       /* External low speed OSC clock is used as source of LPTIM3/4/5 clock */
1049:./Drivers/STM32H7xx_HAL_Driver/Src/stm32h7xx_hal_rcc_ex.c ****       /* LPTIM3/4/5 clock source configuration done later after clock selection check */
1050:./Drivers/STM32H7xx_HAL_Driver/Src/stm32h7xx_hal_rcc_ex.c ****       break;
1051:./Drivers/STM32H7xx_HAL_Driver/Src/stm32h7xx_hal_rcc_ex.c **** 
1052:./Drivers/STM32H7xx_HAL_Driver/Src/stm32h7xx_hal_rcc_ex.c ****     case RCC_LPTIM345CLKSOURCE_LSI:
1053:./Drivers/STM32H7xx_HAL_Driver/Src/stm32h7xx_hal_rcc_ex.c ****       /* Internal  low speed OSC clock is used  as source of LPTIM3/4/5 clock */
1054:./Drivers/STM32H7xx_HAL_Driver/Src/stm32h7xx_hal_rcc_ex.c ****       /* LPTIM3/4/5 clock source configuration done later after clock selection check */
1055:./Drivers/STM32H7xx_HAL_Driver/Src/stm32h7xx_hal_rcc_ex.c ****       break;
1056:./Drivers/STM32H7xx_HAL_Driver/Src/stm32h7xx_hal_rcc_ex.c ****     case RCC_LPTIM345CLKSOURCE_CLKP:
1057:./Drivers/STM32H7xx_HAL_Driver/Src/stm32h7xx_hal_rcc_ex.c ****       /* HSI, HSE, or CSI oscillator is used as source of LPTIM3/4/5 clock */
1058:./Drivers/STM32H7xx_HAL_Driver/Src/stm32h7xx_hal_rcc_ex.c ****       /* LPTIM3/4/5 clock source configuration done later after clock selection check */
1059:./Drivers/STM32H7xx_HAL_Driver/Src/stm32h7xx_hal_rcc_ex.c ****       break;
1060:./Drivers/STM32H7xx_HAL_Driver/Src/stm32h7xx_hal_rcc_ex.c **** 
1061:./Drivers/STM32H7xx_HAL_Driver/Src/stm32h7xx_hal_rcc_ex.c ****     default:
1062:./Drivers/STM32H7xx_HAL_Driver/Src/stm32h7xx_hal_rcc_ex.c ****       ret = HAL_ERROR;
 1666              		.loc 1 1062 11
 1667 0aa2 0123     		movs	r3, #1
 1668 0aa4 FB75     		strb	r3, [r7, #23]
1063:./Drivers/STM32H7xx_HAL_Driver/Src/stm32h7xx_hal_rcc_ex.c ****       break;
 1669              		.loc 1 1063 7
 1670 0aa6 06E0     		b	.L185
 1671              	.L263:
1033:./Drivers/STM32H7xx_HAL_Driver/Src/stm32h7xx_hal_rcc_ex.c **** 
 1672              		.loc 1 1033 7
 1673 0aa8 00BF     		nop
 1674 0aaa 04E0     		b	.L185
 1675              	.L264:
1055:./Drivers/STM32H7xx_HAL_Driver/Src/stm32h7xx_hal_rcc_ex.c ****     case RCC_LPTIM345CLKSOURCE_CLKP:
 1676              		.loc 1 1055 7
 1677 0aac 00BF     		nop
 1678 0aae 02E0     		b	.L185
 1679              	.L265:
1059:./Drivers/STM32H7xx_HAL_Driver/Src/stm32h7xx_hal_rcc_ex.c **** 
 1680              		.loc 1 1059 7
 1681 0ab0 00BF     		nop
 1682 0ab2 00E0     		b	.L185
 1683              	.L266:
1050:./Drivers/STM32H7xx_HAL_Driver/Src/stm32h7xx_hal_rcc_ex.c **** 
 1684              		.loc 1 1050 7
 1685 0ab4 00BF     		nop
 1686              	.L185:
1064:./Drivers/STM32H7xx_HAL_Driver/Src/stm32h7xx_hal_rcc_ex.c ****     }
1065:./Drivers/STM32H7xx_HAL_Driver/Src/stm32h7xx_hal_rcc_ex.c **** 
1066:./Drivers/STM32H7xx_HAL_Driver/Src/stm32h7xx_hal_rcc_ex.c ****     if(ret == HAL_OK)
ARM GAS  /tmp/cctM9lCy.s 			page 50


 1687              		.loc 1 1066 7
 1688 0ab6 FB7D     		ldrb	r3, [r7, #23]	@ zero_extendqisi2
 1689 0ab8 002B     		cmp	r3, #0
 1690 0aba 0AD1     		bne	.L186
1067:./Drivers/STM32H7xx_HAL_Driver/Src/stm32h7xx_hal_rcc_ex.c ****     {
1068:./Drivers/STM32H7xx_HAL_Driver/Src/stm32h7xx_hal_rcc_ex.c ****       /* Set the source of LPTIM3/4/5 clock */
1069:./Drivers/STM32H7xx_HAL_Driver/Src/stm32h7xx_hal_rcc_ex.c ****       __HAL_RCC_LPTIM345_CONFIG(PeriphClkInit->Lptim345ClockSelection);
 1691              		.loc 1 1069 7
 1692 0abc 424B     		ldr	r3, .L278
 1693 0abe 9B6D     		ldr	r3, [r3, #88]
 1694 0ac0 23F46042 		bic	r2, r3, #57344
 1695 0ac4 7B68     		ldr	r3, [r7, #4]
 1696 0ac6 D3F89C30 		ldr	r3, [r3, #156]
 1697 0aca 3F49     		ldr	r1, .L278
 1698 0acc 1343     		orrs	r3, r3, r2
 1699 0ace 8B65     		str	r3, [r1, #88]
 1700 0ad0 01E0     		b	.L176
 1701              	.L186:
1070:./Drivers/STM32H7xx_HAL_Driver/Src/stm32h7xx_hal_rcc_ex.c ****     }
1071:./Drivers/STM32H7xx_HAL_Driver/Src/stm32h7xx_hal_rcc_ex.c ****     else
1072:./Drivers/STM32H7xx_HAL_Driver/Src/stm32h7xx_hal_rcc_ex.c ****     {
1073:./Drivers/STM32H7xx_HAL_Driver/Src/stm32h7xx_hal_rcc_ex.c ****       /* set overall return value */
1074:./Drivers/STM32H7xx_HAL_Driver/Src/stm32h7xx_hal_rcc_ex.c ****       status = ret;
 1702              		.loc 1 1074 14
 1703 0ad2 FB7D     		ldrb	r3, [r7, #23]
 1704 0ad4 BB75     		strb	r3, [r7, #22]
 1705              	.L176:
1075:./Drivers/STM32H7xx_HAL_Driver/Src/stm32h7xx_hal_rcc_ex.c ****     }
1076:./Drivers/STM32H7xx_HAL_Driver/Src/stm32h7xx_hal_rcc_ex.c ****   }
1077:./Drivers/STM32H7xx_HAL_Driver/Src/stm32h7xx_hal_rcc_ex.c **** 
1078:./Drivers/STM32H7xx_HAL_Driver/Src/stm32h7xx_hal_rcc_ex.c ****   /*------------------------------ I2C1/2/3 Configuration ------------------------*/
1079:./Drivers/STM32H7xx_HAL_Driver/Src/stm32h7xx_hal_rcc_ex.c ****   if(((PeriphClkInit->PeriphClockSelection) & RCC_PERIPHCLK_I2C123) == RCC_PERIPHCLK_I2C123)
 1706              		.loc 1 1079 21
 1707 0ad6 7B68     		ldr	r3, [r7, #4]
 1708 0ad8 1B68     		ldr	r3, [r3]
 1709              		.loc 1 1079 45
 1710 0ada 03F00803 		and	r3, r3, #8
 1711              		.loc 1 1079 5
 1712 0ade 002B     		cmp	r3, #0
 1713 0ae0 1BD0     		beq	.L187
1080:./Drivers/STM32H7xx_HAL_Driver/Src/stm32h7xx_hal_rcc_ex.c ****   {
1081:./Drivers/STM32H7xx_HAL_Driver/Src/stm32h7xx_hal_rcc_ex.c ****     /* Check the parameters */
1082:./Drivers/STM32H7xx_HAL_Driver/Src/stm32h7xx_hal_rcc_ex.c ****     assert_param(IS_RCC_I2C123CLKSOURCE(PeriphClkInit->I2c123ClockSelection));
1083:./Drivers/STM32H7xx_HAL_Driver/Src/stm32h7xx_hal_rcc_ex.c **** 
1084:./Drivers/STM32H7xx_HAL_Driver/Src/stm32h7xx_hal_rcc_ex.c ****     if ((PeriphClkInit->I2c123ClockSelection )== RCC_I2C123CLKSOURCE_PLL3 )
 1714              		.loc 1 1084 23
 1715 0ae2 7B68     		ldr	r3, [r7, #4]
 1716 0ae4 D3F88030 		ldr	r3, [r3, #128]
 1717              		.loc 1 1084 8
 1718 0ae8 B3F5805F 		cmp	r3, #4096
 1719 0aec 0BD1     		bne	.L188
1085:./Drivers/STM32H7xx_HAL_Driver/Src/stm32h7xx_hal_rcc_ex.c ****     {
1086:./Drivers/STM32H7xx_HAL_Driver/Src/stm32h7xx_hal_rcc_ex.c ****         if(RCCEx_PLL3_Config(&(PeriphClkInit->PLL3),DIVIDER_R_UPDATE)!= HAL_OK)
 1720              		.loc 1 1086 12
 1721 0aee 7B68     		ldr	r3, [r7, #4]
 1722 0af0 2433     		adds	r3, r3, #36
 1723 0af2 0221     		movs	r1, #2
ARM GAS  /tmp/cctM9lCy.s 			page 51


 1724 0af4 1846     		mov	r0, r3
 1725 0af6 FFF7FEFF 		bl	RCCEx_PLL3_Config
 1726 0afa 0346     		mov	r3, r0
 1727              		.loc 1 1086 11
 1728 0afc 002B     		cmp	r3, #0
 1729 0afe 0CD0     		beq	.L187
1087:./Drivers/STM32H7xx_HAL_Driver/Src/stm32h7xx_hal_rcc_ex.c ****         {
1088:./Drivers/STM32H7xx_HAL_Driver/Src/stm32h7xx_hal_rcc_ex.c ****           status = HAL_ERROR;
 1730              		.loc 1 1088 18
 1731 0b00 0123     		movs	r3, #1
 1732 0b02 BB75     		strb	r3, [r7, #22]
 1733 0b04 09E0     		b	.L187
 1734              	.L188:
1089:./Drivers/STM32H7xx_HAL_Driver/Src/stm32h7xx_hal_rcc_ex.c ****         }
1090:./Drivers/STM32H7xx_HAL_Driver/Src/stm32h7xx_hal_rcc_ex.c ****     }
1091:./Drivers/STM32H7xx_HAL_Driver/Src/stm32h7xx_hal_rcc_ex.c **** 
1092:./Drivers/STM32H7xx_HAL_Driver/Src/stm32h7xx_hal_rcc_ex.c ****     else
1093:./Drivers/STM32H7xx_HAL_Driver/Src/stm32h7xx_hal_rcc_ex.c ****     {
1094:./Drivers/STM32H7xx_HAL_Driver/Src/stm32h7xx_hal_rcc_ex.c ****       __HAL_RCC_I2C123_CONFIG(PeriphClkInit->I2c123ClockSelection);
 1735              		.loc 1 1094 7
 1736 0b06 304B     		ldr	r3, .L278
 1737 0b08 5B6D     		ldr	r3, [r3, #84]
 1738 0b0a 23F44052 		bic	r2, r3, #12288
 1739 0b0e 7B68     		ldr	r3, [r7, #4]
 1740 0b10 D3F88030 		ldr	r3, [r3, #128]
 1741 0b14 2C49     		ldr	r1, .L278
 1742 0b16 1343     		orrs	r3, r3, r2
 1743 0b18 4B65     		str	r3, [r1, #84]
 1744              	.L187:
1095:./Drivers/STM32H7xx_HAL_Driver/Src/stm32h7xx_hal_rcc_ex.c ****     }
1096:./Drivers/STM32H7xx_HAL_Driver/Src/stm32h7xx_hal_rcc_ex.c **** 
1097:./Drivers/STM32H7xx_HAL_Driver/Src/stm32h7xx_hal_rcc_ex.c ****   }
1098:./Drivers/STM32H7xx_HAL_Driver/Src/stm32h7xx_hal_rcc_ex.c **** 
1099:./Drivers/STM32H7xx_HAL_Driver/Src/stm32h7xx_hal_rcc_ex.c ****   /*------------------------------ I2C4 Configuration ------------------------*/
1100:./Drivers/STM32H7xx_HAL_Driver/Src/stm32h7xx_hal_rcc_ex.c ****   if(((PeriphClkInit->PeriphClockSelection) & RCC_PERIPHCLK_I2C4) == RCC_PERIPHCLK_I2C4)
 1745              		.loc 1 1100 21
 1746 0b1a 7B68     		ldr	r3, [r7, #4]
 1747 0b1c 1B68     		ldr	r3, [r3]
 1748              		.loc 1 1100 45
 1749 0b1e 03F01003 		and	r3, r3, #16
 1750              		.loc 1 1100 5
 1751 0b22 002B     		cmp	r3, #0
 1752 0b24 1BD0     		beq	.L190
1101:./Drivers/STM32H7xx_HAL_Driver/Src/stm32h7xx_hal_rcc_ex.c ****   {
1102:./Drivers/STM32H7xx_HAL_Driver/Src/stm32h7xx_hal_rcc_ex.c ****     /* Check the parameters */
1103:./Drivers/STM32H7xx_HAL_Driver/Src/stm32h7xx_hal_rcc_ex.c ****     assert_param(IS_RCC_I2C4CLKSOURCE(PeriphClkInit->I2c4ClockSelection));
1104:./Drivers/STM32H7xx_HAL_Driver/Src/stm32h7xx_hal_rcc_ex.c **** 
1105:./Drivers/STM32H7xx_HAL_Driver/Src/stm32h7xx_hal_rcc_ex.c ****     if ((PeriphClkInit->I2c4ClockSelection) == RCC_I2C4CLKSOURCE_PLL3 )
 1753              		.loc 1 1105 23
 1754 0b26 7B68     		ldr	r3, [r7, #4]
 1755 0b28 D3F89430 		ldr	r3, [r3, #148]
 1756              		.loc 1 1105 8
 1757 0b2c B3F5807F 		cmp	r3, #256
 1758 0b30 0BD1     		bne	.L191
1106:./Drivers/STM32H7xx_HAL_Driver/Src/stm32h7xx_hal_rcc_ex.c ****     {
1107:./Drivers/STM32H7xx_HAL_Driver/Src/stm32h7xx_hal_rcc_ex.c ****       if(RCCEx_PLL3_Config(&(PeriphClkInit->PLL3),DIVIDER_R_UPDATE)!= HAL_OK)
 1759              		.loc 1 1107 10
ARM GAS  /tmp/cctM9lCy.s 			page 52


 1760 0b32 7B68     		ldr	r3, [r7, #4]
 1761 0b34 2433     		adds	r3, r3, #36
 1762 0b36 0221     		movs	r1, #2
 1763 0b38 1846     		mov	r0, r3
 1764 0b3a FFF7FEFF 		bl	RCCEx_PLL3_Config
 1765 0b3e 0346     		mov	r3, r0
 1766              		.loc 1 1107 9
 1767 0b40 002B     		cmp	r3, #0
 1768 0b42 0CD0     		beq	.L190
1108:./Drivers/STM32H7xx_HAL_Driver/Src/stm32h7xx_hal_rcc_ex.c ****       {
1109:./Drivers/STM32H7xx_HAL_Driver/Src/stm32h7xx_hal_rcc_ex.c ****         status = HAL_ERROR;
 1769              		.loc 1 1109 16
 1770 0b44 0123     		movs	r3, #1
 1771 0b46 BB75     		strb	r3, [r7, #22]
 1772 0b48 09E0     		b	.L190
 1773              	.L191:
1110:./Drivers/STM32H7xx_HAL_Driver/Src/stm32h7xx_hal_rcc_ex.c ****       }
1111:./Drivers/STM32H7xx_HAL_Driver/Src/stm32h7xx_hal_rcc_ex.c ****     }
1112:./Drivers/STM32H7xx_HAL_Driver/Src/stm32h7xx_hal_rcc_ex.c **** 
1113:./Drivers/STM32H7xx_HAL_Driver/Src/stm32h7xx_hal_rcc_ex.c ****     else
1114:./Drivers/STM32H7xx_HAL_Driver/Src/stm32h7xx_hal_rcc_ex.c ****     {
1115:./Drivers/STM32H7xx_HAL_Driver/Src/stm32h7xx_hal_rcc_ex.c ****       __HAL_RCC_I2C4_CONFIG(PeriphClkInit->I2c4ClockSelection);
 1774              		.loc 1 1115 7
 1775 0b4a 1F4B     		ldr	r3, .L278
 1776 0b4c 9B6D     		ldr	r3, [r3, #88]
 1777 0b4e 23F44072 		bic	r2, r3, #768
 1778 0b52 7B68     		ldr	r3, [r7, #4]
 1779 0b54 D3F89430 		ldr	r3, [r3, #148]
 1780 0b58 1B49     		ldr	r1, .L278
 1781 0b5a 1343     		orrs	r3, r3, r2
 1782 0b5c 8B65     		str	r3, [r1, #88]
 1783              	.L190:
1116:./Drivers/STM32H7xx_HAL_Driver/Src/stm32h7xx_hal_rcc_ex.c ****     }
1117:./Drivers/STM32H7xx_HAL_Driver/Src/stm32h7xx_hal_rcc_ex.c ****   }
1118:./Drivers/STM32H7xx_HAL_Driver/Src/stm32h7xx_hal_rcc_ex.c **** 
1119:./Drivers/STM32H7xx_HAL_Driver/Src/stm32h7xx_hal_rcc_ex.c ****   /*---------------------------- ADC configuration -------------------------------*/
1120:./Drivers/STM32H7xx_HAL_Driver/Src/stm32h7xx_hal_rcc_ex.c ****   if(((PeriphClkInit->PeriphClockSelection) & RCC_PERIPHCLK_ADC) == RCC_PERIPHCLK_ADC)
 1784              		.loc 1 1120 21
 1785 0b5e 7B68     		ldr	r3, [r7, #4]
 1786 0b60 1B68     		ldr	r3, [r3]
 1787              		.loc 1 1120 45
 1788 0b62 03F40023 		and	r3, r3, #524288
 1789              		.loc 1 1120 5
 1790 0b66 002B     		cmp	r3, #0
 1791 0b68 32D0     		beq	.L193
1121:./Drivers/STM32H7xx_HAL_Driver/Src/stm32h7xx_hal_rcc_ex.c ****   {
1122:./Drivers/STM32H7xx_HAL_Driver/Src/stm32h7xx_hal_rcc_ex.c ****     switch(PeriphClkInit->AdcClockSelection)
 1792              		.loc 1 1122 25
 1793 0b6a 7B68     		ldr	r3, [r7, #4]
 1794 0b6c D3F8A030 		ldr	r3, [r3, #160]
 1795              		.loc 1 1122 5
 1796 0b70 B3F5803F 		cmp	r3, #65536
 1797 0b74 0DD0     		beq	.L194
 1798 0b76 B3F5003F 		cmp	r3, #131072
 1799 0b7a 16D0     		beq	.L267
 1800 0b7c 002B     		cmp	r3, #0
 1801 0b7e 11D1     		bne	.L196
ARM GAS  /tmp/cctM9lCy.s 			page 53


1123:./Drivers/STM32H7xx_HAL_Driver/Src/stm32h7xx_hal_rcc_ex.c ****     {
1124:./Drivers/STM32H7xx_HAL_Driver/Src/stm32h7xx_hal_rcc_ex.c **** 
1125:./Drivers/STM32H7xx_HAL_Driver/Src/stm32h7xx_hal_rcc_ex.c ****     case RCC_ADCCLKSOURCE_PLL2: /* PLL2 is used as clock source for ADC*/
1126:./Drivers/STM32H7xx_HAL_Driver/Src/stm32h7xx_hal_rcc_ex.c **** 
1127:./Drivers/STM32H7xx_HAL_Driver/Src/stm32h7xx_hal_rcc_ex.c ****       ret = RCCEx_PLL2_Config(&(PeriphClkInit->PLL2),DIVIDER_P_UPDATE);
 1802              		.loc 1 1127 13
 1803 0b80 7B68     		ldr	r3, [r7, #4]
 1804 0b82 0433     		adds	r3, r3, #4
 1805 0b84 0021     		movs	r1, #0
 1806 0b86 1846     		mov	r0, r3
 1807 0b88 FFF7FEFF 		bl	RCCEx_PLL2_Config
 1808 0b8c 0346     		mov	r3, r0
 1809 0b8e FB75     		strb	r3, [r7, #23]
1128:./Drivers/STM32H7xx_HAL_Driver/Src/stm32h7xx_hal_rcc_ex.c **** 
1129:./Drivers/STM32H7xx_HAL_Driver/Src/stm32h7xx_hal_rcc_ex.c ****       /* ADC clock source configuration done later after clock selection check */
1130:./Drivers/STM32H7xx_HAL_Driver/Src/stm32h7xx_hal_rcc_ex.c ****       break;
 1810              		.loc 1 1130 7
 1811 0b90 0CE0     		b	.L197
 1812              	.L194:
1131:./Drivers/STM32H7xx_HAL_Driver/Src/stm32h7xx_hal_rcc_ex.c **** 
1132:./Drivers/STM32H7xx_HAL_Driver/Src/stm32h7xx_hal_rcc_ex.c ****     case RCC_ADCCLKSOURCE_PLL3:  /* PLL3 is used as clock source for ADC*/
1133:./Drivers/STM32H7xx_HAL_Driver/Src/stm32h7xx_hal_rcc_ex.c ****       ret = RCCEx_PLL3_Config(&(PeriphClkInit->PLL3),DIVIDER_R_UPDATE);
 1813              		.loc 1 1133 13
 1814 0b92 7B68     		ldr	r3, [r7, #4]
 1815 0b94 2433     		adds	r3, r3, #36
 1816 0b96 0221     		movs	r1, #2
 1817 0b98 1846     		mov	r0, r3
 1818 0b9a FFF7FEFF 		bl	RCCEx_PLL3_Config
 1819 0b9e 0346     		mov	r3, r0
 1820 0ba0 FB75     		strb	r3, [r7, #23]
1134:./Drivers/STM32H7xx_HAL_Driver/Src/stm32h7xx_hal_rcc_ex.c **** 
1135:./Drivers/STM32H7xx_HAL_Driver/Src/stm32h7xx_hal_rcc_ex.c ****       /* ADC clock source configuration done later after clock selection check */
1136:./Drivers/STM32H7xx_HAL_Driver/Src/stm32h7xx_hal_rcc_ex.c ****       break;
 1821              		.loc 1 1136 7
 1822 0ba2 03E0     		b	.L197
 1823              	.L196:
1137:./Drivers/STM32H7xx_HAL_Driver/Src/stm32h7xx_hal_rcc_ex.c **** 
1138:./Drivers/STM32H7xx_HAL_Driver/Src/stm32h7xx_hal_rcc_ex.c ****     case RCC_ADCCLKSOURCE_CLKP:
1139:./Drivers/STM32H7xx_HAL_Driver/Src/stm32h7xx_hal_rcc_ex.c ****       /* HSI, HSE, or CSI oscillator is used as source of ADC clock */
1140:./Drivers/STM32H7xx_HAL_Driver/Src/stm32h7xx_hal_rcc_ex.c ****       /* ADC clock source configuration done later after clock selection check */
1141:./Drivers/STM32H7xx_HAL_Driver/Src/stm32h7xx_hal_rcc_ex.c ****       break;
1142:./Drivers/STM32H7xx_HAL_Driver/Src/stm32h7xx_hal_rcc_ex.c **** 
1143:./Drivers/STM32H7xx_HAL_Driver/Src/stm32h7xx_hal_rcc_ex.c ****     default:
1144:./Drivers/STM32H7xx_HAL_Driver/Src/stm32h7xx_hal_rcc_ex.c ****       ret = HAL_ERROR;
 1824              		.loc 1 1144 11
 1825 0ba4 0123     		movs	r3, #1
 1826 0ba6 FB75     		strb	r3, [r7, #23]
1145:./Drivers/STM32H7xx_HAL_Driver/Src/stm32h7xx_hal_rcc_ex.c ****       break;
 1827              		.loc 1 1145 7
 1828 0ba8 00E0     		b	.L197
 1829              	.L267:
1141:./Drivers/STM32H7xx_HAL_Driver/Src/stm32h7xx_hal_rcc_ex.c **** 
 1830              		.loc 1 1141 7
 1831 0baa 00BF     		nop
 1832              	.L197:
1146:./Drivers/STM32H7xx_HAL_Driver/Src/stm32h7xx_hal_rcc_ex.c ****     }
1147:./Drivers/STM32H7xx_HAL_Driver/Src/stm32h7xx_hal_rcc_ex.c **** 
ARM GAS  /tmp/cctM9lCy.s 			page 54


1148:./Drivers/STM32H7xx_HAL_Driver/Src/stm32h7xx_hal_rcc_ex.c ****     if(ret == HAL_OK)
 1833              		.loc 1 1148 7
 1834 0bac FB7D     		ldrb	r3, [r7, #23]	@ zero_extendqisi2
 1835 0bae 002B     		cmp	r3, #0
 1836 0bb0 0CD1     		bne	.L198
1149:./Drivers/STM32H7xx_HAL_Driver/Src/stm32h7xx_hal_rcc_ex.c ****     {
1150:./Drivers/STM32H7xx_HAL_Driver/Src/stm32h7xx_hal_rcc_ex.c ****       /* Set the source of ADC clock*/
1151:./Drivers/STM32H7xx_HAL_Driver/Src/stm32h7xx_hal_rcc_ex.c ****       __HAL_RCC_ADC_CONFIG(PeriphClkInit->AdcClockSelection);
 1837              		.loc 1 1151 7
 1838 0bb2 054B     		ldr	r3, .L278
 1839 0bb4 9B6D     		ldr	r3, [r3, #88]
 1840 0bb6 23F44032 		bic	r2, r3, #196608
 1841 0bba 7B68     		ldr	r3, [r7, #4]
 1842 0bbc D3F8A030 		ldr	r3, [r3, #160]
 1843 0bc0 0149     		ldr	r1, .L278
 1844 0bc2 1343     		orrs	r3, r3, r2
 1845 0bc4 8B65     		str	r3, [r1, #88]
 1846 0bc6 03E0     		b	.L193
 1847              	.L279:
 1848              		.align	2
 1849              	.L278:
 1850 0bc8 00440258 		.word	1476543488
 1851              	.L198:
1152:./Drivers/STM32H7xx_HAL_Driver/Src/stm32h7xx_hal_rcc_ex.c ****     }
1153:./Drivers/STM32H7xx_HAL_Driver/Src/stm32h7xx_hal_rcc_ex.c ****     else
1154:./Drivers/STM32H7xx_HAL_Driver/Src/stm32h7xx_hal_rcc_ex.c ****     {
1155:./Drivers/STM32H7xx_HAL_Driver/Src/stm32h7xx_hal_rcc_ex.c ****       /* set overall return value */
1156:./Drivers/STM32H7xx_HAL_Driver/Src/stm32h7xx_hal_rcc_ex.c ****       status = ret;
 1852              		.loc 1 1156 14
 1853 0bcc FB7D     		ldrb	r3, [r7, #23]
 1854 0bce BB75     		strb	r3, [r7, #22]
 1855              	.L193:
1157:./Drivers/STM32H7xx_HAL_Driver/Src/stm32h7xx_hal_rcc_ex.c ****     }
1158:./Drivers/STM32H7xx_HAL_Driver/Src/stm32h7xx_hal_rcc_ex.c ****   }
1159:./Drivers/STM32H7xx_HAL_Driver/Src/stm32h7xx_hal_rcc_ex.c **** 
1160:./Drivers/STM32H7xx_HAL_Driver/Src/stm32h7xx_hal_rcc_ex.c ****   /*------------------------------ USB Configuration -------------------------*/
1161:./Drivers/STM32H7xx_HAL_Driver/Src/stm32h7xx_hal_rcc_ex.c ****   if(((PeriphClkInit->PeriphClockSelection) & RCC_PERIPHCLK_USB) == RCC_PERIPHCLK_USB)
 1856              		.loc 1 1161 21
 1857 0bd0 7B68     		ldr	r3, [r7, #4]
 1858 0bd2 1B68     		ldr	r3, [r3]
 1859              		.loc 1 1161 45
 1860 0bd4 03F48023 		and	r3, r3, #262144
 1861              		.loc 1 1161 5
 1862 0bd8 002B     		cmp	r3, #0
 1863 0bda 2FD0     		beq	.L199
1162:./Drivers/STM32H7xx_HAL_Driver/Src/stm32h7xx_hal_rcc_ex.c ****   {
1163:./Drivers/STM32H7xx_HAL_Driver/Src/stm32h7xx_hal_rcc_ex.c **** 
1164:./Drivers/STM32H7xx_HAL_Driver/Src/stm32h7xx_hal_rcc_ex.c ****     switch(PeriphClkInit->UsbClockSelection)
 1864              		.loc 1 1164 25
 1865 0bdc 7B68     		ldr	r3, [r7, #4]
 1866 0bde D3F88430 		ldr	r3, [r3, #132]
 1867              		.loc 1 1164 5
 1868 0be2 B3F5001F 		cmp	r3, #2097152
 1869 0be6 0CD0     		beq	.L200
 1870 0be8 B3F5401F 		cmp	r3, #3145728
 1871 0bec 15D0     		beq	.L268
 1872 0bee B3F5801F 		cmp	r3, #1048576
ARM GAS  /tmp/cctM9lCy.s 			page 55


 1873 0bf2 0FD1     		bne	.L202
1165:./Drivers/STM32H7xx_HAL_Driver/Src/stm32h7xx_hal_rcc_ex.c ****     {
1166:./Drivers/STM32H7xx_HAL_Driver/Src/stm32h7xx_hal_rcc_ex.c ****     case RCC_USBCLKSOURCE_PLL:      /* PLL is used as clock source for USB*/
1167:./Drivers/STM32H7xx_HAL_Driver/Src/stm32h7xx_hal_rcc_ex.c ****       /* Enable USB Clock output generated form System USB . */
1168:./Drivers/STM32H7xx_HAL_Driver/Src/stm32h7xx_hal_rcc_ex.c ****       __HAL_RCC_PLLCLKOUT_ENABLE(RCC_PLL1_DIVQ);
 1874              		.loc 1 1168 7
 1875 0bf4 794B     		ldr	r3, .L280
 1876 0bf6 DB6A     		ldr	r3, [r3, #44]
 1877 0bf8 784A     		ldr	r2, .L280
 1878 0bfa 43F40033 		orr	r3, r3, #131072
 1879 0bfe D362     		str	r3, [r2, #44]
1169:./Drivers/STM32H7xx_HAL_Driver/Src/stm32h7xx_hal_rcc_ex.c **** 
1170:./Drivers/STM32H7xx_HAL_Driver/Src/stm32h7xx_hal_rcc_ex.c ****       /* USB clock source configuration done later after clock selection check */
1171:./Drivers/STM32H7xx_HAL_Driver/Src/stm32h7xx_hal_rcc_ex.c ****       break;
 1880              		.loc 1 1171 7
 1881 0c00 0CE0     		b	.L203
 1882              	.L200:
1172:./Drivers/STM32H7xx_HAL_Driver/Src/stm32h7xx_hal_rcc_ex.c **** 
1173:./Drivers/STM32H7xx_HAL_Driver/Src/stm32h7xx_hal_rcc_ex.c ****     case RCC_USBCLKSOURCE_PLL3: /* PLL3 is used as clock source for USB*/
1174:./Drivers/STM32H7xx_HAL_Driver/Src/stm32h7xx_hal_rcc_ex.c **** 
1175:./Drivers/STM32H7xx_HAL_Driver/Src/stm32h7xx_hal_rcc_ex.c ****       ret = RCCEx_PLL3_Config(&(PeriphClkInit->PLL3),DIVIDER_Q_UPDATE);
 1883              		.loc 1 1175 13
 1884 0c02 7B68     		ldr	r3, [r7, #4]
 1885 0c04 2433     		adds	r3, r3, #36
 1886 0c06 0121     		movs	r1, #1
 1887 0c08 1846     		mov	r0, r3
 1888 0c0a FFF7FEFF 		bl	RCCEx_PLL3_Config
 1889 0c0e 0346     		mov	r3, r0
 1890 0c10 FB75     		strb	r3, [r7, #23]
1176:./Drivers/STM32H7xx_HAL_Driver/Src/stm32h7xx_hal_rcc_ex.c **** 
1177:./Drivers/STM32H7xx_HAL_Driver/Src/stm32h7xx_hal_rcc_ex.c ****       /* USB clock source configuration done later after clock selection check */
1178:./Drivers/STM32H7xx_HAL_Driver/Src/stm32h7xx_hal_rcc_ex.c ****       break;
 1891              		.loc 1 1178 7
 1892 0c12 03E0     		b	.L203
 1893              	.L202:
1179:./Drivers/STM32H7xx_HAL_Driver/Src/stm32h7xx_hal_rcc_ex.c **** 
1180:./Drivers/STM32H7xx_HAL_Driver/Src/stm32h7xx_hal_rcc_ex.c ****     case RCC_USBCLKSOURCE_HSI48:
1181:./Drivers/STM32H7xx_HAL_Driver/Src/stm32h7xx_hal_rcc_ex.c ****       /* HSI48 oscillator is used as source of USB clock */
1182:./Drivers/STM32H7xx_HAL_Driver/Src/stm32h7xx_hal_rcc_ex.c ****       /* USB clock source configuration done later after clock selection check */
1183:./Drivers/STM32H7xx_HAL_Driver/Src/stm32h7xx_hal_rcc_ex.c ****       break;
1184:./Drivers/STM32H7xx_HAL_Driver/Src/stm32h7xx_hal_rcc_ex.c **** 
1185:./Drivers/STM32H7xx_HAL_Driver/Src/stm32h7xx_hal_rcc_ex.c ****     default:
1186:./Drivers/STM32H7xx_HAL_Driver/Src/stm32h7xx_hal_rcc_ex.c ****       ret = HAL_ERROR;
 1894              		.loc 1 1186 11
 1895 0c14 0123     		movs	r3, #1
 1896 0c16 FB75     		strb	r3, [r7, #23]
1187:./Drivers/STM32H7xx_HAL_Driver/Src/stm32h7xx_hal_rcc_ex.c ****       break;
 1897              		.loc 1 1187 7
 1898 0c18 00E0     		b	.L203
 1899              	.L268:
1183:./Drivers/STM32H7xx_HAL_Driver/Src/stm32h7xx_hal_rcc_ex.c **** 
 1900              		.loc 1 1183 7
 1901 0c1a 00BF     		nop
 1902              	.L203:
1188:./Drivers/STM32H7xx_HAL_Driver/Src/stm32h7xx_hal_rcc_ex.c ****     }
1189:./Drivers/STM32H7xx_HAL_Driver/Src/stm32h7xx_hal_rcc_ex.c **** 
1190:./Drivers/STM32H7xx_HAL_Driver/Src/stm32h7xx_hal_rcc_ex.c ****     if(ret == HAL_OK)
ARM GAS  /tmp/cctM9lCy.s 			page 56


 1903              		.loc 1 1190 7
 1904 0c1c FB7D     		ldrb	r3, [r7, #23]	@ zero_extendqisi2
 1905 0c1e 002B     		cmp	r3, #0
 1906 0c20 0AD1     		bne	.L204
1191:./Drivers/STM32H7xx_HAL_Driver/Src/stm32h7xx_hal_rcc_ex.c ****     {
1192:./Drivers/STM32H7xx_HAL_Driver/Src/stm32h7xx_hal_rcc_ex.c ****       /* Set the source of USB clock*/
1193:./Drivers/STM32H7xx_HAL_Driver/Src/stm32h7xx_hal_rcc_ex.c ****       __HAL_RCC_USB_CONFIG(PeriphClkInit->UsbClockSelection);
 1907              		.loc 1 1193 7
 1908 0c22 6E4B     		ldr	r3, .L280
 1909 0c24 5B6D     		ldr	r3, [r3, #84]
 1910 0c26 23F44012 		bic	r2, r3, #3145728
 1911 0c2a 7B68     		ldr	r3, [r7, #4]
 1912 0c2c D3F88430 		ldr	r3, [r3, #132]
 1913 0c30 6A49     		ldr	r1, .L280
 1914 0c32 1343     		orrs	r3, r3, r2
 1915 0c34 4B65     		str	r3, [r1, #84]
 1916 0c36 01E0     		b	.L199
 1917              	.L204:
1194:./Drivers/STM32H7xx_HAL_Driver/Src/stm32h7xx_hal_rcc_ex.c ****     }
1195:./Drivers/STM32H7xx_HAL_Driver/Src/stm32h7xx_hal_rcc_ex.c ****     else
1196:./Drivers/STM32H7xx_HAL_Driver/Src/stm32h7xx_hal_rcc_ex.c ****     {
1197:./Drivers/STM32H7xx_HAL_Driver/Src/stm32h7xx_hal_rcc_ex.c ****       /* set overall return value */
1198:./Drivers/STM32H7xx_HAL_Driver/Src/stm32h7xx_hal_rcc_ex.c ****       status = ret;
 1918              		.loc 1 1198 14
 1919 0c38 FB7D     		ldrb	r3, [r7, #23]
 1920 0c3a BB75     		strb	r3, [r7, #22]
 1921              	.L199:
1199:./Drivers/STM32H7xx_HAL_Driver/Src/stm32h7xx_hal_rcc_ex.c ****     }
1200:./Drivers/STM32H7xx_HAL_Driver/Src/stm32h7xx_hal_rcc_ex.c **** 
1201:./Drivers/STM32H7xx_HAL_Driver/Src/stm32h7xx_hal_rcc_ex.c ****   }
1202:./Drivers/STM32H7xx_HAL_Driver/Src/stm32h7xx_hal_rcc_ex.c **** 
1203:./Drivers/STM32H7xx_HAL_Driver/Src/stm32h7xx_hal_rcc_ex.c ****   /*------------------------------------- SDMMC Configuration ------------------------------------*
1204:./Drivers/STM32H7xx_HAL_Driver/Src/stm32h7xx_hal_rcc_ex.c ****   if(((PeriphClkInit->PeriphClockSelection) & RCC_PERIPHCLK_SDMMC) == RCC_PERIPHCLK_SDMMC)
 1922              		.loc 1 1204 21
 1923 0c3c 7B68     		ldr	r3, [r7, #4]
 1924 0c3e 1B68     		ldr	r3, [r3]
 1925              		.loc 1 1204 45
 1926 0c40 03F48033 		and	r3, r3, #65536
 1927              		.loc 1 1204 5
 1928 0c44 002B     		cmp	r3, #0
 1929 0c46 29D0     		beq	.L205
1205:./Drivers/STM32H7xx_HAL_Driver/Src/stm32h7xx_hal_rcc_ex.c ****   {
1206:./Drivers/STM32H7xx_HAL_Driver/Src/stm32h7xx_hal_rcc_ex.c ****     /* Check the parameters */
1207:./Drivers/STM32H7xx_HAL_Driver/Src/stm32h7xx_hal_rcc_ex.c ****     assert_param(IS_RCC_SDMMC(PeriphClkInit->SdmmcClockSelection));
1208:./Drivers/STM32H7xx_HAL_Driver/Src/stm32h7xx_hal_rcc_ex.c **** 
1209:./Drivers/STM32H7xx_HAL_Driver/Src/stm32h7xx_hal_rcc_ex.c ****     switch(PeriphClkInit->SdmmcClockSelection)
 1930              		.loc 1 1209 25
 1931 0c48 7B68     		ldr	r3, [r7, #4]
 1932 0c4a DB6C     		ldr	r3, [r3, #76]
 1933              		.loc 1 1209 5
 1934 0c4c 002B     		cmp	r3, #0
 1935 0c4e 03D0     		beq	.L206
 1936 0c50 B3F5803F 		cmp	r3, #65536
 1937 0c54 07D0     		beq	.L207
 1938 0c56 0FE0     		b	.L229
 1939              	.L206:
1210:./Drivers/STM32H7xx_HAL_Driver/Src/stm32h7xx_hal_rcc_ex.c ****     {
ARM GAS  /tmp/cctM9lCy.s 			page 57


1211:./Drivers/STM32H7xx_HAL_Driver/Src/stm32h7xx_hal_rcc_ex.c ****     case RCC_SDMMCCLKSOURCE_PLL:      /* PLL is used as clock source for SDMMC*/
1212:./Drivers/STM32H7xx_HAL_Driver/Src/stm32h7xx_hal_rcc_ex.c ****       /* Enable SDMMC Clock output generated form System PLL . */
1213:./Drivers/STM32H7xx_HAL_Driver/Src/stm32h7xx_hal_rcc_ex.c ****       __HAL_RCC_PLLCLKOUT_ENABLE(RCC_PLL1_DIVQ);
 1940              		.loc 1 1213 7
 1941 0c58 604B     		ldr	r3, .L280
 1942 0c5a DB6A     		ldr	r3, [r3, #44]
 1943 0c5c 5F4A     		ldr	r2, .L280
 1944 0c5e 43F40033 		orr	r3, r3, #131072
 1945 0c62 D362     		str	r3, [r2, #44]
1214:./Drivers/STM32H7xx_HAL_Driver/Src/stm32h7xx_hal_rcc_ex.c **** 
1215:./Drivers/STM32H7xx_HAL_Driver/Src/stm32h7xx_hal_rcc_ex.c ****       /* SDMMC clock source configuration done later after clock selection check */
1216:./Drivers/STM32H7xx_HAL_Driver/Src/stm32h7xx_hal_rcc_ex.c ****       break;
 1946              		.loc 1 1216 7
 1947 0c64 0BE0     		b	.L209
 1948              	.L207:
1217:./Drivers/STM32H7xx_HAL_Driver/Src/stm32h7xx_hal_rcc_ex.c **** 
1218:./Drivers/STM32H7xx_HAL_Driver/Src/stm32h7xx_hal_rcc_ex.c ****     case RCC_SDMMCCLKSOURCE_PLL2: /* PLL2 is used as clock source for SDMMC*/
1219:./Drivers/STM32H7xx_HAL_Driver/Src/stm32h7xx_hal_rcc_ex.c **** 
1220:./Drivers/STM32H7xx_HAL_Driver/Src/stm32h7xx_hal_rcc_ex.c ****       ret = RCCEx_PLL2_Config(&(PeriphClkInit->PLL2),DIVIDER_R_UPDATE);
 1949              		.loc 1 1220 13
 1950 0c66 7B68     		ldr	r3, [r7, #4]
 1951 0c68 0433     		adds	r3, r3, #4
 1952 0c6a 0221     		movs	r1, #2
 1953 0c6c 1846     		mov	r0, r3
 1954 0c6e FFF7FEFF 		bl	RCCEx_PLL2_Config
 1955 0c72 0346     		mov	r3, r0
 1956 0c74 FB75     		strb	r3, [r7, #23]
1221:./Drivers/STM32H7xx_HAL_Driver/Src/stm32h7xx_hal_rcc_ex.c **** 
1222:./Drivers/STM32H7xx_HAL_Driver/Src/stm32h7xx_hal_rcc_ex.c ****       /* SDMMC clock source configuration done later after clock selection check */
1223:./Drivers/STM32H7xx_HAL_Driver/Src/stm32h7xx_hal_rcc_ex.c ****       break;
 1957              		.loc 1 1223 7
 1958 0c76 02E0     		b	.L209
 1959              	.L229:
1224:./Drivers/STM32H7xx_HAL_Driver/Src/stm32h7xx_hal_rcc_ex.c **** 
1225:./Drivers/STM32H7xx_HAL_Driver/Src/stm32h7xx_hal_rcc_ex.c ****     default:
1226:./Drivers/STM32H7xx_HAL_Driver/Src/stm32h7xx_hal_rcc_ex.c ****       ret = HAL_ERROR;
 1960              		.loc 1 1226 11
 1961 0c78 0123     		movs	r3, #1
 1962 0c7a FB75     		strb	r3, [r7, #23]
1227:./Drivers/STM32H7xx_HAL_Driver/Src/stm32h7xx_hal_rcc_ex.c ****       break;
 1963              		.loc 1 1227 7
 1964 0c7c 00BF     		nop
 1965              	.L209:
1228:./Drivers/STM32H7xx_HAL_Driver/Src/stm32h7xx_hal_rcc_ex.c ****     }
1229:./Drivers/STM32H7xx_HAL_Driver/Src/stm32h7xx_hal_rcc_ex.c **** 
1230:./Drivers/STM32H7xx_HAL_Driver/Src/stm32h7xx_hal_rcc_ex.c ****     if(ret == HAL_OK)
 1966              		.loc 1 1230 7
 1967 0c7e FB7D     		ldrb	r3, [r7, #23]	@ zero_extendqisi2
 1968 0c80 002B     		cmp	r3, #0
 1969 0c82 09D1     		bne	.L210
1231:./Drivers/STM32H7xx_HAL_Driver/Src/stm32h7xx_hal_rcc_ex.c ****     {
1232:./Drivers/STM32H7xx_HAL_Driver/Src/stm32h7xx_hal_rcc_ex.c ****       /* Set the source of SDMMC clock*/
1233:./Drivers/STM32H7xx_HAL_Driver/Src/stm32h7xx_hal_rcc_ex.c ****       __HAL_RCC_SDMMC_CONFIG(PeriphClkInit->SdmmcClockSelection);
 1970              		.loc 1 1233 7
 1971 0c84 554B     		ldr	r3, .L280
 1972 0c86 DB6C     		ldr	r3, [r3, #76]
 1973 0c88 23F48032 		bic	r2, r3, #65536
ARM GAS  /tmp/cctM9lCy.s 			page 58


 1974 0c8c 7B68     		ldr	r3, [r7, #4]
 1975 0c8e DB6C     		ldr	r3, [r3, #76]
 1976 0c90 5249     		ldr	r1, .L280
 1977 0c92 1343     		orrs	r3, r3, r2
 1978 0c94 CB64     		str	r3, [r1, #76]
 1979 0c96 01E0     		b	.L205
 1980              	.L210:
1234:./Drivers/STM32H7xx_HAL_Driver/Src/stm32h7xx_hal_rcc_ex.c ****     }
1235:./Drivers/STM32H7xx_HAL_Driver/Src/stm32h7xx_hal_rcc_ex.c ****     else
1236:./Drivers/STM32H7xx_HAL_Driver/Src/stm32h7xx_hal_rcc_ex.c ****     {
1237:./Drivers/STM32H7xx_HAL_Driver/Src/stm32h7xx_hal_rcc_ex.c ****       /* set overall return value */
1238:./Drivers/STM32H7xx_HAL_Driver/Src/stm32h7xx_hal_rcc_ex.c ****       status = ret;
 1981              		.loc 1 1238 14
 1982 0c98 FB7D     		ldrb	r3, [r7, #23]
 1983 0c9a BB75     		strb	r3, [r7, #22]
 1984              	.L205:
1239:./Drivers/STM32H7xx_HAL_Driver/Src/stm32h7xx_hal_rcc_ex.c ****     }
1240:./Drivers/STM32H7xx_HAL_Driver/Src/stm32h7xx_hal_rcc_ex.c ****   }
1241:./Drivers/STM32H7xx_HAL_Driver/Src/stm32h7xx_hal_rcc_ex.c **** 
1242:./Drivers/STM32H7xx_HAL_Driver/Src/stm32h7xx_hal_rcc_ex.c **** #if defined(LTDC)
1243:./Drivers/STM32H7xx_HAL_Driver/Src/stm32h7xx_hal_rcc_ex.c ****   /*-------------------------------------- LTDC Configuration -----------------------------------*/
1244:./Drivers/STM32H7xx_HAL_Driver/Src/stm32h7xx_hal_rcc_ex.c ****   if(((PeriphClkInit->PeriphClockSelection) & RCC_PERIPHCLK_LTDC) == RCC_PERIPHCLK_LTDC)
 1985              		.loc 1 1244 21
 1986 0c9c 7B68     		ldr	r3, [r7, #4]
 1987 0c9e 1B68     		ldr	r3, [r3]
 1988              		.loc 1 1244 45
 1989 0ca0 03F00053 		and	r3, r3, #536870912
 1990              		.loc 1 1244 5
 1991 0ca4 002B     		cmp	r3, #0
 1992 0ca6 0AD0     		beq	.L211
1245:./Drivers/STM32H7xx_HAL_Driver/Src/stm32h7xx_hal_rcc_ex.c ****   {
1246:./Drivers/STM32H7xx_HAL_Driver/Src/stm32h7xx_hal_rcc_ex.c ****     if(RCCEx_PLL3_Config(&(PeriphClkInit->PLL3),DIVIDER_R_UPDATE)!=HAL_OK)
 1993              		.loc 1 1246 8
 1994 0ca8 7B68     		ldr	r3, [r7, #4]
 1995 0caa 2433     		adds	r3, r3, #36
 1996 0cac 0221     		movs	r1, #2
 1997 0cae 1846     		mov	r0, r3
 1998 0cb0 FFF7FEFF 		bl	RCCEx_PLL3_Config
 1999 0cb4 0346     		mov	r3, r0
 2000              		.loc 1 1246 7
 2001 0cb6 002B     		cmp	r3, #0
 2002 0cb8 01D0     		beq	.L211
1247:./Drivers/STM32H7xx_HAL_Driver/Src/stm32h7xx_hal_rcc_ex.c ****     {
1248:./Drivers/STM32H7xx_HAL_Driver/Src/stm32h7xx_hal_rcc_ex.c ****       status=HAL_ERROR;
 2003              		.loc 1 1248 13
 2004 0cba 0123     		movs	r3, #1
 2005 0cbc BB75     		strb	r3, [r7, #22]
 2006              	.L211:
1249:./Drivers/STM32H7xx_HAL_Driver/Src/stm32h7xx_hal_rcc_ex.c ****     }
1250:./Drivers/STM32H7xx_HAL_Driver/Src/stm32h7xx_hal_rcc_ex.c ****   }
1251:./Drivers/STM32H7xx_HAL_Driver/Src/stm32h7xx_hal_rcc_ex.c **** #endif /* LTDC */
1252:./Drivers/STM32H7xx_HAL_Driver/Src/stm32h7xx_hal_rcc_ex.c **** 
1253:./Drivers/STM32H7xx_HAL_Driver/Src/stm32h7xx_hal_rcc_ex.c ****   /*------------------------------ RNG Configuration -------------------------*/
1254:./Drivers/STM32H7xx_HAL_Driver/Src/stm32h7xx_hal_rcc_ex.c ****   if(((PeriphClkInit->PeriphClockSelection) & RCC_PERIPHCLK_RNG) == RCC_PERIPHCLK_RNG)
 2007              		.loc 1 1254 21
 2008 0cbe 7B68     		ldr	r3, [r7, #4]
 2009 0cc0 1B68     		ldr	r3, [r3]
ARM GAS  /tmp/cctM9lCy.s 			page 59


 2010              		.loc 1 1254 45
 2011 0cc2 03F40033 		and	r3, r3, #131072
 2012              		.loc 1 1254 5
 2013 0cc6 002B     		cmp	r3, #0
 2014 0cc8 2FD0     		beq	.L212
1255:./Drivers/STM32H7xx_HAL_Driver/Src/stm32h7xx_hal_rcc_ex.c ****   {
1256:./Drivers/STM32H7xx_HAL_Driver/Src/stm32h7xx_hal_rcc_ex.c **** 
1257:./Drivers/STM32H7xx_HAL_Driver/Src/stm32h7xx_hal_rcc_ex.c ****     switch(PeriphClkInit->RngClockSelection)
 2015              		.loc 1 1257 25
 2016 0cca 7B68     		ldr	r3, [r7, #4]
 2017 0ccc DB6F     		ldr	r3, [r3, #124]
 2018              		.loc 1 1257 5
 2019 0cce B3F5807F 		cmp	r3, #256
 2020 0cd2 0CD0     		beq	.L213
 2021 0cd4 B3F5807F 		cmp	r3, #256
 2022 0cd8 02D8     		bhi	.L214
 2023 0cda 002B     		cmp	r3, #0
 2024 0cdc 11D0     		beq	.L269
 2025 0cde 0DE0     		b	.L216
 2026              	.L214:
 2027 0ce0 B3F5007F 		cmp	r3, #512
 2028 0ce4 0FD0     		beq	.L270
 2029 0ce6 B3F5407F 		cmp	r3, #768
 2030 0cea 0ED0     		beq	.L271
 2031 0cec 06E0     		b	.L216
 2032              	.L213:
1258:./Drivers/STM32H7xx_HAL_Driver/Src/stm32h7xx_hal_rcc_ex.c ****     {
1259:./Drivers/STM32H7xx_HAL_Driver/Src/stm32h7xx_hal_rcc_ex.c ****     case RCC_RNGCLKSOURCE_PLL:     /* PLL is used as clock source for RNG*/
1260:./Drivers/STM32H7xx_HAL_Driver/Src/stm32h7xx_hal_rcc_ex.c ****       /* Enable RNG Clock output generated form System RNG . */
1261:./Drivers/STM32H7xx_HAL_Driver/Src/stm32h7xx_hal_rcc_ex.c ****       __HAL_RCC_PLLCLKOUT_ENABLE(RCC_PLL1_DIVQ);
 2033              		.loc 1 1261 7
 2034 0cee 3B4B     		ldr	r3, .L280
 2035 0cf0 DB6A     		ldr	r3, [r3, #44]
 2036 0cf2 3A4A     		ldr	r2, .L280
 2037 0cf4 43F40033 		orr	r3, r3, #131072
 2038 0cf8 D362     		str	r3, [r2, #44]
1262:./Drivers/STM32H7xx_HAL_Driver/Src/stm32h7xx_hal_rcc_ex.c **** 
1263:./Drivers/STM32H7xx_HAL_Driver/Src/stm32h7xx_hal_rcc_ex.c ****       /* RNG clock source configuration done later after clock selection check */
1264:./Drivers/STM32H7xx_HAL_Driver/Src/stm32h7xx_hal_rcc_ex.c ****       break;
 2039              		.loc 1 1264 7
 2040 0cfa 07E0     		b	.L219
 2041              	.L216:
1265:./Drivers/STM32H7xx_HAL_Driver/Src/stm32h7xx_hal_rcc_ex.c **** 
1266:./Drivers/STM32H7xx_HAL_Driver/Src/stm32h7xx_hal_rcc_ex.c ****     case RCC_RNGCLKSOURCE_LSE: /* LSE is used as clock source for RNG*/
1267:./Drivers/STM32H7xx_HAL_Driver/Src/stm32h7xx_hal_rcc_ex.c **** 
1268:./Drivers/STM32H7xx_HAL_Driver/Src/stm32h7xx_hal_rcc_ex.c ****       /* RNG clock source configuration done later after clock selection check */
1269:./Drivers/STM32H7xx_HAL_Driver/Src/stm32h7xx_hal_rcc_ex.c ****       break;
1270:./Drivers/STM32H7xx_HAL_Driver/Src/stm32h7xx_hal_rcc_ex.c **** 
1271:./Drivers/STM32H7xx_HAL_Driver/Src/stm32h7xx_hal_rcc_ex.c ****     case RCC_RNGCLKSOURCE_LSI: /* LSI is used as clock source for RNG*/
1272:./Drivers/STM32H7xx_HAL_Driver/Src/stm32h7xx_hal_rcc_ex.c **** 
1273:./Drivers/STM32H7xx_HAL_Driver/Src/stm32h7xx_hal_rcc_ex.c ****       /* RNG clock source configuration done later after clock selection check */
1274:./Drivers/STM32H7xx_HAL_Driver/Src/stm32h7xx_hal_rcc_ex.c ****       break;
1275:./Drivers/STM32H7xx_HAL_Driver/Src/stm32h7xx_hal_rcc_ex.c ****     case RCC_RNGCLKSOURCE_HSI48:
1276:./Drivers/STM32H7xx_HAL_Driver/Src/stm32h7xx_hal_rcc_ex.c ****       /* HSI48 oscillator is used as source of RNG clock */
1277:./Drivers/STM32H7xx_HAL_Driver/Src/stm32h7xx_hal_rcc_ex.c ****       /* RNG clock source configuration done later after clock selection check */
1278:./Drivers/STM32H7xx_HAL_Driver/Src/stm32h7xx_hal_rcc_ex.c ****       break;
1279:./Drivers/STM32H7xx_HAL_Driver/Src/stm32h7xx_hal_rcc_ex.c **** 
ARM GAS  /tmp/cctM9lCy.s 			page 60


1280:./Drivers/STM32H7xx_HAL_Driver/Src/stm32h7xx_hal_rcc_ex.c ****     default:
1281:./Drivers/STM32H7xx_HAL_Driver/Src/stm32h7xx_hal_rcc_ex.c ****       ret = HAL_ERROR;
 2042              		.loc 1 1281 11
 2043 0cfc 0123     		movs	r3, #1
 2044 0cfe FB75     		strb	r3, [r7, #23]
1282:./Drivers/STM32H7xx_HAL_Driver/Src/stm32h7xx_hal_rcc_ex.c ****       break;
 2045              		.loc 1 1282 7
 2046 0d00 04E0     		b	.L219
 2047              	.L269:
1278:./Drivers/STM32H7xx_HAL_Driver/Src/stm32h7xx_hal_rcc_ex.c **** 
 2048              		.loc 1 1278 7
 2049 0d02 00BF     		nop
 2050 0d04 02E0     		b	.L219
 2051              	.L270:
1269:./Drivers/STM32H7xx_HAL_Driver/Src/stm32h7xx_hal_rcc_ex.c **** 
 2052              		.loc 1 1269 7
 2053 0d06 00BF     		nop
 2054 0d08 00E0     		b	.L219
 2055              	.L271:
1274:./Drivers/STM32H7xx_HAL_Driver/Src/stm32h7xx_hal_rcc_ex.c ****     case RCC_RNGCLKSOURCE_HSI48:
 2056              		.loc 1 1274 7
 2057 0d0a 00BF     		nop
 2058              	.L219:
1283:./Drivers/STM32H7xx_HAL_Driver/Src/stm32h7xx_hal_rcc_ex.c ****     }
1284:./Drivers/STM32H7xx_HAL_Driver/Src/stm32h7xx_hal_rcc_ex.c **** 
1285:./Drivers/STM32H7xx_HAL_Driver/Src/stm32h7xx_hal_rcc_ex.c ****     if(ret == HAL_OK)
 2059              		.loc 1 1285 7
 2060 0d0c FB7D     		ldrb	r3, [r7, #23]	@ zero_extendqisi2
 2061 0d0e 002B     		cmp	r3, #0
 2062 0d10 09D1     		bne	.L220
1286:./Drivers/STM32H7xx_HAL_Driver/Src/stm32h7xx_hal_rcc_ex.c ****     {
1287:./Drivers/STM32H7xx_HAL_Driver/Src/stm32h7xx_hal_rcc_ex.c ****       /* Set the source of RNG clock*/
1288:./Drivers/STM32H7xx_HAL_Driver/Src/stm32h7xx_hal_rcc_ex.c ****       __HAL_RCC_RNG_CONFIG(PeriphClkInit->RngClockSelection);
 2063              		.loc 1 1288 7
 2064 0d12 324B     		ldr	r3, .L280
 2065 0d14 5B6D     		ldr	r3, [r3, #84]
 2066 0d16 23F44072 		bic	r2, r3, #768
 2067 0d1a 7B68     		ldr	r3, [r7, #4]
 2068 0d1c DB6F     		ldr	r3, [r3, #124]
 2069 0d1e 2F49     		ldr	r1, .L280
 2070 0d20 1343     		orrs	r3, r3, r2
 2071 0d22 4B65     		str	r3, [r1, #84]
 2072 0d24 01E0     		b	.L212
 2073              	.L220:
1289:./Drivers/STM32H7xx_HAL_Driver/Src/stm32h7xx_hal_rcc_ex.c ****     }
1290:./Drivers/STM32H7xx_HAL_Driver/Src/stm32h7xx_hal_rcc_ex.c ****     else
1291:./Drivers/STM32H7xx_HAL_Driver/Src/stm32h7xx_hal_rcc_ex.c ****     {
1292:./Drivers/STM32H7xx_HAL_Driver/Src/stm32h7xx_hal_rcc_ex.c ****       /* set overall return value */
1293:./Drivers/STM32H7xx_HAL_Driver/Src/stm32h7xx_hal_rcc_ex.c ****       status = ret;
 2074              		.loc 1 1293 14
 2075 0d26 FB7D     		ldrb	r3, [r7, #23]
 2076 0d28 BB75     		strb	r3, [r7, #22]
 2077              	.L212:
1294:./Drivers/STM32H7xx_HAL_Driver/Src/stm32h7xx_hal_rcc_ex.c ****     }
1295:./Drivers/STM32H7xx_HAL_Driver/Src/stm32h7xx_hal_rcc_ex.c **** 
1296:./Drivers/STM32H7xx_HAL_Driver/Src/stm32h7xx_hal_rcc_ex.c ****   }
1297:./Drivers/STM32H7xx_HAL_Driver/Src/stm32h7xx_hal_rcc_ex.c **** 
ARM GAS  /tmp/cctM9lCy.s 			page 61


1298:./Drivers/STM32H7xx_HAL_Driver/Src/stm32h7xx_hal_rcc_ex.c ****   /*------------------------------ SWPMI1 Configuration ------------------------*/
1299:./Drivers/STM32H7xx_HAL_Driver/Src/stm32h7xx_hal_rcc_ex.c ****   if(((PeriphClkInit->PeriphClockSelection) & RCC_PERIPHCLK_SWPMI1) == RCC_PERIPHCLK_SWPMI1)
 2078              		.loc 1 1299 21
 2079 0d2a 7B68     		ldr	r3, [r7, #4]
 2080 0d2c 1B68     		ldr	r3, [r3]
 2081              		.loc 1 1299 45
 2082 0d2e 03F48013 		and	r3, r3, #1048576
 2083              		.loc 1 1299 5
 2084 0d32 002B     		cmp	r3, #0
 2085 0d34 08D0     		beq	.L221
1300:./Drivers/STM32H7xx_HAL_Driver/Src/stm32h7xx_hal_rcc_ex.c ****   {
1301:./Drivers/STM32H7xx_HAL_Driver/Src/stm32h7xx_hal_rcc_ex.c ****     /* Check the parameters */
1302:./Drivers/STM32H7xx_HAL_Driver/Src/stm32h7xx_hal_rcc_ex.c ****     assert_param(IS_RCC_SWPMI1CLKSOURCE(PeriphClkInit->Swpmi1ClockSelection));
1303:./Drivers/STM32H7xx_HAL_Driver/Src/stm32h7xx_hal_rcc_ex.c **** 
1304:./Drivers/STM32H7xx_HAL_Driver/Src/stm32h7xx_hal_rcc_ex.c ****     /* Configure the SWPMI1 interface clock source */
1305:./Drivers/STM32H7xx_HAL_Driver/Src/stm32h7xx_hal_rcc_ex.c ****     __HAL_RCC_SWPMI1_CONFIG(PeriphClkInit->Swpmi1ClockSelection);
 2086              		.loc 1 1305 5
 2087 0d36 294B     		ldr	r3, .L280
 2088 0d38 1B6D     		ldr	r3, [r3, #80]
 2089 0d3a 23F00042 		bic	r2, r3, #-2147483648
 2090 0d3e 7B68     		ldr	r3, [r7, #4]
 2091 0d40 1B6F     		ldr	r3, [r3, #112]
 2092 0d42 2649     		ldr	r1, .L280
 2093 0d44 1343     		orrs	r3, r3, r2
 2094 0d46 0B65     		str	r3, [r1, #80]
 2095              	.L221:
1306:./Drivers/STM32H7xx_HAL_Driver/Src/stm32h7xx_hal_rcc_ex.c ****   }
1307:./Drivers/STM32H7xx_HAL_Driver/Src/stm32h7xx_hal_rcc_ex.c **** 
1308:./Drivers/STM32H7xx_HAL_Driver/Src/stm32h7xx_hal_rcc_ex.c ****   /*------------------------------ HRTIM1 clock Configuration ----------------*/
1309:./Drivers/STM32H7xx_HAL_Driver/Src/stm32h7xx_hal_rcc_ex.c ****   if(((PeriphClkInit->PeriphClockSelection) & RCC_PERIPHCLK_HRTIM1) == RCC_PERIPHCLK_HRTIM1)
 2096              		.loc 1 1309 21
 2097 0d48 7B68     		ldr	r3, [r7, #4]
 2098 0d4a 1B68     		ldr	r3, [r3]
 2099              		.loc 1 1309 45
 2100 0d4c 03F08053 		and	r3, r3, #268435456
 2101              		.loc 1 1309 5
 2102 0d50 002B     		cmp	r3, #0
 2103 0d52 09D0     		beq	.L222
1310:./Drivers/STM32H7xx_HAL_Driver/Src/stm32h7xx_hal_rcc_ex.c ****   {
1311:./Drivers/STM32H7xx_HAL_Driver/Src/stm32h7xx_hal_rcc_ex.c ****     /* Check the parameters */
1312:./Drivers/STM32H7xx_HAL_Driver/Src/stm32h7xx_hal_rcc_ex.c ****     assert_param(IS_RCC_HRTIM1CLKSOURCE(PeriphClkInit->Hrtim1ClockSelection));
1313:./Drivers/STM32H7xx_HAL_Driver/Src/stm32h7xx_hal_rcc_ex.c **** 
1314:./Drivers/STM32H7xx_HAL_Driver/Src/stm32h7xx_hal_rcc_ex.c ****     /* Configure the HRTIM1 clock source */
1315:./Drivers/STM32H7xx_HAL_Driver/Src/stm32h7xx_hal_rcc_ex.c ****     __HAL_RCC_HRTIM1_CONFIG(PeriphClkInit->Hrtim1ClockSelection);
 2104              		.loc 1 1315 5
 2105 0d54 214B     		ldr	r3, .L280
 2106 0d56 1B69     		ldr	r3, [r3, #16]
 2107 0d58 23F48042 		bic	r2, r3, #16384
 2108 0d5c 7B68     		ldr	r3, [r7, #4]
 2109 0d5e D3F8B430 		ldr	r3, [r3, #180]
 2110 0d62 1E49     		ldr	r1, .L280
 2111 0d64 1343     		orrs	r3, r3, r2
 2112 0d66 0B61     		str	r3, [r1, #16]
 2113              	.L222:
1316:./Drivers/STM32H7xx_HAL_Driver/Src/stm32h7xx_hal_rcc_ex.c ****   }
1317:./Drivers/STM32H7xx_HAL_Driver/Src/stm32h7xx_hal_rcc_ex.c **** 
1318:./Drivers/STM32H7xx_HAL_Driver/Src/stm32h7xx_hal_rcc_ex.c ****   /*------------------------------ DFSDM1 Configuration ------------------------*/
ARM GAS  /tmp/cctM9lCy.s 			page 62


1319:./Drivers/STM32H7xx_HAL_Driver/Src/stm32h7xx_hal_rcc_ex.c ****   if(((PeriphClkInit->PeriphClockSelection) & RCC_PERIPHCLK_DFSDM1) == RCC_PERIPHCLK_DFSDM1)
 2114              		.loc 1 1319 21
 2115 0d68 7B68     		ldr	r3, [r7, #4]
 2116 0d6a 1B68     		ldr	r3, [r3]
 2117              		.loc 1 1319 45
 2118 0d6c 03F40013 		and	r3, r3, #2097152
 2119              		.loc 1 1319 5
 2120 0d70 002B     		cmp	r3, #0
 2121 0d72 08D0     		beq	.L223
1320:./Drivers/STM32H7xx_HAL_Driver/Src/stm32h7xx_hal_rcc_ex.c ****   {
1321:./Drivers/STM32H7xx_HAL_Driver/Src/stm32h7xx_hal_rcc_ex.c ****     /* Check the parameters */
1322:./Drivers/STM32H7xx_HAL_Driver/Src/stm32h7xx_hal_rcc_ex.c ****     assert_param(IS_RCC_DFSDM1CLKSOURCE(PeriphClkInit->Dfsdm1ClockSelection));
1323:./Drivers/STM32H7xx_HAL_Driver/Src/stm32h7xx_hal_rcc_ex.c **** 
1324:./Drivers/STM32H7xx_HAL_Driver/Src/stm32h7xx_hal_rcc_ex.c ****     /* Configure the DFSDM1 interface clock source */
1325:./Drivers/STM32H7xx_HAL_Driver/Src/stm32h7xx_hal_rcc_ex.c ****     __HAL_RCC_DFSDM1_CONFIG(PeriphClkInit->Dfsdm1ClockSelection);
 2122              		.loc 1 1325 5
 2123 0d74 194B     		ldr	r3, .L280
 2124 0d76 1B6D     		ldr	r3, [r3, #80]
 2125 0d78 23F08072 		bic	r2, r3, #16777216
 2126 0d7c 7B68     		ldr	r3, [r7, #4]
 2127 0d7e 9B6E     		ldr	r3, [r3, #104]
 2128 0d80 1649     		ldr	r1, .L280
 2129 0d82 1343     		orrs	r3, r3, r2
 2130 0d84 0B65     		str	r3, [r1, #80]
 2131              	.L223:
1326:./Drivers/STM32H7xx_HAL_Driver/Src/stm32h7xx_hal_rcc_ex.c ****   }
1327:./Drivers/STM32H7xx_HAL_Driver/Src/stm32h7xx_hal_rcc_ex.c **** 
1328:./Drivers/STM32H7xx_HAL_Driver/Src/stm32h7xx_hal_rcc_ex.c ****   /*------------------------------------ TIM configuration --------------------------------------*/
1329:./Drivers/STM32H7xx_HAL_Driver/Src/stm32h7xx_hal_rcc_ex.c ****   if(((PeriphClkInit->PeriphClockSelection) & RCC_PERIPHCLK_TIM) == RCC_PERIPHCLK_TIM)
 2132              		.loc 1 1329 21
 2133 0d86 7B68     		ldr	r3, [r7, #4]
 2134 0d88 1B68     		ldr	r3, [r3]
 2135              		.loc 1 1329 45
 2136 0d8a 03F08043 		and	r3, r3, #1073741824
 2137              		.loc 1 1329 5
 2138 0d8e 002B     		cmp	r3, #0
 2139 0d90 0DD0     		beq	.L224
1330:./Drivers/STM32H7xx_HAL_Driver/Src/stm32h7xx_hal_rcc_ex.c ****   {
1331:./Drivers/STM32H7xx_HAL_Driver/Src/stm32h7xx_hal_rcc_ex.c ****     /* Check the parameters */
1332:./Drivers/STM32H7xx_HAL_Driver/Src/stm32h7xx_hal_rcc_ex.c ****     assert_param(IS_RCC_TIMPRES(PeriphClkInit->TIMPresSelection));
1333:./Drivers/STM32H7xx_HAL_Driver/Src/stm32h7xx_hal_rcc_ex.c **** 
1334:./Drivers/STM32H7xx_HAL_Driver/Src/stm32h7xx_hal_rcc_ex.c ****     /* Configure Timer Prescaler */
1335:./Drivers/STM32H7xx_HAL_Driver/Src/stm32h7xx_hal_rcc_ex.c ****     __HAL_RCC_TIMCLKPRESCALER(PeriphClkInit->TIMPresSelection);
 2140              		.loc 1 1335 5
 2141 0d92 124B     		ldr	r3, .L280
 2142 0d94 1B69     		ldr	r3, [r3, #16]
 2143 0d96 114A     		ldr	r2, .L280
 2144 0d98 23F40043 		bic	r3, r3, #32768
 2145 0d9c 1361     		str	r3, [r2, #16]
 2146 0d9e 0F4B     		ldr	r3, .L280
 2147 0da0 1A69     		ldr	r2, [r3, #16]
 2148 0da2 7B68     		ldr	r3, [r7, #4]
 2149 0da4 D3F8B830 		ldr	r3, [r3, #184]
 2150 0da8 0C49     		ldr	r1, .L280
 2151 0daa 1343     		orrs	r3, r3, r2
 2152 0dac 0B61     		str	r3, [r1, #16]
 2153              	.L224:
ARM GAS  /tmp/cctM9lCy.s 			page 63


1336:./Drivers/STM32H7xx_HAL_Driver/Src/stm32h7xx_hal_rcc_ex.c ****   }
1337:./Drivers/STM32H7xx_HAL_Driver/Src/stm32h7xx_hal_rcc_ex.c **** 
1338:./Drivers/STM32H7xx_HAL_Driver/Src/stm32h7xx_hal_rcc_ex.c ****   /*------------------------------------ CKPER configuration --------------------------------------
1339:./Drivers/STM32H7xx_HAL_Driver/Src/stm32h7xx_hal_rcc_ex.c ****   if(((PeriphClkInit->PeriphClockSelection) & RCC_PERIPHCLK_CKPER) == RCC_PERIPHCLK_CKPER)
 2154              		.loc 1 1339 21
 2155 0dae 7B68     		ldr	r3, [r7, #4]
 2156 0db0 1B68     		ldr	r3, [r3]
 2157              		.loc 1 1339 5
 2158 0db2 002B     		cmp	r3, #0
 2159 0db4 08DA     		bge	.L225
1340:./Drivers/STM32H7xx_HAL_Driver/Src/stm32h7xx_hal_rcc_ex.c ****   {
1341:./Drivers/STM32H7xx_HAL_Driver/Src/stm32h7xx_hal_rcc_ex.c ****     /* Check the parameters */
1342:./Drivers/STM32H7xx_HAL_Driver/Src/stm32h7xx_hal_rcc_ex.c ****     assert_param(IS_RCC_CLKPSOURCE(PeriphClkInit->CkperClockSelection));
1343:./Drivers/STM32H7xx_HAL_Driver/Src/stm32h7xx_hal_rcc_ex.c **** 
1344:./Drivers/STM32H7xx_HAL_Driver/Src/stm32h7xx_hal_rcc_ex.c ****     /* Configure the CKPER clock source */
1345:./Drivers/STM32H7xx_HAL_Driver/Src/stm32h7xx_hal_rcc_ex.c ****     __HAL_RCC_CLKP_CONFIG(PeriphClkInit->CkperClockSelection);
 2160              		.loc 1 1345 5
 2161 0db6 094B     		ldr	r3, .L280
 2162 0db8 DB6C     		ldr	r3, [r3, #76]
 2163 0dba 23F04052 		bic	r2, r3, #805306368
 2164 0dbe 7B68     		ldr	r3, [r7, #4]
 2165 0dc0 1B6D     		ldr	r3, [r3, #80]
 2166 0dc2 0649     		ldr	r1, .L280
 2167 0dc4 1343     		orrs	r3, r3, r2
 2168 0dc6 CB64     		str	r3, [r1, #76]
 2169              	.L225:
1346:./Drivers/STM32H7xx_HAL_Driver/Src/stm32h7xx_hal_rcc_ex.c ****   }
1347:./Drivers/STM32H7xx_HAL_Driver/Src/stm32h7xx_hal_rcc_ex.c **** 
1348:./Drivers/STM32H7xx_HAL_Driver/Src/stm32h7xx_hal_rcc_ex.c ****   if (status == HAL_OK)
 2170              		.loc 1 1348 6
 2171 0dc8 BB7D     		ldrb	r3, [r7, #22]	@ zero_extendqisi2
 2172 0dca 002B     		cmp	r3, #0
 2173 0dcc 01D1     		bne	.L226
1349:./Drivers/STM32H7xx_HAL_Driver/Src/stm32h7xx_hal_rcc_ex.c ****   {
1350:./Drivers/STM32H7xx_HAL_Driver/Src/stm32h7xx_hal_rcc_ex.c ****     return HAL_OK;
 2174              		.loc 1 1350 12
 2175 0dce 0023     		movs	r3, #0
 2176 0dd0 00E0     		b	.L227
 2177              	.L226:
1351:./Drivers/STM32H7xx_HAL_Driver/Src/stm32h7xx_hal_rcc_ex.c ****   }
1352:./Drivers/STM32H7xx_HAL_Driver/Src/stm32h7xx_hal_rcc_ex.c ****   return HAL_ERROR;
 2178              		.loc 1 1352 10
 2179 0dd2 0123     		movs	r3, #1
 2180              	.L227:
1353:./Drivers/STM32H7xx_HAL_Driver/Src/stm32h7xx_hal_rcc_ex.c **** }
 2181              		.loc 1 1353 1
 2182 0dd4 1846     		mov	r0, r3
 2183 0dd6 1837     		adds	r7, r7, #24
 2184              		.cfi_def_cfa_offset 8
 2185 0dd8 BD46     		mov	sp, r7
 2186              		.cfi_def_cfa_register 13
 2187              		@ sp needed
 2188 0dda 80BD     		pop	{r7, pc}
 2189              	.L281:
 2190              		.align	2
 2191              	.L280:
 2192 0ddc 00440258 		.word	1476543488
ARM GAS  /tmp/cctM9lCy.s 			page 64


 2193              		.cfi_endproc
 2194              	.LFE134:
 2196              		.section	.text.HAL_RCCEx_GetPeriphCLKConfig,"ax",%progbits
 2197              		.align	1
 2198              		.global	HAL_RCCEx_GetPeriphCLKConfig
 2199              		.syntax unified
 2200              		.thumb
 2201              		.thumb_func
 2202              		.fpu fpv5-d16
 2204              	HAL_RCCEx_GetPeriphCLKConfig:
 2205              	.LFB135:
1354:./Drivers/STM32H7xx_HAL_Driver/Src/stm32h7xx_hal_rcc_ex.c **** 
1355:./Drivers/STM32H7xx_HAL_Driver/Src/stm32h7xx_hal_rcc_ex.c **** /**
1356:./Drivers/STM32H7xx_HAL_Driver/Src/stm32h7xx_hal_rcc_ex.c ****   * @brief  Get the RCC_ClkInitStruct according to the internal RCC configuration registers.
1357:./Drivers/STM32H7xx_HAL_Driver/Src/stm32h7xx_hal_rcc_ex.c ****   * @param  PeriphClkInit: pointer to an RCC_PeriphCLKInitTypeDef structure that
1358:./Drivers/STM32H7xx_HAL_Driver/Src/stm32h7xx_hal_rcc_ex.c **** *         returns the configuration information for the Extended Peripherals clocks :
1359:./Drivers/STM32H7xx_HAL_Driver/Src/stm32h7xx_hal_rcc_ex.c ****   *         (SDMMC, CKPER, FMC, QSPI, DSI, SPI45, SPDIF, DFSDM1, FDCAN, SWPMI,SAI23, SAI1, SPI123,
1360:./Drivers/STM32H7xx_HAL_Driver/Src/stm32h7xx_hal_rcc_ex.c ****   *         USART234578, USART16, RNG,HRTIM1, I2C123, USB,CEC, LPTIM1, LPUART1, I2C4, LPTIM2, LPTIM
1361:./Drivers/STM32H7xx_HAL_Driver/Src/stm32h7xx_hal_rcc_ex.c **** *         SAI4A,SAI4B,SPI6,RTC,TIM).
1362:./Drivers/STM32H7xx_HAL_Driver/Src/stm32h7xx_hal_rcc_ex.c ****   * @retval None
1363:./Drivers/STM32H7xx_HAL_Driver/Src/stm32h7xx_hal_rcc_ex.c ****   */
1364:./Drivers/STM32H7xx_HAL_Driver/Src/stm32h7xx_hal_rcc_ex.c **** void HAL_RCCEx_GetPeriphCLKConfig(RCC_PeriphCLKInitTypeDef  *PeriphClkInit)
1365:./Drivers/STM32H7xx_HAL_Driver/Src/stm32h7xx_hal_rcc_ex.c **** {
 2206              		.loc 1 1365 1
 2207              		.cfi_startproc
 2208              		@ args = 0, pretend = 0, frame = 8
 2209              		@ frame_needed = 1, uses_anonymous_args = 0
 2210              		@ link register save eliminated.
 2211 0000 80B4     		push	{r7}
 2212              		.cfi_def_cfa_offset 4
 2213              		.cfi_offset 7, -4
 2214 0002 83B0     		sub	sp, sp, #12
 2215              		.cfi_def_cfa_offset 16
 2216 0004 00AF     		add	r7, sp, #0
 2217              		.cfi_def_cfa_register 7
 2218 0006 7860     		str	r0, [r7, #4]
1366:./Drivers/STM32H7xx_HAL_Driver/Src/stm32h7xx_hal_rcc_ex.c ****   /* Set all possible values for the extended clock type parameter------------*/
1367:./Drivers/STM32H7xx_HAL_Driver/Src/stm32h7xx_hal_rcc_ex.c ****   PeriphClkInit->PeriphClockSelection =
 2219              		.loc 1 1367 39
 2220 0008 7B68     		ldr	r3, [r7, #4]
 2221 000a 6FF00052 		mvn	r2, #536870912
 2222 000e 1A60     		str	r2, [r3]
1368:./Drivers/STM32H7xx_HAL_Driver/Src/stm32h7xx_hal_rcc_ex.c ****                  RCC_PERIPHCLK_USART16 | RCC_PERIPHCLK_USART234578 | RCC_PERIPHCLK_LPUART1 | RCC_PE
1369:./Drivers/STM32H7xx_HAL_Driver/Src/stm32h7xx_hal_rcc_ex.c ****                  RCC_PERIPHCLK_I2C4    | RCC_PERIPHCLK_LPTIM1      | RCC_PERIPHCLK_LPTIM2  | RCC_PE
1370:./Drivers/STM32H7xx_HAL_Driver/Src/stm32h7xx_hal_rcc_ex.c ****                  RCC_PERIPHCLK_SAI1    | RCC_PERIPHCLK_SAI23       | RCC_PERIPHCLK_SAI4A   | RCC_PE
1371:./Drivers/STM32H7xx_HAL_Driver/Src/stm32h7xx_hal_rcc_ex.c ****                  RCC_PERIPHCLK_SPI123  | RCC_PERIPHCLK_SPI45       | RCC_PERIPHCLK_SPI6    | RCC_PE
1372:./Drivers/STM32H7xx_HAL_Driver/Src/stm32h7xx_hal_rcc_ex.c ****                  RCC_PERIPHCLK_SDMMC   | RCC_PERIPHCLK_RNG         | RCC_PERIPHCLK_USB     | RCC_PE
1373:./Drivers/STM32H7xx_HAL_Driver/Src/stm32h7xx_hal_rcc_ex.c ****                  RCC_PERIPHCLK_SWPMI1  | RCC_PERIPHCLK_DFSDM1      | RCC_PERIPHCLK_RTC     | RCC_PE
1374:./Drivers/STM32H7xx_HAL_Driver/Src/stm32h7xx_hal_rcc_ex.c ****                  RCC_PERIPHCLK_FMC     | RCC_PERIPHCLK_QSPI        | RCC_PERIPHCLK_DSI     | RCC_PE
1375:./Drivers/STM32H7xx_HAL_Driver/Src/stm32h7xx_hal_rcc_ex.c ****                  RCC_PERIPHCLK_HRTIM1  | RCC_PERIPHCLK_TIM         | RCC_PERIPHCLK_CKPER;
1376:./Drivers/STM32H7xx_HAL_Driver/Src/stm32h7xx_hal_rcc_ex.c **** 
1377:./Drivers/STM32H7xx_HAL_Driver/Src/stm32h7xx_hal_rcc_ex.c **** #if defined(LTDC)
1378:./Drivers/STM32H7xx_HAL_Driver/Src/stm32h7xx_hal_rcc_ex.c ****   PeriphClkInit->PeriphClockSelection |= RCC_PERIPHCLK_LTDC;
 2223              		.loc 1 1378 39
 2224 0010 7B68     		ldr	r3, [r7, #4]
 2225 0012 1B68     		ldr	r3, [r3]
 2226 0014 43F00052 		orr	r2, r3, #536870912
ARM GAS  /tmp/cctM9lCy.s 			page 65


 2227 0018 7B68     		ldr	r3, [r7, #4]
 2228 001a 1A60     		str	r2, [r3]
1379:./Drivers/STM32H7xx_HAL_Driver/Src/stm32h7xx_hal_rcc_ex.c **** #endif /* LTDC */
1380:./Drivers/STM32H7xx_HAL_Driver/Src/stm32h7xx_hal_rcc_ex.c **** 
1381:./Drivers/STM32H7xx_HAL_Driver/Src/stm32h7xx_hal_rcc_ex.c ****   /* Get the PLL3 Clock configuration -----------------------------------------------*/
1382:./Drivers/STM32H7xx_HAL_Driver/Src/stm32h7xx_hal_rcc_ex.c ****   PeriphClkInit->PLL3.PLL3M = (uint32_t)((RCC->PLLCKSELR & RCC_PLLCKSELR_DIVM3)>> RCC_PLLCKSELR_DIV
 2229              		.loc 1 1382 46
 2230 001c 994B     		ldr	r3, .L286
 2231 001e 9B6A     		ldr	r3, [r3, #40]
 2232              		.loc 1 1382 31
 2233 0020 1B0D     		lsrs	r3, r3, #20
 2234 0022 03F03F02 		and	r2, r3, #63
 2235              		.loc 1 1382 29
 2236 0026 7B68     		ldr	r3, [r7, #4]
 2237 0028 5A62     		str	r2, [r3, #36]
1383:./Drivers/STM32H7xx_HAL_Driver/Src/stm32h7xx_hal_rcc_ex.c ****   PeriphClkInit->PLL3.PLL3N = (uint32_t)((RCC->PLL3DIVR & RCC_PLL3DIVR_N3) >> RCC_PLL3DIVR_N3_Pos)+
 2238              		.loc 1 1383 46
 2239 002a 964B     		ldr	r3, .L286
 2240 002c 1B6C     		ldr	r3, [r3, #64]
 2241              		.loc 1 1383 31
 2242 002e C3F30803 		ubfx	r3, r3, #0, #9
 2243              		.loc 1 1383 99
 2244 0032 5A1C     		adds	r2, r3, #1
 2245              		.loc 1 1383 29
 2246 0034 7B68     		ldr	r3, [r7, #4]
 2247 0036 9A62     		str	r2, [r3, #40]
1384:./Drivers/STM32H7xx_HAL_Driver/Src/stm32h7xx_hal_rcc_ex.c ****   PeriphClkInit->PLL3.PLL3R = (uint32_t)((RCC->PLL3DIVR & RCC_PLL3DIVR_R3) >> RCC_PLL3DIVR_R3_Pos)+
 2248              		.loc 1 1384 46
 2249 0038 924B     		ldr	r3, .L286
 2250 003a 1B6C     		ldr	r3, [r3, #64]
 2251              		.loc 1 1384 31
 2252 003c 1B0E     		lsrs	r3, r3, #24
 2253 003e 03F07F03 		and	r3, r3, #127
 2254              		.loc 1 1384 99
 2255 0042 5A1C     		adds	r2, r3, #1
 2256              		.loc 1 1384 29
 2257 0044 7B68     		ldr	r3, [r7, #4]
 2258 0046 5A63     		str	r2, [r3, #52]
1385:./Drivers/STM32H7xx_HAL_Driver/Src/stm32h7xx_hal_rcc_ex.c ****   PeriphClkInit->PLL3.PLL3P = (uint32_t)((RCC->PLL3DIVR & RCC_PLL3DIVR_P3) >> RCC_PLL3DIVR_P3_Pos)+
 2259              		.loc 1 1385 46
 2260 0048 8E4B     		ldr	r3, .L286
 2261 004a 1B6C     		ldr	r3, [r3, #64]
 2262              		.loc 1 1385 31
 2263 004c 5B0A     		lsrs	r3, r3, #9
 2264 004e 03F07F03 		and	r3, r3, #127
 2265              		.loc 1 1385 99
 2266 0052 5A1C     		adds	r2, r3, #1
 2267              		.loc 1 1385 29
 2268 0054 7B68     		ldr	r3, [r7, #4]
 2269 0056 DA62     		str	r2, [r3, #44]
1386:./Drivers/STM32H7xx_HAL_Driver/Src/stm32h7xx_hal_rcc_ex.c ****   PeriphClkInit->PLL3.PLL3Q = (uint32_t)((RCC->PLL3DIVR & RCC_PLL3DIVR_Q3) >> RCC_PLL3DIVR_Q3_Pos)+
 2270              		.loc 1 1386 46
 2271 0058 8A4B     		ldr	r3, .L286
 2272 005a 1B6C     		ldr	r3, [r3, #64]
 2273              		.loc 1 1386 31
 2274 005c 1B0C     		lsrs	r3, r3, #16
 2275 005e 03F07F03 		and	r3, r3, #127
ARM GAS  /tmp/cctM9lCy.s 			page 66


 2276              		.loc 1 1386 99
 2277 0062 5A1C     		adds	r2, r3, #1
 2278              		.loc 1 1386 29
 2279 0064 7B68     		ldr	r3, [r7, #4]
 2280 0066 1A63     		str	r2, [r3, #48]
1387:./Drivers/STM32H7xx_HAL_Driver/Src/stm32h7xx_hal_rcc_ex.c ****   PeriphClkInit->PLL3.PLL3RGE = (uint32_t)((RCC->PLLCFGR & RCC_PLLCFGR_PLL3RGE) >> RCC_PLLCFGR_PLL3
 2281              		.loc 1 1387 48
 2282 0068 864B     		ldr	r3, .L286
 2283 006a DB6A     		ldr	r3, [r3, #44]
 2284              		.loc 1 1387 33
 2285 006c 9B0A     		lsrs	r3, r3, #10
 2286 006e 03F00302 		and	r2, r3, #3
 2287              		.loc 1 1387 31
 2288 0072 7B68     		ldr	r3, [r7, #4]
 2289 0074 9A63     		str	r2, [r3, #56]
1388:./Drivers/STM32H7xx_HAL_Driver/Src/stm32h7xx_hal_rcc_ex.c ****   PeriphClkInit->PLL3.PLL3VCOSEL = (uint32_t)((RCC->PLLCFGR & RCC_PLLCFGR_PLL3VCOSEL) >> RCC_PLLCFG
 2290              		.loc 1 1388 51
 2291 0076 834B     		ldr	r3, .L286
 2292 0078 DB6A     		ldr	r3, [r3, #44]
 2293              		.loc 1 1388 36
 2294 007a 5B0A     		lsrs	r3, r3, #9
 2295 007c 03F00102 		and	r2, r3, #1
 2296              		.loc 1 1388 34
 2297 0080 7B68     		ldr	r3, [r7, #4]
 2298 0082 DA63     		str	r2, [r3, #60]
1389:./Drivers/STM32H7xx_HAL_Driver/Src/stm32h7xx_hal_rcc_ex.c **** 
1390:./Drivers/STM32H7xx_HAL_Driver/Src/stm32h7xx_hal_rcc_ex.c ****   /* Get the PLL2 Clock configuration -----------------------------------------------*/
1391:./Drivers/STM32H7xx_HAL_Driver/Src/stm32h7xx_hal_rcc_ex.c ****   PeriphClkInit->PLL2.PLL2M = (uint32_t)((RCC->PLLCKSELR & RCC_PLLCKSELR_DIVM2)>> RCC_PLLCKSELR_DIV
 2299              		.loc 1 1391 46
 2300 0084 7F4B     		ldr	r3, .L286
 2301 0086 9B6A     		ldr	r3, [r3, #40]
 2302              		.loc 1 1391 31
 2303 0088 1B0B     		lsrs	r3, r3, #12
 2304 008a 03F03F02 		and	r2, r3, #63
 2305              		.loc 1 1391 29
 2306 008e 7B68     		ldr	r3, [r7, #4]
 2307 0090 5A60     		str	r2, [r3, #4]
1392:./Drivers/STM32H7xx_HAL_Driver/Src/stm32h7xx_hal_rcc_ex.c ****   PeriphClkInit->PLL2.PLL2N = (uint32_t)((RCC->PLL2DIVR & RCC_PLL2DIVR_N2) >> RCC_PLL2DIVR_N2_Pos)+
 2308              		.loc 1 1392 46
 2309 0092 7C4B     		ldr	r3, .L286
 2310 0094 9B6B     		ldr	r3, [r3, #56]
 2311              		.loc 1 1392 31
 2312 0096 C3F30803 		ubfx	r3, r3, #0, #9
 2313              		.loc 1 1392 99
 2314 009a 5A1C     		adds	r2, r3, #1
 2315              		.loc 1 1392 29
 2316 009c 7B68     		ldr	r3, [r7, #4]
 2317 009e 9A60     		str	r2, [r3, #8]
1393:./Drivers/STM32H7xx_HAL_Driver/Src/stm32h7xx_hal_rcc_ex.c ****   PeriphClkInit->PLL2.PLL2R = (uint32_t)((RCC->PLL2DIVR & RCC_PLL2DIVR_R2) >> RCC_PLL2DIVR_R2_Pos)+
 2318              		.loc 1 1393 46
 2319 00a0 784B     		ldr	r3, .L286
 2320 00a2 9B6B     		ldr	r3, [r3, #56]
 2321              		.loc 1 1393 31
 2322 00a4 1B0E     		lsrs	r3, r3, #24
 2323 00a6 03F07F03 		and	r3, r3, #127
 2324              		.loc 1 1393 99
 2325 00aa 5A1C     		adds	r2, r3, #1
ARM GAS  /tmp/cctM9lCy.s 			page 67


 2326              		.loc 1 1393 29
 2327 00ac 7B68     		ldr	r3, [r7, #4]
 2328 00ae 5A61     		str	r2, [r3, #20]
1394:./Drivers/STM32H7xx_HAL_Driver/Src/stm32h7xx_hal_rcc_ex.c ****   PeriphClkInit->PLL2.PLL2P = (uint32_t)((RCC->PLL2DIVR & RCC_PLL2DIVR_P2) >> RCC_PLL2DIVR_P2_Pos)+
 2329              		.loc 1 1394 46
 2330 00b0 744B     		ldr	r3, .L286
 2331 00b2 9B6B     		ldr	r3, [r3, #56]
 2332              		.loc 1 1394 31
 2333 00b4 5B0A     		lsrs	r3, r3, #9
 2334 00b6 03F07F03 		and	r3, r3, #127
 2335              		.loc 1 1394 99
 2336 00ba 5A1C     		adds	r2, r3, #1
 2337              		.loc 1 1394 29
 2338 00bc 7B68     		ldr	r3, [r7, #4]
 2339 00be DA60     		str	r2, [r3, #12]
1395:./Drivers/STM32H7xx_HAL_Driver/Src/stm32h7xx_hal_rcc_ex.c ****   PeriphClkInit->PLL2.PLL2Q = (uint32_t)((RCC->PLL2DIVR & RCC_PLL2DIVR_Q2) >> RCC_PLL2DIVR_Q2_Pos)+
 2340              		.loc 1 1395 46
 2341 00c0 704B     		ldr	r3, .L286
 2342 00c2 9B6B     		ldr	r3, [r3, #56]
 2343              		.loc 1 1395 31
 2344 00c4 1B0C     		lsrs	r3, r3, #16
 2345 00c6 03F07F03 		and	r3, r3, #127
 2346              		.loc 1 1395 99
 2347 00ca 5A1C     		adds	r2, r3, #1
 2348              		.loc 1 1395 29
 2349 00cc 7B68     		ldr	r3, [r7, #4]
 2350 00ce 1A61     		str	r2, [r3, #16]
1396:./Drivers/STM32H7xx_HAL_Driver/Src/stm32h7xx_hal_rcc_ex.c ****   PeriphClkInit->PLL2.PLL2RGE = (uint32_t)((RCC->PLLCFGR & RCC_PLLCFGR_PLL2RGE) >> RCC_PLLCFGR_PLL2
 2351              		.loc 1 1396 48
 2352 00d0 6C4B     		ldr	r3, .L286
 2353 00d2 DB6A     		ldr	r3, [r3, #44]
 2354              		.loc 1 1396 33
 2355 00d4 9B09     		lsrs	r3, r3, #6
 2356 00d6 03F00302 		and	r2, r3, #3
 2357              		.loc 1 1396 31
 2358 00da 7B68     		ldr	r3, [r7, #4]
 2359 00dc 9A61     		str	r2, [r3, #24]
1397:./Drivers/STM32H7xx_HAL_Driver/Src/stm32h7xx_hal_rcc_ex.c ****   PeriphClkInit->PLL2.PLL2VCOSEL = (uint32_t)((RCC->PLLCFGR & RCC_PLLCFGR_PLL2VCOSEL) >> RCC_PLLCFG
 2360              		.loc 1 1397 51
 2361 00de 694B     		ldr	r3, .L286
 2362 00e0 DB6A     		ldr	r3, [r3, #44]
 2363              		.loc 1 1397 36
 2364 00e2 5B09     		lsrs	r3, r3, #5
 2365 00e4 03F00102 		and	r2, r3, #1
 2366              		.loc 1 1397 34
 2367 00e8 7B68     		ldr	r3, [r7, #4]
 2368 00ea DA61     		str	r2, [r3, #28]
1398:./Drivers/STM32H7xx_HAL_Driver/Src/stm32h7xx_hal_rcc_ex.c **** 
1399:./Drivers/STM32H7xx_HAL_Driver/Src/stm32h7xx_hal_rcc_ex.c ****   /* Get the USART1 configuration --------------------------------------------*/
1400:./Drivers/STM32H7xx_HAL_Driver/Src/stm32h7xx_hal_rcc_ex.c ****   PeriphClkInit->Usart16ClockSelection      = __HAL_RCC_GET_USART16_SOURCE();
 2369              		.loc 1 1400 47
 2370 00ec 654B     		ldr	r3, .L286
 2371 00ee 5B6D     		ldr	r3, [r3, #84]
 2372 00f0 03F03802 		and	r2, r3, #56
 2373              		.loc 1 1400 45
 2374 00f4 7B68     		ldr	r3, [r7, #4]
 2375 00f6 9A67     		str	r2, [r3, #120]
ARM GAS  /tmp/cctM9lCy.s 			page 68


1401:./Drivers/STM32H7xx_HAL_Driver/Src/stm32h7xx_hal_rcc_ex.c ****   /* Get the USART2/3/4/5/7/8 clock source -----------------------------------*/
1402:./Drivers/STM32H7xx_HAL_Driver/Src/stm32h7xx_hal_rcc_ex.c ****   PeriphClkInit->Usart234578ClockSelection  = __HAL_RCC_GET_USART234578_SOURCE();
 2376              		.loc 1 1402 47
 2377 00f8 624B     		ldr	r3, .L286
 2378 00fa 5B6D     		ldr	r3, [r3, #84]
 2379 00fc 03F00702 		and	r2, r3, #7
 2380              		.loc 1 1402 45
 2381 0100 7B68     		ldr	r3, [r7, #4]
 2382 0102 5A67     		str	r2, [r3, #116]
1403:./Drivers/STM32H7xx_HAL_Driver/Src/stm32h7xx_hal_rcc_ex.c ****   /* Get the LPUART1 clock source --------------------------------------------*/
1404:./Drivers/STM32H7xx_HAL_Driver/Src/stm32h7xx_hal_rcc_ex.c ****   PeriphClkInit->Lpuart1ClockSelection      = __HAL_RCC_GET_LPUART1_SOURCE();
 2383              		.loc 1 1404 47
 2384 0104 5F4B     		ldr	r3, .L286
 2385 0106 9B6D     		ldr	r3, [r3, #88]
 2386 0108 03F00702 		and	r2, r3, #7
 2387              		.loc 1 1404 45
 2388 010c 7B68     		ldr	r3, [r7, #4]
 2389 010e C3F89020 		str	r2, [r3, #144]
1405:./Drivers/STM32H7xx_HAL_Driver/Src/stm32h7xx_hal_rcc_ex.c ****   /* Get the I2C1/2/3 clock source -------------------------------------------*/
1406:./Drivers/STM32H7xx_HAL_Driver/Src/stm32h7xx_hal_rcc_ex.c ****   PeriphClkInit->I2c123ClockSelection       = __HAL_RCC_GET_I2C1_SOURCE();
 2390              		.loc 1 1406 47
 2391 0112 5C4B     		ldr	r3, .L286
 2392 0114 5B6D     		ldr	r3, [r3, #84]
 2393 0116 03F44052 		and	r2, r3, #12288
 2394              		.loc 1 1406 45
 2395 011a 7B68     		ldr	r3, [r7, #4]
 2396 011c C3F88020 		str	r2, [r3, #128]
1407:./Drivers/STM32H7xx_HAL_Driver/Src/stm32h7xx_hal_rcc_ex.c ****   /* Get the LPTIM1 clock source ---------------------------------------------*/
1408:./Drivers/STM32H7xx_HAL_Driver/Src/stm32h7xx_hal_rcc_ex.c ****   PeriphClkInit->Lptim1ClockSelection       = __HAL_RCC_GET_LPTIM1_SOURCE();
 2397              		.loc 1 1408 47
 2398 0120 584B     		ldr	r3, .L286
 2399 0122 5B6D     		ldr	r3, [r3, #84]
 2400 0124 03F0E042 		and	r2, r3, #1879048192
 2401              		.loc 1 1408 45
 2402 0128 7B68     		ldr	r3, [r7, #4]
 2403 012a C3F88C20 		str	r2, [r3, #140]
1409:./Drivers/STM32H7xx_HAL_Driver/Src/stm32h7xx_hal_rcc_ex.c ****   /* Get the LPTIM2 clock source ---------------------------------------------*/
1410:./Drivers/STM32H7xx_HAL_Driver/Src/stm32h7xx_hal_rcc_ex.c ****   PeriphClkInit->Lptim2ClockSelection       = __HAL_RCC_GET_LPTIM2_SOURCE();
 2404              		.loc 1 1410 47
 2405 012e 554B     		ldr	r3, .L286
 2406 0130 9B6D     		ldr	r3, [r3, #88]
 2407 0132 03F4E052 		and	r2, r3, #7168
 2408              		.loc 1 1410 45
 2409 0136 7B68     		ldr	r3, [r7, #4]
 2410 0138 C3F89820 		str	r2, [r3, #152]
1411:./Drivers/STM32H7xx_HAL_Driver/Src/stm32h7xx_hal_rcc_ex.c ****   /* Get the LPTIM3/4/5 clock source -----------------------------------------*/
1412:./Drivers/STM32H7xx_HAL_Driver/Src/stm32h7xx_hal_rcc_ex.c ****   PeriphClkInit->Lptim345ClockSelection     = __HAL_RCC_GET_LPTIM345_SOURCE();
 2411              		.loc 1 1412 47
 2412 013c 514B     		ldr	r3, .L286
 2413 013e 9B6D     		ldr	r3, [r3, #88]
 2414 0140 03F46042 		and	r2, r3, #57344
 2415              		.loc 1 1412 45
 2416 0144 7B68     		ldr	r3, [r7, #4]
 2417 0146 C3F89C20 		str	r2, [r3, #156]
1413:./Drivers/STM32H7xx_HAL_Driver/Src/stm32h7xx_hal_rcc_ex.c ****   /* Get the SAI1 clock source -----------------------------------------------*/
1414:./Drivers/STM32H7xx_HAL_Driver/Src/stm32h7xx_hal_rcc_ex.c ****   PeriphClkInit->Sai1ClockSelection         = __HAL_RCC_GET_SAI1_SOURCE();
 2418              		.loc 1 1414 47
ARM GAS  /tmp/cctM9lCy.s 			page 69


 2419 014a 4E4B     		ldr	r3, .L286
 2420 014c 1B6D     		ldr	r3, [r3, #80]
 2421 014e 03F00702 		and	r2, r3, #7
 2422              		.loc 1 1414 45
 2423 0152 7B68     		ldr	r3, [r7, #4]
 2424 0154 5A65     		str	r2, [r3, #84]
1415:./Drivers/STM32H7xx_HAL_Driver/Src/stm32h7xx_hal_rcc_ex.c ****   /* Get the SAI2/3 clock source ---------------------------------------------*/
1416:./Drivers/STM32H7xx_HAL_Driver/Src/stm32h7xx_hal_rcc_ex.c ****   PeriphClkInit->Sai23ClockSelection        = __HAL_RCC_GET_SAI23_SOURCE();
 2425              		.loc 1 1416 47
 2426 0156 4B4B     		ldr	r3, .L286
 2427 0158 1B6D     		ldr	r3, [r3, #80]
 2428 015a 03F4E072 		and	r2, r3, #448
 2429              		.loc 1 1416 45
 2430 015e 7B68     		ldr	r3, [r7, #4]
 2431 0160 9A65     		str	r2, [r3, #88]
1417:./Drivers/STM32H7xx_HAL_Driver/Src/stm32h7xx_hal_rcc_ex.c ****   /* Get the SAI4A clock source ----------------------------------------------*/
1418:./Drivers/STM32H7xx_HAL_Driver/Src/stm32h7xx_hal_rcc_ex.c ****   PeriphClkInit->Sai4AClockSelection        = __HAL_RCC_GET_SAI4A_SOURCE();
 2432              		.loc 1 1418 47
 2433 0162 484B     		ldr	r3, .L286
 2434 0164 9B6D     		ldr	r3, [r3, #88]
 2435 0166 03F46002 		and	r2, r3, #14680064
 2436              		.loc 1 1418 45
 2437 016a 7B68     		ldr	r3, [r7, #4]
 2438 016c C3F8A420 		str	r2, [r3, #164]
1419:./Drivers/STM32H7xx_HAL_Driver/Src/stm32h7xx_hal_rcc_ex.c ****   /* Get the SAI4B clock source ----------------------------------------------*/
1420:./Drivers/STM32H7xx_HAL_Driver/Src/stm32h7xx_hal_rcc_ex.c ****   PeriphClkInit->Sai4BClockSelection        = __HAL_RCC_GET_SAI4B_SOURCE();
 2439              		.loc 1 1420 47
 2440 0170 444B     		ldr	r3, .L286
 2441 0172 9B6D     		ldr	r3, [r3, #88]
 2442 0174 03F0E062 		and	r2, r3, #117440512
 2443              		.loc 1 1420 45
 2444 0178 7B68     		ldr	r3, [r7, #4]
 2445 017a C3F8A820 		str	r2, [r3, #168]
1421:./Drivers/STM32H7xx_HAL_Driver/Src/stm32h7xx_hal_rcc_ex.c ****   /* Get the RTC clock source ------------------------------------------------*/
1422:./Drivers/STM32H7xx_HAL_Driver/Src/stm32h7xx_hal_rcc_ex.c ****   PeriphClkInit->RTCClockSelection          = __HAL_RCC_GET_RTC_SOURCE();
 2446              		.loc 1 1422 47
 2447 017e 414B     		ldr	r3, .L286
 2448 0180 1B6F     		ldr	r3, [r3, #112]
 2449 0182 03F44072 		and	r2, r3, #768
 2450              		.loc 1 1422 45
 2451 0186 7B68     		ldr	r3, [r7, #4]
 2452 0188 C3F8B020 		str	r2, [r3, #176]
1423:./Drivers/STM32H7xx_HAL_Driver/Src/stm32h7xx_hal_rcc_ex.c ****   /* Get the USB clock source ------------------------------------------------*/
1424:./Drivers/STM32H7xx_HAL_Driver/Src/stm32h7xx_hal_rcc_ex.c ****   PeriphClkInit->UsbClockSelection          = __HAL_RCC_GET_USB_SOURCE();
 2453              		.loc 1 1424 47
 2454 018c 3D4B     		ldr	r3, .L286
 2455 018e 5B6D     		ldr	r3, [r3, #84]
 2456 0190 03F44012 		and	r2, r3, #3145728
 2457              		.loc 1 1424 45
 2458 0194 7B68     		ldr	r3, [r7, #4]
 2459 0196 C3F88420 		str	r2, [r3, #132]
1425:./Drivers/STM32H7xx_HAL_Driver/Src/stm32h7xx_hal_rcc_ex.c ****   /* Get the SDMMC clock source ----------------------------------------------*/
1426:./Drivers/STM32H7xx_HAL_Driver/Src/stm32h7xx_hal_rcc_ex.c ****   PeriphClkInit->SdmmcClockSelection        = __HAL_RCC_GET_SDMMC_SOURCE();
 2460              		.loc 1 1426 47
 2461 019a 3A4B     		ldr	r3, .L286
 2462 019c DB6C     		ldr	r3, [r3, #76]
 2463 019e 03F48032 		and	r2, r3, #65536
ARM GAS  /tmp/cctM9lCy.s 			page 70


 2464              		.loc 1 1426 45
 2465 01a2 7B68     		ldr	r3, [r7, #4]
 2466 01a4 DA64     		str	r2, [r3, #76]
1427:./Drivers/STM32H7xx_HAL_Driver/Src/stm32h7xx_hal_rcc_ex.c ****   /* Get the RNG clock source ------------------------------------------------*/
1428:./Drivers/STM32H7xx_HAL_Driver/Src/stm32h7xx_hal_rcc_ex.c ****   PeriphClkInit->RngClockSelection          = __HAL_RCC_GET_RNG_SOURCE();
 2467              		.loc 1 1428 47
 2468 01a6 374B     		ldr	r3, .L286
 2469 01a8 5B6D     		ldr	r3, [r3, #84]
 2470 01aa 03F44072 		and	r2, r3, #768
 2471              		.loc 1 1428 45
 2472 01ae 7B68     		ldr	r3, [r7, #4]
 2473 01b0 DA67     		str	r2, [r3, #124]
1429:./Drivers/STM32H7xx_HAL_Driver/Src/stm32h7xx_hal_rcc_ex.c ****   /* Get the HRTIM1 clock source ---------------------------------------------*/
1430:./Drivers/STM32H7xx_HAL_Driver/Src/stm32h7xx_hal_rcc_ex.c ****   PeriphClkInit->Hrtim1ClockSelection       = __HAL_RCC_GET_HRTIM1_SOURCE();
 2474              		.loc 1 1430 47
 2475 01b2 344B     		ldr	r3, .L286
 2476 01b4 1B69     		ldr	r3, [r3, #16]
 2477 01b6 03F48042 		and	r2, r3, #16384
 2478              		.loc 1 1430 45
 2479 01ba 7B68     		ldr	r3, [r7, #4]
 2480 01bc C3F8B420 		str	r2, [r3, #180]
1431:./Drivers/STM32H7xx_HAL_Driver/Src/stm32h7xx_hal_rcc_ex.c ****   /* Get the ADC clock source ------------------------------------------------*/
1432:./Drivers/STM32H7xx_HAL_Driver/Src/stm32h7xx_hal_rcc_ex.c ****   PeriphClkInit->AdcClockSelection          = __HAL_RCC_GET_ADC_SOURCE();
 2481              		.loc 1 1432 47
 2482 01c0 304B     		ldr	r3, .L286
 2483 01c2 9B6D     		ldr	r3, [r3, #88]
 2484 01c4 03F44032 		and	r2, r3, #196608
 2485              		.loc 1 1432 45
 2486 01c8 7B68     		ldr	r3, [r7, #4]
 2487 01ca C3F8A020 		str	r2, [r3, #160]
1433:./Drivers/STM32H7xx_HAL_Driver/Src/stm32h7xx_hal_rcc_ex.c ****   /* Get the SWPMI1 clock source ---------------------------------------------*/
1434:./Drivers/STM32H7xx_HAL_Driver/Src/stm32h7xx_hal_rcc_ex.c ****   PeriphClkInit->Swpmi1ClockSelection       = __HAL_RCC_GET_SWPMI1_SOURCE();
 2488              		.loc 1 1434 47
 2489 01ce 2D4B     		ldr	r3, .L286
 2490 01d0 1B6D     		ldr	r3, [r3, #80]
 2491 01d2 03F00042 		and	r2, r3, #-2147483648
 2492              		.loc 1 1434 45
 2493 01d6 7B68     		ldr	r3, [r7, #4]
 2494 01d8 1A67     		str	r2, [r3, #112]
1435:./Drivers/STM32H7xx_HAL_Driver/Src/stm32h7xx_hal_rcc_ex.c ****   /* Get the DFSDM1 clock source ---------------------------------------------*/
1436:./Drivers/STM32H7xx_HAL_Driver/Src/stm32h7xx_hal_rcc_ex.c ****   PeriphClkInit->Dfsdm1ClockSelection       = __HAL_RCC_GET_DFSDM1_SOURCE();
 2495              		.loc 1 1436 47
 2496 01da 2A4B     		ldr	r3, .L286
 2497 01dc 1B6D     		ldr	r3, [r3, #80]
 2498 01de 03F08072 		and	r2, r3, #16777216
 2499              		.loc 1 1436 45
 2500 01e2 7B68     		ldr	r3, [r7, #4]
 2501 01e4 9A66     		str	r2, [r3, #104]
1437:./Drivers/STM32H7xx_HAL_Driver/Src/stm32h7xx_hal_rcc_ex.c ****   /* Get the SPDIFRX clock source --------------------------------------------*/
1438:./Drivers/STM32H7xx_HAL_Driver/Src/stm32h7xx_hal_rcc_ex.c ****   PeriphClkInit->SpdifrxClockSelection      = __HAL_RCC_GET_SPDIFRX_SOURCE();
 2502              		.loc 1 1438 47
 2503 01e6 274B     		ldr	r3, .L286
 2504 01e8 1B6D     		ldr	r3, [r3, #80]
 2505 01ea 03F44012 		and	r2, r3, #3145728
 2506              		.loc 1 1438 45
 2507 01ee 7B68     		ldr	r3, [r7, #4]
 2508 01f0 5A66     		str	r2, [r3, #100]
ARM GAS  /tmp/cctM9lCy.s 			page 71


1439:./Drivers/STM32H7xx_HAL_Driver/Src/stm32h7xx_hal_rcc_ex.c ****   /* Get the SPI1/2/3 clock source -------------------------------------------*/
1440:./Drivers/STM32H7xx_HAL_Driver/Src/stm32h7xx_hal_rcc_ex.c ****   PeriphClkInit->Spi123ClockSelection       = __HAL_RCC_GET_SPI123_SOURCE();
 2509              		.loc 1 1440 47
 2510 01f2 244B     		ldr	r3, .L286
 2511 01f4 1B6D     		ldr	r3, [r3, #80]
 2512 01f6 03F4E042 		and	r2, r3, #28672
 2513              		.loc 1 1440 45
 2514 01fa 7B68     		ldr	r3, [r7, #4]
 2515 01fc DA65     		str	r2, [r3, #92]
1441:./Drivers/STM32H7xx_HAL_Driver/Src/stm32h7xx_hal_rcc_ex.c ****   /* Get the SPI4/5 clock source ---------------------------------------------*/
1442:./Drivers/STM32H7xx_HAL_Driver/Src/stm32h7xx_hal_rcc_ex.c ****   PeriphClkInit->Spi45ClockSelection        = __HAL_RCC_GET_SPI45_SOURCE();
 2516              		.loc 1 1442 47
 2517 01fe 214B     		ldr	r3, .L286
 2518 0200 1B6D     		ldr	r3, [r3, #80]
 2519 0202 03F4E022 		and	r2, r3, #458752
 2520              		.loc 1 1442 45
 2521 0206 7B68     		ldr	r3, [r7, #4]
 2522 0208 1A66     		str	r2, [r3, #96]
1443:./Drivers/STM32H7xx_HAL_Driver/Src/stm32h7xx_hal_rcc_ex.c ****   /* Get the SPI6 clock source -----------------------------------------------*/
1444:./Drivers/STM32H7xx_HAL_Driver/Src/stm32h7xx_hal_rcc_ex.c ****   PeriphClkInit->Spi6ClockSelection         = __HAL_RCC_GET_SPI6_SOURCE();
 2523              		.loc 1 1444 47
 2524 020a 1E4B     		ldr	r3, .L286
 2525 020c 9B6D     		ldr	r3, [r3, #88]
 2526 020e 03F0E042 		and	r2, r3, #1879048192
 2527              		.loc 1 1444 45
 2528 0212 7B68     		ldr	r3, [r7, #4]
 2529 0214 C3F8AC20 		str	r2, [r3, #172]
1445:./Drivers/STM32H7xx_HAL_Driver/Src/stm32h7xx_hal_rcc_ex.c ****   /* Get the FDCAN clock source ----------------------------------------------*/
1446:./Drivers/STM32H7xx_HAL_Driver/Src/stm32h7xx_hal_rcc_ex.c ****   PeriphClkInit->FdcanClockSelection        = __HAL_RCC_GET_FDCAN_SOURCE();
 2530              		.loc 1 1446 47
 2531 0218 1A4B     		ldr	r3, .L286
 2532 021a 1B6D     		ldr	r3, [r3, #80]
 2533 021c 03F04052 		and	r2, r3, #805306368
 2534              		.loc 1 1446 45
 2535 0220 7B68     		ldr	r3, [r7, #4]
 2536 0222 DA66     		str	r2, [r3, #108]
1447:./Drivers/STM32H7xx_HAL_Driver/Src/stm32h7xx_hal_rcc_ex.c ****   /* Get the CEC clock source ------------------------------------------------*/
1448:./Drivers/STM32H7xx_HAL_Driver/Src/stm32h7xx_hal_rcc_ex.c ****   PeriphClkInit->CecClockSelection          = __HAL_RCC_GET_CEC_SOURCE();
 2537              		.loc 1 1448 47
 2538 0224 174B     		ldr	r3, .L286
 2539 0226 5B6D     		ldr	r3, [r3, #84]
 2540 0228 03F44002 		and	r2, r3, #12582912
 2541              		.loc 1 1448 45
 2542 022c 7B68     		ldr	r3, [r7, #4]
 2543 022e C3F88820 		str	r2, [r3, #136]
1449:./Drivers/STM32H7xx_HAL_Driver/Src/stm32h7xx_hal_rcc_ex.c ****   /* Get the FMC clock source ------------------------------------------------*/
1450:./Drivers/STM32H7xx_HAL_Driver/Src/stm32h7xx_hal_rcc_ex.c ****   PeriphClkInit->FmcClockSelection          = __HAL_RCC_GET_FMC_SOURCE();
 2544              		.loc 1 1450 47
 2545 0232 144B     		ldr	r3, .L286
 2546 0234 DB6C     		ldr	r3, [r3, #76]
 2547 0236 03F00302 		and	r2, r3, #3
 2548              		.loc 1 1450 45
 2549 023a 7B68     		ldr	r3, [r7, #4]
 2550 023c 5A64     		str	r2, [r3, #68]
1451:./Drivers/STM32H7xx_HAL_Driver/Src/stm32h7xx_hal_rcc_ex.c ****   /* Get the QSPI clock source -----------------------------------------------*/
1452:./Drivers/STM32H7xx_HAL_Driver/Src/stm32h7xx_hal_rcc_ex.c ****   PeriphClkInit->QspiClockSelection         = __HAL_RCC_GET_QSPI_SOURCE();
 2551              		.loc 1 1452 47
ARM GAS  /tmp/cctM9lCy.s 			page 72


 2552 023e 114B     		ldr	r3, .L286
 2553 0240 DB6C     		ldr	r3, [r3, #76]
 2554 0242 03F03002 		and	r2, r3, #48
 2555              		.loc 1 1452 45
 2556 0246 7B68     		ldr	r3, [r7, #4]
 2557 0248 9A64     		str	r2, [r3, #72]
1453:./Drivers/STM32H7xx_HAL_Driver/Src/stm32h7xx_hal_rcc_ex.c **** 
1454:./Drivers/STM32H7xx_HAL_Driver/Src/stm32h7xx_hal_rcc_ex.c **** #if defined(DSI)
1455:./Drivers/STM32H7xx_HAL_Driver/Src/stm32h7xx_hal_rcc_ex.c ****   /* Get the DSI clock source ------------------------------------------------*/
1456:./Drivers/STM32H7xx_HAL_Driver/Src/stm32h7xx_hal_rcc_ex.c ****   PeriphClkInit->DsiClockSelection          = __HAL_RCC_GET_DSI_SOURCE();
1457:./Drivers/STM32H7xx_HAL_Driver/Src/stm32h7xx_hal_rcc_ex.c **** #endif /*DSI*/
1458:./Drivers/STM32H7xx_HAL_Driver/Src/stm32h7xx_hal_rcc_ex.c **** 
1459:./Drivers/STM32H7xx_HAL_Driver/Src/stm32h7xx_hal_rcc_ex.c ****   /* Get the CKPER clock source ----------------------------------------------*/
1460:./Drivers/STM32H7xx_HAL_Driver/Src/stm32h7xx_hal_rcc_ex.c ****   PeriphClkInit->CkperClockSelection        = __HAL_RCC_GET_CLKP_SOURCE();
 2558              		.loc 1 1460 47
 2559 024a 0E4B     		ldr	r3, .L286
 2560 024c DB6C     		ldr	r3, [r3, #76]
 2561 024e 03F04052 		and	r2, r3, #805306368
 2562              		.loc 1 1460 45
 2563 0252 7B68     		ldr	r3, [r7, #4]
 2564 0254 1A65     		str	r2, [r3, #80]
1461:./Drivers/STM32H7xx_HAL_Driver/Src/stm32h7xx_hal_rcc_ex.c **** 
1462:./Drivers/STM32H7xx_HAL_Driver/Src/stm32h7xx_hal_rcc_ex.c ****   /* Get the TIM Prescaler configuration -------------------------------------*/
1463:./Drivers/STM32H7xx_HAL_Driver/Src/stm32h7xx_hal_rcc_ex.c ****   if ((RCC->CFGR & RCC_CFGR_TIMPRE) == 0U)
 2565              		.loc 1 1463 11
 2566 0256 0B4B     		ldr	r3, .L286
 2567 0258 1B69     		ldr	r3, [r3, #16]
 2568              		.loc 1 1463 18
 2569 025a 03F40043 		and	r3, r3, #32768
 2570              		.loc 1 1463 6
 2571 025e 002B     		cmp	r3, #0
 2572 0260 04D1     		bne	.L283
1464:./Drivers/STM32H7xx_HAL_Driver/Src/stm32h7xx_hal_rcc_ex.c ****   {
1465:./Drivers/STM32H7xx_HAL_Driver/Src/stm32h7xx_hal_rcc_ex.c ****     PeriphClkInit->TIMPresSelection = RCC_TIMPRES_DESACTIVATED;
 2573              		.loc 1 1465 37
 2574 0262 7B68     		ldr	r3, [r7, #4]
 2575 0264 0022     		movs	r2, #0
 2576 0266 C3F8B820 		str	r2, [r3, #184]
1466:./Drivers/STM32H7xx_HAL_Driver/Src/stm32h7xx_hal_rcc_ex.c ****   }
1467:./Drivers/STM32H7xx_HAL_Driver/Src/stm32h7xx_hal_rcc_ex.c ****   else
1468:./Drivers/STM32H7xx_HAL_Driver/Src/stm32h7xx_hal_rcc_ex.c ****   {
1469:./Drivers/STM32H7xx_HAL_Driver/Src/stm32h7xx_hal_rcc_ex.c ****     PeriphClkInit->TIMPresSelection = RCC_TIMPRES_ACTIVATED;
1470:./Drivers/STM32H7xx_HAL_Driver/Src/stm32h7xx_hal_rcc_ex.c ****   }
1471:./Drivers/STM32H7xx_HAL_Driver/Src/stm32h7xx_hal_rcc_ex.c **** }
 2577              		.loc 1 1471 1
 2578 026a 04E0     		b	.L285
 2579              	.L283:
1469:./Drivers/STM32H7xx_HAL_Driver/Src/stm32h7xx_hal_rcc_ex.c ****   }
 2580              		.loc 1 1469 37
 2581 026c 7B68     		ldr	r3, [r7, #4]
 2582 026e 4FF40042 		mov	r2, #32768
