ARM GAS  /tmp/ccw511VT.s 			page 1


   1              		.cpu cortex-m7
   2              		.eabi_attribute 28, 1
   3              		.eabi_attribute 20, 1
   4              		.eabi_attribute 21, 1
   5              		.eabi_attribute 23, 3
   6              		.eabi_attribute 24, 1
   7              		.eabi_attribute 25, 1
   8              		.eabi_attribute 26, 1
   9              		.eabi_attribute 30, 6
  10              		.eabi_attribute 34, 1
  11              		.eabi_attribute 18, 4
  12              		.file	"stm32h7xx_hal_flash_ex.c"
  13              		.text
  14              	.Ltext0:
  15              		.cfi_sections	.debug_frame
  16              		.section	.text.HAL_FLASHEx_Erase,"ax",%progbits
  17              		.align	1
  18              		.global	HAL_FLASHEx_Erase
  19              		.arch armv7e-m
  20              		.syntax unified
  21              		.thumb
  22              		.thumb_func
  23              		.fpu fpv5-d16
  25              	HAL_FLASHEx_Erase:
  26              	.LFB134:
  27              		.file 1 "./Drivers/STM32H7xx_HAL_Driver/Src/stm32h7xx_hal_flash_ex.c"
   1:./Drivers/STM32H7xx_HAL_Driver/Src/stm32h7xx_hal_flash_ex.c **** /**
   2:./Drivers/STM32H7xx_HAL_Driver/Src/stm32h7xx_hal_flash_ex.c ****   ******************************************************************************
   3:./Drivers/STM32H7xx_HAL_Driver/Src/stm32h7xx_hal_flash_ex.c ****   * @file    stm32h7xx_hal_flash_ex.c
   4:./Drivers/STM32H7xx_HAL_Driver/Src/stm32h7xx_hal_flash_ex.c ****   * @author  MCD Application Team
   5:./Drivers/STM32H7xx_HAL_Driver/Src/stm32h7xx_hal_flash_ex.c ****   * @brief   Extended FLASH HAL module driver.
   6:./Drivers/STM32H7xx_HAL_Driver/Src/stm32h7xx_hal_flash_ex.c ****   *          This file provides firmware functions to manage the following
   7:./Drivers/STM32H7xx_HAL_Driver/Src/stm32h7xx_hal_flash_ex.c ****   *          functionalities of the FLASH extension peripheral:
   8:./Drivers/STM32H7xx_HAL_Driver/Src/stm32h7xx_hal_flash_ex.c ****   *           + Extended programming operations functions
   9:./Drivers/STM32H7xx_HAL_Driver/Src/stm32h7xx_hal_flash_ex.c ****   *
  10:./Drivers/STM32H7xx_HAL_Driver/Src/stm32h7xx_hal_flash_ex.c ****  @verbatim
  11:./Drivers/STM32H7xx_HAL_Driver/Src/stm32h7xx_hal_flash_ex.c ****  ==============================================================================
  12:./Drivers/STM32H7xx_HAL_Driver/Src/stm32h7xx_hal_flash_ex.c ****                    ##### Flash Extension features #####
  13:./Drivers/STM32H7xx_HAL_Driver/Src/stm32h7xx_hal_flash_ex.c ****   ==============================================================================
  14:./Drivers/STM32H7xx_HAL_Driver/Src/stm32h7xx_hal_flash_ex.c **** 
  15:./Drivers/STM32H7xx_HAL_Driver/Src/stm32h7xx_hal_flash_ex.c ****   [..] Comparing to other previous devices, the FLASH interface for STM32H7xx
  16:./Drivers/STM32H7xx_HAL_Driver/Src/stm32h7xx_hal_flash_ex.c ****        devices contains the following additional features
  17:./Drivers/STM32H7xx_HAL_Driver/Src/stm32h7xx_hal_flash_ex.c **** 
  18:./Drivers/STM32H7xx_HAL_Driver/Src/stm32h7xx_hal_flash_ex.c ****        (+) Capacity up to 2 Mbyte with dual bank architecture supporting read-while-write
  19:./Drivers/STM32H7xx_HAL_Driver/Src/stm32h7xx_hal_flash_ex.c ****            capability (RWW)
  20:./Drivers/STM32H7xx_HAL_Driver/Src/stm32h7xx_hal_flash_ex.c ****        (+) Dual bank memory organization
  21:./Drivers/STM32H7xx_HAL_Driver/Src/stm32h7xx_hal_flash_ex.c ****        (+) PCROP protection for all banks
  22:./Drivers/STM32H7xx_HAL_Driver/Src/stm32h7xx_hal_flash_ex.c ****        (+) Global readout protection (RDP)
  23:./Drivers/STM32H7xx_HAL_Driver/Src/stm32h7xx_hal_flash_ex.c ****        (+) Write protection
  24:./Drivers/STM32H7xx_HAL_Driver/Src/stm32h7xx_hal_flash_ex.c ****        (+) Secure access only protection
  25:./Drivers/STM32H7xx_HAL_Driver/Src/stm32h7xx_hal_flash_ex.c ****        (+) Bank / register swapping
  26:./Drivers/STM32H7xx_HAL_Driver/Src/stm32h7xx_hal_flash_ex.c ****        (+) Cyclic Redundancy Check (CRC)
  27:./Drivers/STM32H7xx_HAL_Driver/Src/stm32h7xx_hal_flash_ex.c **** 
  28:./Drivers/STM32H7xx_HAL_Driver/Src/stm32h7xx_hal_flash_ex.c ****                         ##### How to use this driver #####
  29:./Drivers/STM32H7xx_HAL_Driver/Src/stm32h7xx_hal_flash_ex.c ****  ==============================================================================
  30:./Drivers/STM32H7xx_HAL_Driver/Src/stm32h7xx_hal_flash_ex.c ****   [..] This driver provides functions to configure and program the FLASH memory
  31:./Drivers/STM32H7xx_HAL_Driver/Src/stm32h7xx_hal_flash_ex.c ****        of all STM32H7xx devices. It includes
ARM GAS  /tmp/ccw511VT.s 			page 2


  32:./Drivers/STM32H7xx_HAL_Driver/Src/stm32h7xx_hal_flash_ex.c ****       (#) FLASH Memory Erase functions:
  33:./Drivers/STM32H7xx_HAL_Driver/Src/stm32h7xx_hal_flash_ex.c ****            (++) Lock and Unlock the FLASH interface using HAL_FLASH_Unlock() and
  34:./Drivers/STM32H7xx_HAL_Driver/Src/stm32h7xx_hal_flash_ex.c ****                 HAL_FLASH_Lock() functions
  35:./Drivers/STM32H7xx_HAL_Driver/Src/stm32h7xx_hal_flash_ex.c ****            (++) Erase function: Sector erase, bank erase and dual-bank mass erase
  36:./Drivers/STM32H7xx_HAL_Driver/Src/stm32h7xx_hal_flash_ex.c ****            (++) There are two modes of erase :
  37:./Drivers/STM32H7xx_HAL_Driver/Src/stm32h7xx_hal_flash_ex.c ****              (+++) Polling Mode using HAL_FLASHEx_Erase()
  38:./Drivers/STM32H7xx_HAL_Driver/Src/stm32h7xx_hal_flash_ex.c ****              (+++) Interrupt Mode using HAL_FLASHEx_Erase_IT()
  39:./Drivers/STM32H7xx_HAL_Driver/Src/stm32h7xx_hal_flash_ex.c **** 
  40:./Drivers/STM32H7xx_HAL_Driver/Src/stm32h7xx_hal_flash_ex.c ****       (#) Option Bytes Programming functions: Use HAL_FLASHEx_OBProgram() to:
  41:./Drivers/STM32H7xx_HAL_Driver/Src/stm32h7xx_hal_flash_ex.c ****         (++) Set/Reset the write protection per bank
  42:./Drivers/STM32H7xx_HAL_Driver/Src/stm32h7xx_hal_flash_ex.c ****         (++) Set the Read protection Level
  43:./Drivers/STM32H7xx_HAL_Driver/Src/stm32h7xx_hal_flash_ex.c ****         (++) Set the BOR level
  44:./Drivers/STM32H7xx_HAL_Driver/Src/stm32h7xx_hal_flash_ex.c ****         (++) Program the user Option Bytes
  45:./Drivers/STM32H7xx_HAL_Driver/Src/stm32h7xx_hal_flash_ex.c ****         (++) PCROP protection configuration and control per bank
  46:./Drivers/STM32H7xx_HAL_Driver/Src/stm32h7xx_hal_flash_ex.c ****         (++) Secure area configuration and control per bank
  47:./Drivers/STM32H7xx_HAL_Driver/Src/stm32h7xx_hal_flash_ex.c ****         (++) Core Boot address configuration
  48:./Drivers/STM32H7xx_HAL_Driver/Src/stm32h7xx_hal_flash_ex.c **** 
  49:./Drivers/STM32H7xx_HAL_Driver/Src/stm32h7xx_hal_flash_ex.c ****       (#) FLASH Memory Lock and unlock per Bank: HAL_FLASHEx_Lock_Bank1(), HAL_FLASHEx_Unlock_Bank1
  50:./Drivers/STM32H7xx_HAL_Driver/Src/stm32h7xx_hal_flash_ex.c ****           HAL_FLASHEx_Lock_Bank2() and HAL_FLASHEx_Unlock_Bank2() functions
  51:./Drivers/STM32H7xx_HAL_Driver/Src/stm32h7xx_hal_flash_ex.c **** 
  52:./Drivers/STM32H7xx_HAL_Driver/Src/stm32h7xx_hal_flash_ex.c ****       (#) FLASH CRC computation function: Use HAL_FLASHEx_ComputeCRC() to:
  53:./Drivers/STM32H7xx_HAL_Driver/Src/stm32h7xx_hal_flash_ex.c ****           (++) Enable CRC feature
  54:./Drivers/STM32H7xx_HAL_Driver/Src/stm32h7xx_hal_flash_ex.c ****           (++) Program the desired burst size
  55:./Drivers/STM32H7xx_HAL_Driver/Src/stm32h7xx_hal_flash_ex.c ****           (++) Define the user Flash Area on which the CRC has be computed
  56:./Drivers/STM32H7xx_HAL_Driver/Src/stm32h7xx_hal_flash_ex.c ****           (++) Perform the CRC computation
  57:./Drivers/STM32H7xx_HAL_Driver/Src/stm32h7xx_hal_flash_ex.c ****           (++) Disable CRC feature
  58:./Drivers/STM32H7xx_HAL_Driver/Src/stm32h7xx_hal_flash_ex.c **** 
  59:./Drivers/STM32H7xx_HAL_Driver/Src/stm32h7xx_hal_flash_ex.c ****  @endverbatim
  60:./Drivers/STM32H7xx_HAL_Driver/Src/stm32h7xx_hal_flash_ex.c ****   ******************************************************************************
  61:./Drivers/STM32H7xx_HAL_Driver/Src/stm32h7xx_hal_flash_ex.c ****   * @attention
  62:./Drivers/STM32H7xx_HAL_Driver/Src/stm32h7xx_hal_flash_ex.c ****   *
  63:./Drivers/STM32H7xx_HAL_Driver/Src/stm32h7xx_hal_flash_ex.c ****   * <h2><center>&copy; COPYRIGHT(c) 2017 STMicroelectronics.
  64:./Drivers/STM32H7xx_HAL_Driver/Src/stm32h7xx_hal_flash_ex.c ****   * All rights reserved.</center></h2>
  65:./Drivers/STM32H7xx_HAL_Driver/Src/stm32h7xx_hal_flash_ex.c ****   *
  66:./Drivers/STM32H7xx_HAL_Driver/Src/stm32h7xx_hal_flash_ex.c ****   * This software component is licensed by ST under BSD 3-Clause license,
  67:./Drivers/STM32H7xx_HAL_Driver/Src/stm32h7xx_hal_flash_ex.c ****   * the "License"; You may not use this file except in compliance with the
  68:./Drivers/STM32H7xx_HAL_Driver/Src/stm32h7xx_hal_flash_ex.c ****   * License. You may obtain a copy of the License at:
  69:./Drivers/STM32H7xx_HAL_Driver/Src/stm32h7xx_hal_flash_ex.c ****   *                       opensource.org/licenses/BSD-3-Clause
  70:./Drivers/STM32H7xx_HAL_Driver/Src/stm32h7xx_hal_flash_ex.c ****   *
  71:./Drivers/STM32H7xx_HAL_Driver/Src/stm32h7xx_hal_flash_ex.c ****   ******************************************************************************
  72:./Drivers/STM32H7xx_HAL_Driver/Src/stm32h7xx_hal_flash_ex.c ****   */
  73:./Drivers/STM32H7xx_HAL_Driver/Src/stm32h7xx_hal_flash_ex.c **** 
  74:./Drivers/STM32H7xx_HAL_Driver/Src/stm32h7xx_hal_flash_ex.c **** /* Includes ------------------------------------------------------------------*/
  75:./Drivers/STM32H7xx_HAL_Driver/Src/stm32h7xx_hal_flash_ex.c **** #include "stm32h7xx_hal.h"
  76:./Drivers/STM32H7xx_HAL_Driver/Src/stm32h7xx_hal_flash_ex.c **** 
  77:./Drivers/STM32H7xx_HAL_Driver/Src/stm32h7xx_hal_flash_ex.c **** /** @addtogroup STM32H7xx_HAL_Driver
  78:./Drivers/STM32H7xx_HAL_Driver/Src/stm32h7xx_hal_flash_ex.c ****   * @{
  79:./Drivers/STM32H7xx_HAL_Driver/Src/stm32h7xx_hal_flash_ex.c ****   */
  80:./Drivers/STM32H7xx_HAL_Driver/Src/stm32h7xx_hal_flash_ex.c **** 
  81:./Drivers/STM32H7xx_HAL_Driver/Src/stm32h7xx_hal_flash_ex.c **** /** @defgroup FLASHEx  FLASHEx
  82:./Drivers/STM32H7xx_HAL_Driver/Src/stm32h7xx_hal_flash_ex.c ****   * @brief FLASH HAL Extension module driver
  83:./Drivers/STM32H7xx_HAL_Driver/Src/stm32h7xx_hal_flash_ex.c ****   * @{
  84:./Drivers/STM32H7xx_HAL_Driver/Src/stm32h7xx_hal_flash_ex.c ****   */
  85:./Drivers/STM32H7xx_HAL_Driver/Src/stm32h7xx_hal_flash_ex.c **** 
  86:./Drivers/STM32H7xx_HAL_Driver/Src/stm32h7xx_hal_flash_ex.c **** #ifdef HAL_FLASH_MODULE_ENABLED
  87:./Drivers/STM32H7xx_HAL_Driver/Src/stm32h7xx_hal_flash_ex.c **** 
  88:./Drivers/STM32H7xx_HAL_Driver/Src/stm32h7xx_hal_flash_ex.c **** /* Private typedef -----------------------------------------------------------*/
ARM GAS  /tmp/ccw511VT.s 			page 3


  89:./Drivers/STM32H7xx_HAL_Driver/Src/stm32h7xx_hal_flash_ex.c **** /* Private define ------------------------------------------------------------*/
  90:./Drivers/STM32H7xx_HAL_Driver/Src/stm32h7xx_hal_flash_ex.c **** /** @addtogroup FLASHEx_Private_Constants
  91:./Drivers/STM32H7xx_HAL_Driver/Src/stm32h7xx_hal_flash_ex.c ****   * @{
  92:./Drivers/STM32H7xx_HAL_Driver/Src/stm32h7xx_hal_flash_ex.c ****   */
  93:./Drivers/STM32H7xx_HAL_Driver/Src/stm32h7xx_hal_flash_ex.c **** #define FLASH_TIMEOUT_VALUE       50000U /* 50 s */
  94:./Drivers/STM32H7xx_HAL_Driver/Src/stm32h7xx_hal_flash_ex.c **** 
  95:./Drivers/STM32H7xx_HAL_Driver/Src/stm32h7xx_hal_flash_ex.c **** /**
  96:./Drivers/STM32H7xx_HAL_Driver/Src/stm32h7xx_hal_flash_ex.c ****   * @}
  97:./Drivers/STM32H7xx_HAL_Driver/Src/stm32h7xx_hal_flash_ex.c ****   */
  98:./Drivers/STM32H7xx_HAL_Driver/Src/stm32h7xx_hal_flash_ex.c **** /* Private macro -------------------------------------------------------------*/
  99:./Drivers/STM32H7xx_HAL_Driver/Src/stm32h7xx_hal_flash_ex.c **** /* Private variables ---------------------------------------------------------*/
 100:./Drivers/STM32H7xx_HAL_Driver/Src/stm32h7xx_hal_flash_ex.c **** /* Private function prototypes -----------------------------------------------*/
 101:./Drivers/STM32H7xx_HAL_Driver/Src/stm32h7xx_hal_flash_ex.c **** /** @defgroup FLASHEx_Private_Functions FLASHEx Private Functions
 102:./Drivers/STM32H7xx_HAL_Driver/Src/stm32h7xx_hal_flash_ex.c ****   * @{
 103:./Drivers/STM32H7xx_HAL_Driver/Src/stm32h7xx_hal_flash_ex.c ****   */
 104:./Drivers/STM32H7xx_HAL_Driver/Src/stm32h7xx_hal_flash_ex.c **** static void FLASH_MassErase(uint32_t VoltageRange, uint32_t Banks);
 105:./Drivers/STM32H7xx_HAL_Driver/Src/stm32h7xx_hal_flash_ex.c **** static void FLASH_OB_EnableWRP(uint32_t WRPSector, uint32_t Banks);
 106:./Drivers/STM32H7xx_HAL_Driver/Src/stm32h7xx_hal_flash_ex.c **** static void FLASH_OB_DisableWRP(uint32_t WRPSector, uint32_t Bank);
 107:./Drivers/STM32H7xx_HAL_Driver/Src/stm32h7xx_hal_flash_ex.c **** static void FLASH_OB_GetWRP(uint32_t *WRPState, uint32_t *WRPSector, uint32_t Bank);
 108:./Drivers/STM32H7xx_HAL_Driver/Src/stm32h7xx_hal_flash_ex.c **** static void FLASH_OB_RDPConfig(uint32_t RDPLevel);
 109:./Drivers/STM32H7xx_HAL_Driver/Src/stm32h7xx_hal_flash_ex.c **** static uint32_t FLASH_OB_GetRDP(void);
 110:./Drivers/STM32H7xx_HAL_Driver/Src/stm32h7xx_hal_flash_ex.c **** static void FLASH_OB_PCROPConfig(uint32_t PCROConfigRDP, uint32_t PCROPStartAddr, uint32_t PCROPEnd
 111:./Drivers/STM32H7xx_HAL_Driver/Src/stm32h7xx_hal_flash_ex.c **** static void FLASH_OB_GetPCROP(uint32_t *PCROPConfig, uint32_t *PCROPStartAddr,uint32_t *PCROPEndAdd
 112:./Drivers/STM32H7xx_HAL_Driver/Src/stm32h7xx_hal_flash_ex.c **** static void FLASH_OB_BOR_LevelConfig(uint32_t Level);
 113:./Drivers/STM32H7xx_HAL_Driver/Src/stm32h7xx_hal_flash_ex.c **** static uint32_t FLASH_OB_GetBOR(void);
 114:./Drivers/STM32H7xx_HAL_Driver/Src/stm32h7xx_hal_flash_ex.c **** static void FLASH_OB_UserConfig(uint32_t UserType, uint32_t UserConfig);
 115:./Drivers/STM32H7xx_HAL_Driver/Src/stm32h7xx_hal_flash_ex.c **** static uint32_t FLASH_OB_GetUser(void);
 116:./Drivers/STM32H7xx_HAL_Driver/Src/stm32h7xx_hal_flash_ex.c **** static void FLASH_OB_BootAddConfig(uint32_t BootOption, uint32_t BootAddress0, uint32_t BootAddress
 117:./Drivers/STM32H7xx_HAL_Driver/Src/stm32h7xx_hal_flash_ex.c **** static void FLASH_OB_GetBootAdd(uint32_t *BootAddress0, uint32_t *BootAddress1);
 118:./Drivers/STM32H7xx_HAL_Driver/Src/stm32h7xx_hal_flash_ex.c **** static void FLASH_OB_SecureAreaConfig(uint32_t SecureAreaConfig, uint32_t SecureAreaStartAddr, uint
 119:./Drivers/STM32H7xx_HAL_Driver/Src/stm32h7xx_hal_flash_ex.c **** static void FLASH_OB_GetSecureArea(uint32_t *SecureAreaConfig, uint32_t *SecureAreaStartAddr, uint3
 120:./Drivers/STM32H7xx_HAL_Driver/Src/stm32h7xx_hal_flash_ex.c **** static void FLASH_CRC_AddSector(uint32_t Sector, uint32_t Bank);
 121:./Drivers/STM32H7xx_HAL_Driver/Src/stm32h7xx_hal_flash_ex.c **** static void FLASH_CRC_SelectAddress(uint32_t CRCStartAddr, uint32_t CRCEndAddr, uint32_t Bank);
 122:./Drivers/STM32H7xx_HAL_Driver/Src/stm32h7xx_hal_flash_ex.c **** 
 123:./Drivers/STM32H7xx_HAL_Driver/Src/stm32h7xx_hal_flash_ex.c **** #if defined(DUAL_CORE)
 124:./Drivers/STM32H7xx_HAL_Driver/Src/stm32h7xx_hal_flash_ex.c **** static void FLASH_OB_CM4BootAddConfig(uint32_t BootOption, uint32_t BootAddress0, uint32_t BootAddr
 125:./Drivers/STM32H7xx_HAL_Driver/Src/stm32h7xx_hal_flash_ex.c **** static void FLASH_OB_GetCM4BootAdd(uint32_t *BootAddress0, uint32_t *BootAddress1);
 126:./Drivers/STM32H7xx_HAL_Driver/Src/stm32h7xx_hal_flash_ex.c **** #endif /*DUAL_CORE*/
 127:./Drivers/STM32H7xx_HAL_Driver/Src/stm32h7xx_hal_flash_ex.c **** /**
 128:./Drivers/STM32H7xx_HAL_Driver/Src/stm32h7xx_hal_flash_ex.c ****   * @}
 129:./Drivers/STM32H7xx_HAL_Driver/Src/stm32h7xx_hal_flash_ex.c ****   */
 130:./Drivers/STM32H7xx_HAL_Driver/Src/stm32h7xx_hal_flash_ex.c **** 
 131:./Drivers/STM32H7xx_HAL_Driver/Src/stm32h7xx_hal_flash_ex.c **** /* Exported functions ---------------------------------------------------------*/
 132:./Drivers/STM32H7xx_HAL_Driver/Src/stm32h7xx_hal_flash_ex.c **** /** @defgroup FLASHEx_Exported_Functions FLASHEx Exported Functions
 133:./Drivers/STM32H7xx_HAL_Driver/Src/stm32h7xx_hal_flash_ex.c ****   * @{
 134:./Drivers/STM32H7xx_HAL_Driver/Src/stm32h7xx_hal_flash_ex.c ****   */
 135:./Drivers/STM32H7xx_HAL_Driver/Src/stm32h7xx_hal_flash_ex.c **** 
 136:./Drivers/STM32H7xx_HAL_Driver/Src/stm32h7xx_hal_flash_ex.c **** /** @defgroup FLASHEx_Exported_Functions_Group1 Extended IO operation functions
 137:./Drivers/STM32H7xx_HAL_Driver/Src/stm32h7xx_hal_flash_ex.c ****  *  @brief   Extended IO operation functions
 138:./Drivers/STM32H7xx_HAL_Driver/Src/stm32h7xx_hal_flash_ex.c ****  *
 139:./Drivers/STM32H7xx_HAL_Driver/Src/stm32h7xx_hal_flash_ex.c **** @verbatim
 140:./Drivers/STM32H7xx_HAL_Driver/Src/stm32h7xx_hal_flash_ex.c ****  ===============================================================================
 141:./Drivers/STM32H7xx_HAL_Driver/Src/stm32h7xx_hal_flash_ex.c ****                 ##### Extended programming operation functions #####
 142:./Drivers/STM32H7xx_HAL_Driver/Src/stm32h7xx_hal_flash_ex.c ****  ===============================================================================
 143:./Drivers/STM32H7xx_HAL_Driver/Src/stm32h7xx_hal_flash_ex.c ****     [..]
 144:./Drivers/STM32H7xx_HAL_Driver/Src/stm32h7xx_hal_flash_ex.c ****     This subsection provides a set of functions allowing to manage the Extension FLASH
 145:./Drivers/STM32H7xx_HAL_Driver/Src/stm32h7xx_hal_flash_ex.c ****     programming operations Operations.
ARM GAS  /tmp/ccw511VT.s 			page 4


 146:./Drivers/STM32H7xx_HAL_Driver/Src/stm32h7xx_hal_flash_ex.c **** 
 147:./Drivers/STM32H7xx_HAL_Driver/Src/stm32h7xx_hal_flash_ex.c **** @endverbatim
 148:./Drivers/STM32H7xx_HAL_Driver/Src/stm32h7xx_hal_flash_ex.c ****   * @{
 149:./Drivers/STM32H7xx_HAL_Driver/Src/stm32h7xx_hal_flash_ex.c ****   */
 150:./Drivers/STM32H7xx_HAL_Driver/Src/stm32h7xx_hal_flash_ex.c **** /**
 151:./Drivers/STM32H7xx_HAL_Driver/Src/stm32h7xx_hal_flash_ex.c ****   * @brief  Perform a mass erase or erase the specified FLASH memory sectors
 152:./Drivers/STM32H7xx_HAL_Driver/Src/stm32h7xx_hal_flash_ex.c ****   * @param[in]  pEraseInit pointer to an FLASH_EraseInitTypeDef structure that
 153:./Drivers/STM32H7xx_HAL_Driver/Src/stm32h7xx_hal_flash_ex.c ****   *         contains the configuration information for the erasing.
 154:./Drivers/STM32H7xx_HAL_Driver/Src/stm32h7xx_hal_flash_ex.c ****   *
 155:./Drivers/STM32H7xx_HAL_Driver/Src/stm32h7xx_hal_flash_ex.c ****   * @param[out]  SectorError pointer to variable  that contains the configuration
 156:./Drivers/STM32H7xx_HAL_Driver/Src/stm32h7xx_hal_flash_ex.c ****   *          information on faulty sector in case of error (0xFFFFFFFF means that all
 157:./Drivers/STM32H7xx_HAL_Driver/Src/stm32h7xx_hal_flash_ex.c ****   *          the sectors have been correctly erased)
 158:./Drivers/STM32H7xx_HAL_Driver/Src/stm32h7xx_hal_flash_ex.c ****   *
 159:./Drivers/STM32H7xx_HAL_Driver/Src/stm32h7xx_hal_flash_ex.c ****   * @retval HAL Status
 160:./Drivers/STM32H7xx_HAL_Driver/Src/stm32h7xx_hal_flash_ex.c ****   */
 161:./Drivers/STM32H7xx_HAL_Driver/Src/stm32h7xx_hal_flash_ex.c **** HAL_StatusTypeDef HAL_FLASHEx_Erase(FLASH_EraseInitTypeDef *pEraseInit, uint32_t *SectorError)
 162:./Drivers/STM32H7xx_HAL_Driver/Src/stm32h7xx_hal_flash_ex.c **** {
  28              		.loc 1 162 1
  29              		.cfi_startproc
  30              		@ args = 0, pretend = 0, frame = 16
  31              		@ frame_needed = 1, uses_anonymous_args = 0
  32 0000 80B5     		push	{r7, lr}
  33              		.cfi_def_cfa_offset 8
  34              		.cfi_offset 7, -8
  35              		.cfi_offset 14, -4
  36 0002 84B0     		sub	sp, sp, #16
  37              		.cfi_def_cfa_offset 24
  38 0004 00AF     		add	r7, sp, #0
  39              		.cfi_def_cfa_register 7
  40 0006 7860     		str	r0, [r7, #4]
  41 0008 3960     		str	r1, [r7]
 163:./Drivers/STM32H7xx_HAL_Driver/Src/stm32h7xx_hal_flash_ex.c ****   HAL_StatusTypeDef status = HAL_OK;
  42              		.loc 1 163 21
  43 000a 0023     		movs	r3, #0
  44 000c FB73     		strb	r3, [r7, #15]
 164:./Drivers/STM32H7xx_HAL_Driver/Src/stm32h7xx_hal_flash_ex.c ****   uint32_t sector_index;
 165:./Drivers/STM32H7xx_HAL_Driver/Src/stm32h7xx_hal_flash_ex.c **** 
 166:./Drivers/STM32H7xx_HAL_Driver/Src/stm32h7xx_hal_flash_ex.c ****   /* Check the parameters */
 167:./Drivers/STM32H7xx_HAL_Driver/Src/stm32h7xx_hal_flash_ex.c ****   assert_param(IS_FLASH_TYPEERASE(pEraseInit->TypeErase));
 168:./Drivers/STM32H7xx_HAL_Driver/Src/stm32h7xx_hal_flash_ex.c ****   assert_param(IS_FLASH_BANK(pEraseInit->Banks));
 169:./Drivers/STM32H7xx_HAL_Driver/Src/stm32h7xx_hal_flash_ex.c **** 
 170:./Drivers/STM32H7xx_HAL_Driver/Src/stm32h7xx_hal_flash_ex.c ****   /* Process Locked */
 171:./Drivers/STM32H7xx_HAL_Driver/Src/stm32h7xx_hal_flash_ex.c ****   __HAL_LOCK(&pFlash);
  45              		.loc 1 171 3
  46 000e 5E4B     		ldr	r3, .L17
  47 0010 1B7D     		ldrb	r3, [r3, #20]	@ zero_extendqisi2
  48 0012 012B     		cmp	r3, #1
  49 0014 01D1     		bne	.L2
  50              		.loc 1 171 3 is_stmt 0 discriminator 1
  51 0016 0223     		movs	r3, #2
  52 0018 B2E0     		b	.L3
  53              	.L2:
  54              		.loc 1 171 3 discriminator 2
  55 001a 5B4B     		ldr	r3, .L17
  56 001c 0122     		movs	r2, #1
  57 001e 1A75     		strb	r2, [r3, #20]
 172:./Drivers/STM32H7xx_HAL_Driver/Src/stm32h7xx_hal_flash_ex.c **** 
ARM GAS  /tmp/ccw511VT.s 			page 5


 173:./Drivers/STM32H7xx_HAL_Driver/Src/stm32h7xx_hal_flash_ex.c ****   /* Reset error code */
 174:./Drivers/STM32H7xx_HAL_Driver/Src/stm32h7xx_hal_flash_ex.c ****   pFlash.ErrorCode = HAL_FLASH_ERROR_NONE;
  58              		.loc 1 174 20 is_stmt 1 discriminator 2
  59 0020 594B     		ldr	r3, .L17
  60 0022 0022     		movs	r2, #0
  61 0024 9A61     		str	r2, [r3, #24]
 175:./Drivers/STM32H7xx_HAL_Driver/Src/stm32h7xx_hal_flash_ex.c **** 
 176:./Drivers/STM32H7xx_HAL_Driver/Src/stm32h7xx_hal_flash_ex.c ****   /* Wait for last operation to be completed on Bank1 */
 177:./Drivers/STM32H7xx_HAL_Driver/Src/stm32h7xx_hal_flash_ex.c ****   if((pEraseInit->Banks & FLASH_BANK_1) == FLASH_BANK_1)
  62              		.loc 1 177 17 discriminator 2
  63 0026 7B68     		ldr	r3, [r7, #4]
  64 0028 5B68     		ldr	r3, [r3, #4]
  65              		.loc 1 177 25 discriminator 2
  66 002a 03F00103 		and	r3, r3, #1
  67              		.loc 1 177 5 discriminator 2
  68 002e 002B     		cmp	r3, #0
  69 0030 09D0     		beq	.L4
 178:./Drivers/STM32H7xx_HAL_Driver/Src/stm32h7xx_hal_flash_ex.c ****   {
 179:./Drivers/STM32H7xx_HAL_Driver/Src/stm32h7xx_hal_flash_ex.c ****     if(FLASH_WaitForLastOperation((uint32_t)FLASH_TIMEOUT_VALUE, FLASH_BANK_1) != HAL_OK)
  70              		.loc 1 179 8
  71 0032 0121     		movs	r1, #1
  72 0034 4CF25030 		movw	r0, #50000
  73 0038 FFF7FEFF 		bl	FLASH_WaitForLastOperation
  74 003c 0346     		mov	r3, r0
  75              		.loc 1 179 7
  76 003e 002B     		cmp	r3, #0
  77 0040 01D0     		beq	.L4
 180:./Drivers/STM32H7xx_HAL_Driver/Src/stm32h7xx_hal_flash_ex.c ****     {
 181:./Drivers/STM32H7xx_HAL_Driver/Src/stm32h7xx_hal_flash_ex.c ****       status = HAL_ERROR;
  78              		.loc 1 181 14
  79 0042 0123     		movs	r3, #1
  80 0044 FB73     		strb	r3, [r7, #15]
  81              	.L4:
 182:./Drivers/STM32H7xx_HAL_Driver/Src/stm32h7xx_hal_flash_ex.c ****     }
 183:./Drivers/STM32H7xx_HAL_Driver/Src/stm32h7xx_hal_flash_ex.c ****   }
 184:./Drivers/STM32H7xx_HAL_Driver/Src/stm32h7xx_hal_flash_ex.c **** 
 185:./Drivers/STM32H7xx_HAL_Driver/Src/stm32h7xx_hal_flash_ex.c ****   /* Wait for last operation to be completed on Bank2 */
 186:./Drivers/STM32H7xx_HAL_Driver/Src/stm32h7xx_hal_flash_ex.c ****   if((pEraseInit->Banks & FLASH_BANK_2) == FLASH_BANK_2)
  82              		.loc 1 186 17
  83 0046 7B68     		ldr	r3, [r7, #4]
  84 0048 5B68     		ldr	r3, [r3, #4]
  85              		.loc 1 186 25
  86 004a 03F00203 		and	r3, r3, #2
  87              		.loc 1 186 5
  88 004e 002B     		cmp	r3, #0
  89 0050 09D0     		beq	.L5
 187:./Drivers/STM32H7xx_HAL_Driver/Src/stm32h7xx_hal_flash_ex.c ****   {
 188:./Drivers/STM32H7xx_HAL_Driver/Src/stm32h7xx_hal_flash_ex.c ****     if(FLASH_WaitForLastOperation((uint32_t)FLASH_TIMEOUT_VALUE, FLASH_BANK_2) != HAL_OK)
  90              		.loc 1 188 8
  91 0052 0221     		movs	r1, #2
  92 0054 4CF25030 		movw	r0, #50000
  93 0058 FFF7FEFF 		bl	FLASH_WaitForLastOperation
  94 005c 0346     		mov	r3, r0
  95              		.loc 1 188 7
  96 005e 002B     		cmp	r3, #0
  97 0060 01D0     		beq	.L5
 189:./Drivers/STM32H7xx_HAL_Driver/Src/stm32h7xx_hal_flash_ex.c ****     {
ARM GAS  /tmp/ccw511VT.s 			page 6


 190:./Drivers/STM32H7xx_HAL_Driver/Src/stm32h7xx_hal_flash_ex.c ****       status = HAL_ERROR;
  98              		.loc 1 190 14
  99 0062 0123     		movs	r3, #1
 100 0064 FB73     		strb	r3, [r7, #15]
 101              	.L5:
 191:./Drivers/STM32H7xx_HAL_Driver/Src/stm32h7xx_hal_flash_ex.c ****     }
 192:./Drivers/STM32H7xx_HAL_Driver/Src/stm32h7xx_hal_flash_ex.c ****   }
 193:./Drivers/STM32H7xx_HAL_Driver/Src/stm32h7xx_hal_flash_ex.c **** 
 194:./Drivers/STM32H7xx_HAL_Driver/Src/stm32h7xx_hal_flash_ex.c ****   if(status == HAL_OK)
 102              		.loc 1 194 5
 103 0066 FB7B     		ldrb	r3, [r7, #15]	@ zero_extendqisi2
 104 0068 002B     		cmp	r3, #0
 105 006a 40F08580 		bne	.L6
 195:./Drivers/STM32H7xx_HAL_Driver/Src/stm32h7xx_hal_flash_ex.c ****   {
 196:./Drivers/STM32H7xx_HAL_Driver/Src/stm32h7xx_hal_flash_ex.c ****     if(pEraseInit->TypeErase == FLASH_TYPEERASE_MASSERASE)
 106              		.loc 1 196 18
 107 006e 7B68     		ldr	r3, [r7, #4]
 108 0070 1B68     		ldr	r3, [r3]
 109              		.loc 1 196 7
 110 0072 012B     		cmp	r3, #1
 111 0074 36D1     		bne	.L7
 197:./Drivers/STM32H7xx_HAL_Driver/Src/stm32h7xx_hal_flash_ex.c ****     {
 198:./Drivers/STM32H7xx_HAL_Driver/Src/stm32h7xx_hal_flash_ex.c ****       /* Mass erase to be done */
 199:./Drivers/STM32H7xx_HAL_Driver/Src/stm32h7xx_hal_flash_ex.c ****       FLASH_MassErase(pEraseInit->VoltageRange, pEraseInit->Banks);
 112              		.loc 1 199 7
 113 0076 7B68     		ldr	r3, [r7, #4]
 114 0078 1A69     		ldr	r2, [r3, #16]
 115 007a 7B68     		ldr	r3, [r7, #4]
 116 007c 5B68     		ldr	r3, [r3, #4]
 117 007e 1946     		mov	r1, r3
 118 0080 1046     		mov	r0, r2
 119 0082 FFF7FEFF 		bl	FLASH_MassErase
 200:./Drivers/STM32H7xx_HAL_Driver/Src/stm32h7xx_hal_flash_ex.c **** 
 201:./Drivers/STM32H7xx_HAL_Driver/Src/stm32h7xx_hal_flash_ex.c ****       /* Wait for last operation to be completed */
 202:./Drivers/STM32H7xx_HAL_Driver/Src/stm32h7xx_hal_flash_ex.c ****       if((pEraseInit->Banks & FLASH_BANK_1) == FLASH_BANK_1)
 120              		.loc 1 202 21
 121 0086 7B68     		ldr	r3, [r7, #4]
 122 0088 5B68     		ldr	r3, [r3, #4]
 123              		.loc 1 202 29
 124 008a 03F00103 		and	r3, r3, #1
 125              		.loc 1 202 9
 126 008e 002B     		cmp	r3, #0
 127 0090 0FD0     		beq	.L8
 203:./Drivers/STM32H7xx_HAL_Driver/Src/stm32h7xx_hal_flash_ex.c ****       {
 204:./Drivers/STM32H7xx_HAL_Driver/Src/stm32h7xx_hal_flash_ex.c ****         if(FLASH_WaitForLastOperation((uint32_t)FLASH_TIMEOUT_VALUE, FLASH_BANK_1) != HAL_OK)
 128              		.loc 1 204 12
 129 0092 0121     		movs	r1, #1
 130 0094 4CF25030 		movw	r0, #50000
 131 0098 FFF7FEFF 		bl	FLASH_WaitForLastOperation
 132 009c 0346     		mov	r3, r0
 133              		.loc 1 204 11
 134 009e 002B     		cmp	r3, #0
 135 00a0 01D0     		beq	.L9
 205:./Drivers/STM32H7xx_HAL_Driver/Src/stm32h7xx_hal_flash_ex.c ****         {
 206:./Drivers/STM32H7xx_HAL_Driver/Src/stm32h7xx_hal_flash_ex.c ****           status = HAL_ERROR;
 136              		.loc 1 206 18
 137 00a2 0123     		movs	r3, #1
ARM GAS  /tmp/ccw511VT.s 			page 7


 138 00a4 FB73     		strb	r3, [r7, #15]
 139              	.L9:
 207:./Drivers/STM32H7xx_HAL_Driver/Src/stm32h7xx_hal_flash_ex.c ****         }
 208:./Drivers/STM32H7xx_HAL_Driver/Src/stm32h7xx_hal_flash_ex.c ****         /* if the erase operation is completed, disable the Bank1 BER Bit */
 209:./Drivers/STM32H7xx_HAL_Driver/Src/stm32h7xx_hal_flash_ex.c ****         FLASH->CR1 &= (~FLASH_CR_BER);
 140              		.loc 1 209 20
 141 00a6 394B     		ldr	r3, .L17+4
 142 00a8 DB68     		ldr	r3, [r3, #12]
 143 00aa 384A     		ldr	r2, .L17+4
 144 00ac 23F00803 		bic	r3, r3, #8
 145 00b0 D360     		str	r3, [r2, #12]
 146              	.L8:
 210:./Drivers/STM32H7xx_HAL_Driver/Src/stm32h7xx_hal_flash_ex.c ****       }
 211:./Drivers/STM32H7xx_HAL_Driver/Src/stm32h7xx_hal_flash_ex.c ****       if((pEraseInit->Banks & FLASH_BANK_2) == FLASH_BANK_2)
 147              		.loc 1 211 21
 148 00b2 7B68     		ldr	r3, [r7, #4]
 149 00b4 5B68     		ldr	r3, [r3, #4]
 150              		.loc 1 211 29
 151 00b6 03F00203 		and	r3, r3, #2
 152              		.loc 1 211 9
 153 00ba 002B     		cmp	r3, #0
 154 00bc 5CD0     		beq	.L6
 212:./Drivers/STM32H7xx_HAL_Driver/Src/stm32h7xx_hal_flash_ex.c ****       {
 213:./Drivers/STM32H7xx_HAL_Driver/Src/stm32h7xx_hal_flash_ex.c ****         if(FLASH_WaitForLastOperation((uint32_t)FLASH_TIMEOUT_VALUE, FLASH_BANK_2) != HAL_OK)
 155              		.loc 1 213 12
 156 00be 0221     		movs	r1, #2
 157 00c0 4CF25030 		movw	r0, #50000
 158 00c4 FFF7FEFF 		bl	FLASH_WaitForLastOperation
 159 00c8 0346     		mov	r3, r0
 160              		.loc 1 213 11
 161 00ca 002B     		cmp	r3, #0
 162 00cc 01D0     		beq	.L11
 214:./Drivers/STM32H7xx_HAL_Driver/Src/stm32h7xx_hal_flash_ex.c ****         {
 215:./Drivers/STM32H7xx_HAL_Driver/Src/stm32h7xx_hal_flash_ex.c ****           status = HAL_ERROR;
 163              		.loc 1 215 18
 164 00ce 0123     		movs	r3, #1
 165 00d0 FB73     		strb	r3, [r7, #15]
 166              	.L11:
 216:./Drivers/STM32H7xx_HAL_Driver/Src/stm32h7xx_hal_flash_ex.c ****         }
 217:./Drivers/STM32H7xx_HAL_Driver/Src/stm32h7xx_hal_flash_ex.c ****         /* if the erase operation is completed, disable the Bank2 BER Bit */
 218:./Drivers/STM32H7xx_HAL_Driver/Src/stm32h7xx_hal_flash_ex.c ****         FLASH->CR2 &= (~FLASH_CR_BER);
 167              		.loc 1 218 20
 168 00d2 2E4B     		ldr	r3, .L17+4
 169 00d4 D3F80C31 		ldr	r3, [r3, #268]
 170 00d8 2C4A     		ldr	r2, .L17+4
 171 00da 23F00803 		bic	r3, r3, #8
 172 00de C2F80C31 		str	r3, [r2, #268]
 173 00e2 49E0     		b	.L6
 174              	.L7:
 219:./Drivers/STM32H7xx_HAL_Driver/Src/stm32h7xx_hal_flash_ex.c ****       }
 220:./Drivers/STM32H7xx_HAL_Driver/Src/stm32h7xx_hal_flash_ex.c ****     }
 221:./Drivers/STM32H7xx_HAL_Driver/Src/stm32h7xx_hal_flash_ex.c ****     else
 222:./Drivers/STM32H7xx_HAL_Driver/Src/stm32h7xx_hal_flash_ex.c ****     {
 223:./Drivers/STM32H7xx_HAL_Driver/Src/stm32h7xx_hal_flash_ex.c ****       /*Initialization of SectorError variable*/
 224:./Drivers/STM32H7xx_HAL_Driver/Src/stm32h7xx_hal_flash_ex.c ****       *SectorError = 0xFFFFFFFFU;
 175              		.loc 1 224 20
 176 00e4 3B68     		ldr	r3, [r7]
ARM GAS  /tmp/ccw511VT.s 			page 8


 177 00e6 4FF0FF32 		mov	r2, #-1
 178 00ea 1A60     		str	r2, [r3]
 225:./Drivers/STM32H7xx_HAL_Driver/Src/stm32h7xx_hal_flash_ex.c **** 
 226:./Drivers/STM32H7xx_HAL_Driver/Src/stm32h7xx_hal_flash_ex.c ****       /* Erase by sector by sector to be done*/
 227:./Drivers/STM32H7xx_HAL_Driver/Src/stm32h7xx_hal_flash_ex.c ****       for(sector_index = pEraseInit->Sector; sector_index < (pEraseInit->NbSectors + pEraseInit->Se
 179              		.loc 1 227 24
 180 00ec 7B68     		ldr	r3, [r7, #4]
 181 00ee 9B68     		ldr	r3, [r3, #8]
 182 00f0 BB60     		str	r3, [r7, #8]
 183              		.loc 1 227 7
 184 00f2 39E0     		b	.L12
 185              	.L16:
 228:./Drivers/STM32H7xx_HAL_Driver/Src/stm32h7xx_hal_flash_ex.c ****       {
 229:./Drivers/STM32H7xx_HAL_Driver/Src/stm32h7xx_hal_flash_ex.c ****         FLASH_Erase_Sector(sector_index, pEraseInit->Banks, pEraseInit->VoltageRange);
 186              		.loc 1 229 9
 187 00f4 7B68     		ldr	r3, [r7, #4]
 188 00f6 5968     		ldr	r1, [r3, #4]
 189 00f8 7B68     		ldr	r3, [r7, #4]
 190 00fa 1B69     		ldr	r3, [r3, #16]
 191 00fc 1A46     		mov	r2, r3
 192 00fe B868     		ldr	r0, [r7, #8]
 193 0100 FFF7FEFF 		bl	FLASH_Erase_Sector
 230:./Drivers/STM32H7xx_HAL_Driver/Src/stm32h7xx_hal_flash_ex.c **** 
 231:./Drivers/STM32H7xx_HAL_Driver/Src/stm32h7xx_hal_flash_ex.c ****         if((pEraseInit->Banks & FLASH_BANK_1) == FLASH_BANK_1)
 194              		.loc 1 231 23
 195 0104 7B68     		ldr	r3, [r7, #4]
 196 0106 5B68     		ldr	r3, [r3, #4]
 197              		.loc 1 231 31
 198 0108 03F00103 		and	r3, r3, #1
 199              		.loc 1 231 11
 200 010c 002B     		cmp	r3, #0
 201 010e 0CD0     		beq	.L13
 232:./Drivers/STM32H7xx_HAL_Driver/Src/stm32h7xx_hal_flash_ex.c ****         {
 233:./Drivers/STM32H7xx_HAL_Driver/Src/stm32h7xx_hal_flash_ex.c ****           /* Wait for last operation to be completed */
 234:./Drivers/STM32H7xx_HAL_Driver/Src/stm32h7xx_hal_flash_ex.c ****           status = FLASH_WaitForLastOperation((uint32_t)FLASH_TIMEOUT_VALUE, FLASH_BANK_1);
 202              		.loc 1 234 20
 203 0110 0121     		movs	r1, #1
 204 0112 4CF25030 		movw	r0, #50000
 205 0116 FFF7FEFF 		bl	FLASH_WaitForLastOperation
 206 011a 0346     		mov	r3, r0
 207 011c FB73     		strb	r3, [r7, #15]
 235:./Drivers/STM32H7xx_HAL_Driver/Src/stm32h7xx_hal_flash_ex.c **** 
 236:./Drivers/STM32H7xx_HAL_Driver/Src/stm32h7xx_hal_flash_ex.c ****           /* If the erase operation is completed, disable the SER Bit */
 237:./Drivers/STM32H7xx_HAL_Driver/Src/stm32h7xx_hal_flash_ex.c ****           FLASH->CR1 &= (~(FLASH_CR_SER | FLASH_CR_SNB));
 208              		.loc 1 237 22
 209 011e 1B4B     		ldr	r3, .L17+4
 210 0120 DA68     		ldr	r2, [r3, #12]
 211 0122 1A49     		ldr	r1, .L17+4
 212 0124 1A4B     		ldr	r3, .L17+8
 213 0126 1340     		ands	r3, r3, r2
 214 0128 CB60     		str	r3, [r1, #12]
 215              	.L13:
 238:./Drivers/STM32H7xx_HAL_Driver/Src/stm32h7xx_hal_flash_ex.c ****         }
 239:./Drivers/STM32H7xx_HAL_Driver/Src/stm32h7xx_hal_flash_ex.c ****         if((pEraseInit->Banks & FLASH_BANK_2) == FLASH_BANK_2)
 216              		.loc 1 239 23
 217 012a 7B68     		ldr	r3, [r7, #4]
 218 012c 5B68     		ldr	r3, [r3, #4]
ARM GAS  /tmp/ccw511VT.s 			page 9


 219              		.loc 1 239 31
 220 012e 03F00203 		and	r3, r3, #2
 221              		.loc 1 239 11
 222 0132 002B     		cmp	r3, #0
 223 0134 0ED0     		beq	.L14
 240:./Drivers/STM32H7xx_HAL_Driver/Src/stm32h7xx_hal_flash_ex.c ****         {
 241:./Drivers/STM32H7xx_HAL_Driver/Src/stm32h7xx_hal_flash_ex.c ****           /* Wait for last operation to be completed */
 242:./Drivers/STM32H7xx_HAL_Driver/Src/stm32h7xx_hal_flash_ex.c ****           status = FLASH_WaitForLastOperation((uint32_t)FLASH_TIMEOUT_VALUE, FLASH_BANK_2);
 224              		.loc 1 242 20
 225 0136 0221     		movs	r1, #2
 226 0138 4CF25030 		movw	r0, #50000
 227 013c FFF7FEFF 		bl	FLASH_WaitForLastOperation
 228 0140 0346     		mov	r3, r0
 229 0142 FB73     		strb	r3, [r7, #15]
 243:./Drivers/STM32H7xx_HAL_Driver/Src/stm32h7xx_hal_flash_ex.c **** 
 244:./Drivers/STM32H7xx_HAL_Driver/Src/stm32h7xx_hal_flash_ex.c ****           /* If the erase operation is completed, disable the SER Bit */
 245:./Drivers/STM32H7xx_HAL_Driver/Src/stm32h7xx_hal_flash_ex.c ****           FLASH->CR2 &= (~(FLASH_CR_SER | FLASH_CR_SNB));
 230              		.loc 1 245 22
 231 0144 114B     		ldr	r3, .L17+4
 232 0146 D3F80C21 		ldr	r2, [r3, #268]
 233 014a 1049     		ldr	r1, .L17+4
 234 014c 104B     		ldr	r3, .L17+8
 235 014e 1340     		ands	r3, r3, r2
 236 0150 C1F80C31 		str	r3, [r1, #268]
 237              	.L14:
 246:./Drivers/STM32H7xx_HAL_Driver/Src/stm32h7xx_hal_flash_ex.c ****         }
 247:./Drivers/STM32H7xx_HAL_Driver/Src/stm32h7xx_hal_flash_ex.c **** 
 248:./Drivers/STM32H7xx_HAL_Driver/Src/stm32h7xx_hal_flash_ex.c ****         if(status != HAL_OK)
 238              		.loc 1 248 11
 239 0154 FB7B     		ldrb	r3, [r7, #15]	@ zero_extendqisi2
 240 0156 002B     		cmp	r3, #0
 241 0158 03D0     		beq	.L15
 249:./Drivers/STM32H7xx_HAL_Driver/Src/stm32h7xx_hal_flash_ex.c ****         {
 250:./Drivers/STM32H7xx_HAL_Driver/Src/stm32h7xx_hal_flash_ex.c ****           /* In case of error, stop erase procedure and return the faulty sector */
 251:./Drivers/STM32H7xx_HAL_Driver/Src/stm32h7xx_hal_flash_ex.c ****           *SectorError = sector_index;
 242              		.loc 1 251 24
 243 015a 3B68     		ldr	r3, [r7]
 244 015c BA68     		ldr	r2, [r7, #8]
 245 015e 1A60     		str	r2, [r3]
 252:./Drivers/STM32H7xx_HAL_Driver/Src/stm32h7xx_hal_flash_ex.c ****           break;
 246              		.loc 1 252 11
 247 0160 0AE0     		b	.L6
 248              	.L15:
 227:./Drivers/STM32H7xx_HAL_Driver/Src/stm32h7xx_hal_flash_ex.c ****       {
 249              		.loc 1 227 119 discriminator 2
 250 0162 BB68     		ldr	r3, [r7, #8]
 251 0164 0133     		adds	r3, r3, #1
 252 0166 BB60     		str	r3, [r7, #8]
 253              	.L12:
 227:./Drivers/STM32H7xx_HAL_Driver/Src/stm32h7xx_hal_flash_ex.c ****       {
 254              		.loc 1 227 72 discriminator 1
 255 0168 7B68     		ldr	r3, [r7, #4]
 256 016a DA68     		ldr	r2, [r3, #12]
 227:./Drivers/STM32H7xx_HAL_Driver/Src/stm32h7xx_hal_flash_ex.c ****       {
 257              		.loc 1 227 96 discriminator 1
 258 016c 7B68     		ldr	r3, [r7, #4]
 259 016e 9B68     		ldr	r3, [r3, #8]
ARM GAS  /tmp/ccw511VT.s 			page 10


 227:./Drivers/STM32H7xx_HAL_Driver/Src/stm32h7xx_hal_flash_ex.c ****       {
 260              		.loc 1 227 84 discriminator 1
 261 0170 1344     		add	r3, r3, r2
 227:./Drivers/STM32H7xx_HAL_Driver/Src/stm32h7xx_hal_flash_ex.c ****       {
 262              		.loc 1 227 7 discriminator 1
 263 0172 BA68     		ldr	r2, [r7, #8]
 264 0174 9A42     		cmp	r2, r3
 265 0176 BDD3     		bcc	.L16
 266              	.L6:
 253:./Drivers/STM32H7xx_HAL_Driver/Src/stm32h7xx_hal_flash_ex.c ****         }
 254:./Drivers/STM32H7xx_HAL_Driver/Src/stm32h7xx_hal_flash_ex.c ****       }
 255:./Drivers/STM32H7xx_HAL_Driver/Src/stm32h7xx_hal_flash_ex.c ****     }
 256:./Drivers/STM32H7xx_HAL_Driver/Src/stm32h7xx_hal_flash_ex.c ****   }
 257:./Drivers/STM32H7xx_HAL_Driver/Src/stm32h7xx_hal_flash_ex.c **** 
 258:./Drivers/STM32H7xx_HAL_Driver/Src/stm32h7xx_hal_flash_ex.c ****   /* Process Unlocked */
 259:./Drivers/STM32H7xx_HAL_Driver/Src/stm32h7xx_hal_flash_ex.c ****   __HAL_UNLOCK(&pFlash);
 267              		.loc 1 259 3
 268 0178 034B     		ldr	r3, .L17
 269 017a 0022     		movs	r2, #0
 270 017c 1A75     		strb	r2, [r3, #20]
 260:./Drivers/STM32H7xx_HAL_Driver/Src/stm32h7xx_hal_flash_ex.c **** 
 261:./Drivers/STM32H7xx_HAL_Driver/Src/stm32h7xx_hal_flash_ex.c ****   return status;
 271              		.loc 1 261 10
 272 017e FB7B     		ldrb	r3, [r7, #15]	@ zero_extendqisi2
 273              	.L3:
 262:./Drivers/STM32H7xx_HAL_Driver/Src/stm32h7xx_hal_flash_ex.c **** }
 274              		.loc 1 262 1
 275 0180 1846     		mov	r0, r3
 276 0182 1037     		adds	r7, r7, #16
 277              		.cfi_def_cfa_offset 8
 278 0184 BD46     		mov	sp, r7
 279              		.cfi_def_cfa_register 13
 280              		@ sp needed
 281 0186 80BD     		pop	{r7, pc}
 282              	.L18:
 283              		.align	2
 284              	.L17:
 285 0188 00000000 		.word	pFlash
 286 018c 00200052 		.word	1375739904
 287 0190 FBF8FFFF 		.word	-1797
 288              		.cfi_endproc
 289              	.LFE134:
 291              		.section	.text.HAL_FLASHEx_Erase_IT,"ax",%progbits
 292              		.align	1
 293              		.global	HAL_FLASHEx_Erase_IT
 294              		.syntax unified
 295              		.thumb
 296              		.thumb_func
 297              		.fpu fpv5-d16
 299              	HAL_FLASHEx_Erase_IT:
 300              	.LFB135:
 263:./Drivers/STM32H7xx_HAL_Driver/Src/stm32h7xx_hal_flash_ex.c **** 
 264:./Drivers/STM32H7xx_HAL_Driver/Src/stm32h7xx_hal_flash_ex.c **** /**
 265:./Drivers/STM32H7xx_HAL_Driver/Src/stm32h7xx_hal_flash_ex.c ****   * @brief  Perform a mass erase or erase the specified FLASH memory sectors with interrupt enabled
 266:./Drivers/STM32H7xx_HAL_Driver/Src/stm32h7xx_hal_flash_ex.c ****   * @param  pEraseInit pointer to an FLASH_EraseInitTypeDef structure that
 267:./Drivers/STM32H7xx_HAL_Driver/Src/stm32h7xx_hal_flash_ex.c ****   *         contains the configuration information for the erasing.
 268:./Drivers/STM32H7xx_HAL_Driver/Src/stm32h7xx_hal_flash_ex.c ****   *
ARM GAS  /tmp/ccw511VT.s 			page 11


 269:./Drivers/STM32H7xx_HAL_Driver/Src/stm32h7xx_hal_flash_ex.c ****   * @retval HAL Status
 270:./Drivers/STM32H7xx_HAL_Driver/Src/stm32h7xx_hal_flash_ex.c ****   */
 271:./Drivers/STM32H7xx_HAL_Driver/Src/stm32h7xx_hal_flash_ex.c **** HAL_StatusTypeDef HAL_FLASHEx_Erase_IT(FLASH_EraseInitTypeDef *pEraseInit)
 272:./Drivers/STM32H7xx_HAL_Driver/Src/stm32h7xx_hal_flash_ex.c **** {
 301              		.loc 1 272 1
 302              		.cfi_startproc
 303              		@ args = 0, pretend = 0, frame = 16
 304              		@ frame_needed = 1, uses_anonymous_args = 0
 305 0000 80B5     		push	{r7, lr}
 306              		.cfi_def_cfa_offset 8
 307              		.cfi_offset 7, -8
 308              		.cfi_offset 14, -4
 309 0002 84B0     		sub	sp, sp, #16
 310              		.cfi_def_cfa_offset 24
 311 0004 00AF     		add	r7, sp, #0
 312              		.cfi_def_cfa_register 7
 313 0006 7860     		str	r0, [r7, #4]
 273:./Drivers/STM32H7xx_HAL_Driver/Src/stm32h7xx_hal_flash_ex.c ****   HAL_StatusTypeDef status = HAL_OK;
 314              		.loc 1 273 21
 315 0008 0023     		movs	r3, #0
 316 000a FB73     		strb	r3, [r7, #15]
 274:./Drivers/STM32H7xx_HAL_Driver/Src/stm32h7xx_hal_flash_ex.c **** 
 275:./Drivers/STM32H7xx_HAL_Driver/Src/stm32h7xx_hal_flash_ex.c ****   /* Check the parameters */
 276:./Drivers/STM32H7xx_HAL_Driver/Src/stm32h7xx_hal_flash_ex.c ****   assert_param(IS_FLASH_TYPEERASE(pEraseInit->TypeErase));
 277:./Drivers/STM32H7xx_HAL_Driver/Src/stm32h7xx_hal_flash_ex.c ****   assert_param(IS_FLASH_BANK(pEraseInit->Banks));
 278:./Drivers/STM32H7xx_HAL_Driver/Src/stm32h7xx_hal_flash_ex.c **** 
 279:./Drivers/STM32H7xx_HAL_Driver/Src/stm32h7xx_hal_flash_ex.c ****   /* Process Locked */
 280:./Drivers/STM32H7xx_HAL_Driver/Src/stm32h7xx_hal_flash_ex.c ****   __HAL_LOCK(&pFlash);
 317              		.loc 1 280 3
 318 000c 484B     		ldr	r3, .L34
 319 000e 1B7D     		ldrb	r3, [r3, #20]	@ zero_extendqisi2
 320 0010 012B     		cmp	r3, #1
 321 0012 01D1     		bne	.L20
 322              		.loc 1 280 3 is_stmt 0 discriminator 1
 323 0014 0223     		movs	r3, #2
 324 0016 87E0     		b	.L21
 325              	.L20:
 326              		.loc 1 280 3 discriminator 2
 327 0018 454B     		ldr	r3, .L34
 328 001a 0122     		movs	r2, #1
 329 001c 1A75     		strb	r2, [r3, #20]
 281:./Drivers/STM32H7xx_HAL_Driver/Src/stm32h7xx_hal_flash_ex.c **** 
 282:./Drivers/STM32H7xx_HAL_Driver/Src/stm32h7xx_hal_flash_ex.c ****   /* Reset error code */
 283:./Drivers/STM32H7xx_HAL_Driver/Src/stm32h7xx_hal_flash_ex.c ****   pFlash.ErrorCode = HAL_FLASH_ERROR_NONE;
 330              		.loc 1 283 20 is_stmt 1 discriminator 2
 331 001e 444B     		ldr	r3, .L34
 332 0020 0022     		movs	r2, #0
 333 0022 9A61     		str	r2, [r3, #24]
 284:./Drivers/STM32H7xx_HAL_Driver/Src/stm32h7xx_hal_flash_ex.c **** 
 285:./Drivers/STM32H7xx_HAL_Driver/Src/stm32h7xx_hal_flash_ex.c ****   /* Wait for last operation to be completed */
 286:./Drivers/STM32H7xx_HAL_Driver/Src/stm32h7xx_hal_flash_ex.c ****   if((pEraseInit->Banks & FLASH_BANK_1) == FLASH_BANK_1)
 334              		.loc 1 286 17 discriminator 2
 335 0024 7B68     		ldr	r3, [r7, #4]
 336 0026 5B68     		ldr	r3, [r3, #4]
 337              		.loc 1 286 25 discriminator 2
 338 0028 03F00103 		and	r3, r3, #1
 339              		.loc 1 286 5 discriminator 2
ARM GAS  /tmp/ccw511VT.s 			page 12


 340 002c 002B     		cmp	r3, #0
 341 002e 09D0     		beq	.L22
 287:./Drivers/STM32H7xx_HAL_Driver/Src/stm32h7xx_hal_flash_ex.c ****   {
 288:./Drivers/STM32H7xx_HAL_Driver/Src/stm32h7xx_hal_flash_ex.c ****     if(FLASH_WaitForLastOperation((uint32_t)FLASH_TIMEOUT_VALUE, FLASH_BANK_1) != HAL_OK)
 342              		.loc 1 288 8
 343 0030 0121     		movs	r1, #1
 344 0032 4CF25030 		movw	r0, #50000
 345 0036 FFF7FEFF 		bl	FLASH_WaitForLastOperation
 346 003a 0346     		mov	r3, r0
 347              		.loc 1 288 7
 348 003c 002B     		cmp	r3, #0
 349 003e 01D0     		beq	.L22
 289:./Drivers/STM32H7xx_HAL_Driver/Src/stm32h7xx_hal_flash_ex.c ****     {
 290:./Drivers/STM32H7xx_HAL_Driver/Src/stm32h7xx_hal_flash_ex.c ****       status = HAL_ERROR;
 350              		.loc 1 290 14
 351 0040 0123     		movs	r3, #1
 352 0042 FB73     		strb	r3, [r7, #15]
 353              	.L22:
 291:./Drivers/STM32H7xx_HAL_Driver/Src/stm32h7xx_hal_flash_ex.c ****     }
 292:./Drivers/STM32H7xx_HAL_Driver/Src/stm32h7xx_hal_flash_ex.c ****   }
 293:./Drivers/STM32H7xx_HAL_Driver/Src/stm32h7xx_hal_flash_ex.c **** 
 294:./Drivers/STM32H7xx_HAL_Driver/Src/stm32h7xx_hal_flash_ex.c ****   if((pEraseInit->Banks & FLASH_BANK_2) == FLASH_BANK_2)
 354              		.loc 1 294 17
 355 0044 7B68     		ldr	r3, [r7, #4]
 356 0046 5B68     		ldr	r3, [r3, #4]
 357              		.loc 1 294 25
 358 0048 03F00203 		and	r3, r3, #2
 359              		.loc 1 294 5
 360 004c 002B     		cmp	r3, #0
 361 004e 09D0     		beq	.L23
 295:./Drivers/STM32H7xx_HAL_Driver/Src/stm32h7xx_hal_flash_ex.c ****   {
 296:./Drivers/STM32H7xx_HAL_Driver/Src/stm32h7xx_hal_flash_ex.c ****     if(FLASH_WaitForLastOperation((uint32_t)FLASH_TIMEOUT_VALUE, FLASH_BANK_2) != HAL_OK)
 362              		.loc 1 296 8
 363 0050 0221     		movs	r1, #2
 364 0052 4CF25030 		movw	r0, #50000
 365 0056 FFF7FEFF 		bl	FLASH_WaitForLastOperation
 366 005a 0346     		mov	r3, r0
 367              		.loc 1 296 7
 368 005c 002B     		cmp	r3, #0
 369 005e 01D0     		beq	.L23
 297:./Drivers/STM32H7xx_HAL_Driver/Src/stm32h7xx_hal_flash_ex.c ****     {
 298:./Drivers/STM32H7xx_HAL_Driver/Src/stm32h7xx_hal_flash_ex.c ****       status = HAL_ERROR;
 370              		.loc 1 298 14
 371 0060 0123     		movs	r3, #1
 372 0062 FB73     		strb	r3, [r7, #15]
 373              	.L23:
 299:./Drivers/STM32H7xx_HAL_Driver/Src/stm32h7xx_hal_flash_ex.c ****     }
 300:./Drivers/STM32H7xx_HAL_Driver/Src/stm32h7xx_hal_flash_ex.c ****   }
 301:./Drivers/STM32H7xx_HAL_Driver/Src/stm32h7xx_hal_flash_ex.c **** 
 302:./Drivers/STM32H7xx_HAL_Driver/Src/stm32h7xx_hal_flash_ex.c ****   if (status != HAL_OK)
 374              		.loc 1 302 6
 375 0064 FB7B     		ldrb	r3, [r7, #15]	@ zero_extendqisi2
 376 0066 002B     		cmp	r3, #0
 377 0068 03D0     		beq	.L24
 303:./Drivers/STM32H7xx_HAL_Driver/Src/stm32h7xx_hal_flash_ex.c ****   {
 304:./Drivers/STM32H7xx_HAL_Driver/Src/stm32h7xx_hal_flash_ex.c ****     /* Process Unlocked */
 305:./Drivers/STM32H7xx_HAL_Driver/Src/stm32h7xx_hal_flash_ex.c ****     __HAL_UNLOCK(&pFlash);
ARM GAS  /tmp/ccw511VT.s 			page 13


 378              		.loc 1 305 5
 379 006a 314B     		ldr	r3, .L34
 380 006c 0022     		movs	r2, #0
 381 006e 1A75     		strb	r2, [r3, #20]
 382 0070 59E0     		b	.L25
 383              	.L24:
 306:./Drivers/STM32H7xx_HAL_Driver/Src/stm32h7xx_hal_flash_ex.c ****   }
 307:./Drivers/STM32H7xx_HAL_Driver/Src/stm32h7xx_hal_flash_ex.c ****   else
 308:./Drivers/STM32H7xx_HAL_Driver/Src/stm32h7xx_hal_flash_ex.c ****   {
 309:./Drivers/STM32H7xx_HAL_Driver/Src/stm32h7xx_hal_flash_ex.c ****     if((pEraseInit->Banks & FLASH_BANK_1) == FLASH_BANK_1)
 384              		.loc 1 309 19
 385 0072 7B68     		ldr	r3, [r7, #4]
 386 0074 5B68     		ldr	r3, [r3, #4]
 387              		.loc 1 309 27
 388 0076 03F00103 		and	r3, r3, #1
 389              		.loc 1 309 7
 390 007a 002B     		cmp	r3, #0
 391 007c 05D0     		beq	.L26
 310:./Drivers/STM32H7xx_HAL_Driver/Src/stm32h7xx_hal_flash_ex.c ****     {
 311:./Drivers/STM32H7xx_HAL_Driver/Src/stm32h7xx_hal_flash_ex.c ****       /* Enable End of Operation and Error interrupts for Bank 1 */
 312:./Drivers/STM32H7xx_HAL_Driver/Src/stm32h7xx_hal_flash_ex.c ****       __HAL_FLASH_ENABLE_IT_BANK1(FLASH_IT_EOP_BANK1     | FLASH_IT_WRPERR_BANK1 | FLASH_IT_PGSERR_
 392              		.loc 1 312 7
 393 007e 2D4B     		ldr	r3, .L34+4
 394 0080 DB68     		ldr	r3, [r3, #12]
 395 0082 2C4A     		ldr	r2, .L34+4
 396 0084 43F4DE03 		orr	r3, r3, #7274496
 397 0088 D360     		str	r3, [r2, #12]
 398              	.L26:
 313:./Drivers/STM32H7xx_HAL_Driver/Src/stm32h7xx_hal_flash_ex.c ****                                   FLASH_IT_STRBERR_BANK1 | FLASH_IT_INCERR_BANK1 | FLASH_IT_OPERR_B
 314:./Drivers/STM32H7xx_HAL_Driver/Src/stm32h7xx_hal_flash_ex.c ****     }
 315:./Drivers/STM32H7xx_HAL_Driver/Src/stm32h7xx_hal_flash_ex.c ****     if((pEraseInit->Banks & FLASH_BANK_2) == FLASH_BANK_2)
 399              		.loc 1 315 19
 400 008a 7B68     		ldr	r3, [r7, #4]
 401 008c 5B68     		ldr	r3, [r3, #4]
 402              		.loc 1 315 27
 403 008e 03F00203 		and	r3, r3, #2
 404              		.loc 1 315 7
 405 0092 002B     		cmp	r3, #0
 406 0094 07D0     		beq	.L27
 316:./Drivers/STM32H7xx_HAL_Driver/Src/stm32h7xx_hal_flash_ex.c ****     {
 317:./Drivers/STM32H7xx_HAL_Driver/Src/stm32h7xx_hal_flash_ex.c ****       /* Enable End of Operation and Error interrupts for Bank 2 */
 318:./Drivers/STM32H7xx_HAL_Driver/Src/stm32h7xx_hal_flash_ex.c ****       __HAL_FLASH_ENABLE_IT_BANK2(FLASH_IT_EOP_BANK2     | FLASH_IT_WRPERR_BANK2 | FLASH_IT_PGSERR_
 407              		.loc 1 318 7
 408 0096 274B     		ldr	r3, .L34+4
 409 0098 D3F80C31 		ldr	r3, [r3, #268]
 410 009c 254A     		ldr	r2, .L34+4
 411 009e 43F4DE03 		orr	r3, r3, #7274496
 412 00a2 C2F80C31 		str	r3, [r2, #268]
 413              	.L27:
 319:./Drivers/STM32H7xx_HAL_Driver/Src/stm32h7xx_hal_flash_ex.c ****                                   FLASH_IT_STRBERR_BANK2 | FLASH_IT_INCERR_BANK2 | FLASH_IT_OPERR_B
 320:./Drivers/STM32H7xx_HAL_Driver/Src/stm32h7xx_hal_flash_ex.c ****     }
 321:./Drivers/STM32H7xx_HAL_Driver/Src/stm32h7xx_hal_flash_ex.c **** 
 322:./Drivers/STM32H7xx_HAL_Driver/Src/stm32h7xx_hal_flash_ex.c ****     if(pEraseInit->TypeErase == FLASH_TYPEERASE_MASSERASE)
 414              		.loc 1 322 18
 415 00a6 7B68     		ldr	r3, [r7, #4]
 416 00a8 1B68     		ldr	r3, [r3]
 417              		.loc 1 322 7
ARM GAS  /tmp/ccw511VT.s 			page 14


 418 00aa 012B     		cmp	r3, #1
 419 00ac 1BD1     		bne	.L28
 323:./Drivers/STM32H7xx_HAL_Driver/Src/stm32h7xx_hal_flash_ex.c ****     {
 324:./Drivers/STM32H7xx_HAL_Driver/Src/stm32h7xx_hal_flash_ex.c ****       /*Mass erase to be done*/
 325:./Drivers/STM32H7xx_HAL_Driver/Src/stm32h7xx_hal_flash_ex.c ****       if(pEraseInit->Banks == FLASH_BANK_1)
 420              		.loc 1 325 20
 421 00ae 7B68     		ldr	r3, [r7, #4]
 422 00b0 5B68     		ldr	r3, [r3, #4]
 423              		.loc 1 325 9
 424 00b2 012B     		cmp	r3, #1
 425 00b4 03D1     		bne	.L29
 326:./Drivers/STM32H7xx_HAL_Driver/Src/stm32h7xx_hal_flash_ex.c ****       {
 327:./Drivers/STM32H7xx_HAL_Driver/Src/stm32h7xx_hal_flash_ex.c ****         pFlash.ProcedureOnGoing = FLASH_PROC_MASSERASE_BANK1;
 426              		.loc 1 327 33
 427 00b6 1E4B     		ldr	r3, .L34
 428 00b8 0222     		movs	r2, #2
 429 00ba 1A70     		strb	r2, [r3]
 430 00bc 0AE0     		b	.L30
 431              	.L29:
 328:./Drivers/STM32H7xx_HAL_Driver/Src/stm32h7xx_hal_flash_ex.c ****       }
 329:./Drivers/STM32H7xx_HAL_Driver/Src/stm32h7xx_hal_flash_ex.c ****       else if(pEraseInit->Banks == FLASH_BANK_2)
 432              		.loc 1 329 25
 433 00be 7B68     		ldr	r3, [r7, #4]
 434 00c0 5B68     		ldr	r3, [r3, #4]
 435              		.loc 1 329 14
 436 00c2 022B     		cmp	r3, #2
 437 00c4 03D1     		bne	.L31
 330:./Drivers/STM32H7xx_HAL_Driver/Src/stm32h7xx_hal_flash_ex.c ****       {
 331:./Drivers/STM32H7xx_HAL_Driver/Src/stm32h7xx_hal_flash_ex.c ****         pFlash.ProcedureOnGoing = FLASH_PROC_MASSERASE_BANK2;
 438              		.loc 1 331 33
 439 00c6 1A4B     		ldr	r3, .L34
 440 00c8 0522     		movs	r2, #5
 441 00ca 1A70     		strb	r2, [r3]
 442 00cc 02E0     		b	.L30
 443              	.L31:
 332:./Drivers/STM32H7xx_HAL_Driver/Src/stm32h7xx_hal_flash_ex.c ****       }
 333:./Drivers/STM32H7xx_HAL_Driver/Src/stm32h7xx_hal_flash_ex.c ****       else
 334:./Drivers/STM32H7xx_HAL_Driver/Src/stm32h7xx_hal_flash_ex.c ****       {
 335:./Drivers/STM32H7xx_HAL_Driver/Src/stm32h7xx_hal_flash_ex.c ****         pFlash.ProcedureOnGoing = FLASH_PROC_ALLBANK_MASSERASE;
 444              		.loc 1 335 33
 445 00ce 184B     		ldr	r3, .L34
 446 00d0 0722     		movs	r2, #7
 447 00d2 1A70     		strb	r2, [r3]
 448              	.L30:
 336:./Drivers/STM32H7xx_HAL_Driver/Src/stm32h7xx_hal_flash_ex.c ****       }
 337:./Drivers/STM32H7xx_HAL_Driver/Src/stm32h7xx_hal_flash_ex.c **** 
 338:./Drivers/STM32H7xx_HAL_Driver/Src/stm32h7xx_hal_flash_ex.c ****       FLASH_MassErase(pEraseInit->VoltageRange, pEraseInit->Banks);
 449              		.loc 1 338 7
 450 00d4 7B68     		ldr	r3, [r7, #4]
 451 00d6 1A69     		ldr	r2, [r3, #16]
 452 00d8 7B68     		ldr	r3, [r7, #4]
 453 00da 5B68     		ldr	r3, [r3, #4]
 454 00dc 1946     		mov	r1, r3
 455 00de 1046     		mov	r0, r2
 456 00e0 FFF7FEFF 		bl	FLASH_MassErase
 457 00e4 1FE0     		b	.L25
 458              	.L28:
ARM GAS  /tmp/ccw511VT.s 			page 15


 339:./Drivers/STM32H7xx_HAL_Driver/Src/stm32h7xx_hal_flash_ex.c ****     }
 340:./Drivers/STM32H7xx_HAL_Driver/Src/stm32h7xx_hal_flash_ex.c ****     else
 341:./Drivers/STM32H7xx_HAL_Driver/Src/stm32h7xx_hal_flash_ex.c ****     {
 342:./Drivers/STM32H7xx_HAL_Driver/Src/stm32h7xx_hal_flash_ex.c ****       /* Erase by sector to be done */
 343:./Drivers/STM32H7xx_HAL_Driver/Src/stm32h7xx_hal_flash_ex.c ****       if(pEraseInit->Banks == FLASH_BANK_1)
 459              		.loc 1 343 20
 460 00e6 7B68     		ldr	r3, [r7, #4]
 461 00e8 5B68     		ldr	r3, [r3, #4]
 462              		.loc 1 343 9
 463 00ea 012B     		cmp	r3, #1
 464 00ec 03D1     		bne	.L32
 344:./Drivers/STM32H7xx_HAL_Driver/Src/stm32h7xx_hal_flash_ex.c ****       {
 345:./Drivers/STM32H7xx_HAL_Driver/Src/stm32h7xx_hal_flash_ex.c ****         pFlash.ProcedureOnGoing = FLASH_PROC_SECTERASE_BANK1;
 465              		.loc 1 345 33
 466 00ee 104B     		ldr	r3, .L34
 467 00f0 0122     		movs	r2, #1
 468 00f2 1A70     		strb	r2, [r3]
 469 00f4 02E0     		b	.L33
 470              	.L32:
 346:./Drivers/STM32H7xx_HAL_Driver/Src/stm32h7xx_hal_flash_ex.c ****       }
 347:./Drivers/STM32H7xx_HAL_Driver/Src/stm32h7xx_hal_flash_ex.c ****       else
 348:./Drivers/STM32H7xx_HAL_Driver/Src/stm32h7xx_hal_flash_ex.c ****       {
 349:./Drivers/STM32H7xx_HAL_Driver/Src/stm32h7xx_hal_flash_ex.c ****         pFlash.ProcedureOnGoing = FLASH_PROC_SECTERASE_BANK2;
 471              		.loc 1 349 33
 472 00f6 0E4B     		ldr	r3, .L34
 473 00f8 0422     		movs	r2, #4
 474 00fa 1A70     		strb	r2, [r3]
 475              	.L33:
 350:./Drivers/STM32H7xx_HAL_Driver/Src/stm32h7xx_hal_flash_ex.c ****       }
 351:./Drivers/STM32H7xx_HAL_Driver/Src/stm32h7xx_hal_flash_ex.c **** 
 352:./Drivers/STM32H7xx_HAL_Driver/Src/stm32h7xx_hal_flash_ex.c ****       pFlash.NbSectorsToErase = pEraseInit->NbSectors;
 476              		.loc 1 352 43
 477 00fc 7B68     		ldr	r3, [r7, #4]
 478 00fe DB68     		ldr	r3, [r3, #12]
 479              		.loc 1 352 31
 480 0100 0B4A     		ldr	r2, .L34
 481 0102 5360     		str	r3, [r2, #4]
 353:./Drivers/STM32H7xx_HAL_Driver/Src/stm32h7xx_hal_flash_ex.c ****       pFlash.Sector = pEraseInit->Sector;
 482              		.loc 1 353 33
 483 0104 7B68     		ldr	r3, [r7, #4]
 484 0106 9B68     		ldr	r3, [r3, #8]
 485              		.loc 1 353 21
 486 0108 094A     		ldr	r2, .L34
 487 010a D360     		str	r3, [r2, #12]
 354:./Drivers/STM32H7xx_HAL_Driver/Src/stm32h7xx_hal_flash_ex.c ****       pFlash.VoltageForErase = pEraseInit->VoltageRange;
 488              		.loc 1 354 42
 489 010c 7B68     		ldr	r3, [r7, #4]
 490 010e 1B69     		ldr	r3, [r3, #16]
 491              		.loc 1 354 30
 492 0110 074A     		ldr	r2, .L34
 493 0112 9360     		str	r3, [r2, #8]
 355:./Drivers/STM32H7xx_HAL_Driver/Src/stm32h7xx_hal_flash_ex.c **** 
 356:./Drivers/STM32H7xx_HAL_Driver/Src/stm32h7xx_hal_flash_ex.c ****       /* Erase first sector and wait for IT */
 357:./Drivers/STM32H7xx_HAL_Driver/Src/stm32h7xx_hal_flash_ex.c ****       FLASH_Erase_Sector(pEraseInit->Sector, pEraseInit->Banks, pEraseInit->VoltageRange);
 494              		.loc 1 357 7
 495 0114 7B68     		ldr	r3, [r7, #4]
 496 0116 9868     		ldr	r0, [r3, #8]
ARM GAS  /tmp/ccw511VT.s 			page 16


 497 0118 7B68     		ldr	r3, [r7, #4]
 498 011a 5968     		ldr	r1, [r3, #4]
 499 011c 7B68     		ldr	r3, [r7, #4]
 500 011e 1B69     		ldr	r3, [r3, #16]
 501 0120 1A46     		mov	r2, r3
 502 0122 FFF7FEFF 		bl	FLASH_Erase_Sector
 503              	.L25:
 358:./Drivers/STM32H7xx_HAL_Driver/Src/stm32h7xx_hal_flash_ex.c ****     }
 359:./Drivers/STM32H7xx_HAL_Driver/Src/stm32h7xx_hal_flash_ex.c ****   }
 360:./Drivers/STM32H7xx_HAL_Driver/Src/stm32h7xx_hal_flash_ex.c **** 
 361:./Drivers/STM32H7xx_HAL_Driver/Src/stm32h7xx_hal_flash_ex.c ****   return status;
 504              		.loc 1 361 10
 505 0126 FB7B     		ldrb	r3, [r7, #15]	@ zero_extendqisi2
 506              	.L21:
 362:./Drivers/STM32H7xx_HAL_Driver/Src/stm32h7xx_hal_flash_ex.c **** }
 507              		.loc 1 362 1
 508 0128 1846     		mov	r0, r3
 509 012a 1037     		adds	r7, r7, #16
 510              		.cfi_def_cfa_offset 8
 511 012c BD46     		mov	sp, r7
 512              		.cfi_def_cfa_register 13
 513              		@ sp needed
 514 012e 80BD     		pop	{r7, pc}
 515              	.L35:
 516              		.align	2
 517              	.L34:
 518 0130 00000000 		.word	pFlash
 519 0134 00200052 		.word	1375739904
 520              		.cfi_endproc
 521              	.LFE135:
 523              		.section	.text.HAL_FLASHEx_OBProgram,"ax",%progbits
 524              		.align	1
 525              		.global	HAL_FLASHEx_OBProgram
 526              		.syntax unified
 527              		.thumb
 528              		.thumb_func
 529              		.fpu fpv5-d16
 531              	HAL_FLASHEx_OBProgram:
 532              	.LFB136:
 363:./Drivers/STM32H7xx_HAL_Driver/Src/stm32h7xx_hal_flash_ex.c **** 
 364:./Drivers/STM32H7xx_HAL_Driver/Src/stm32h7xx_hal_flash_ex.c **** /**
 365:./Drivers/STM32H7xx_HAL_Driver/Src/stm32h7xx_hal_flash_ex.c ****   * @brief  Program option bytes
 366:./Drivers/STM32H7xx_HAL_Driver/Src/stm32h7xx_hal_flash_ex.c ****   * @param  pOBInit pointer to an FLASH_OBInitStruct structure that
 367:./Drivers/STM32H7xx_HAL_Driver/Src/stm32h7xx_hal_flash_ex.c ****   *         contains the configuration information for the programming.
 368:./Drivers/STM32H7xx_HAL_Driver/Src/stm32h7xx_hal_flash_ex.c ****   *
 369:./Drivers/STM32H7xx_HAL_Driver/Src/stm32h7xx_hal_flash_ex.c ****   * @retval HAL Status
 370:./Drivers/STM32H7xx_HAL_Driver/Src/stm32h7xx_hal_flash_ex.c ****   */
 371:./Drivers/STM32H7xx_HAL_Driver/Src/stm32h7xx_hal_flash_ex.c **** HAL_StatusTypeDef HAL_FLASHEx_OBProgram(FLASH_OBProgramInitTypeDef *pOBInit)
 372:./Drivers/STM32H7xx_HAL_Driver/Src/stm32h7xx_hal_flash_ex.c **** {
 533              		.loc 1 372 1
 534              		.cfi_startproc
 535              		@ args = 0, pretend = 0, frame = 16
 536              		@ frame_needed = 1, uses_anonymous_args = 0
 537 0000 80B5     		push	{r7, lr}
 538              		.cfi_def_cfa_offset 8
 539              		.cfi_offset 7, -8
 540              		.cfi_offset 14, -4
ARM GAS  /tmp/ccw511VT.s 			page 17


 541 0002 84B0     		sub	sp, sp, #16
 542              		.cfi_def_cfa_offset 24
 543 0004 00AF     		add	r7, sp, #0
 544              		.cfi_def_cfa_register 7
 545 0006 7860     		str	r0, [r7, #4]
 373:./Drivers/STM32H7xx_HAL_Driver/Src/stm32h7xx_hal_flash_ex.c ****   HAL_StatusTypeDef status;
 374:./Drivers/STM32H7xx_HAL_Driver/Src/stm32h7xx_hal_flash_ex.c **** 
 375:./Drivers/STM32H7xx_HAL_Driver/Src/stm32h7xx_hal_flash_ex.c ****   /* Check the parameters */
 376:./Drivers/STM32H7xx_HAL_Driver/Src/stm32h7xx_hal_flash_ex.c ****   assert_param(IS_OPTIONBYTE(pOBInit->OptionType));
 377:./Drivers/STM32H7xx_HAL_Driver/Src/stm32h7xx_hal_flash_ex.c **** 
 378:./Drivers/STM32H7xx_HAL_Driver/Src/stm32h7xx_hal_flash_ex.c ****   /* Process Locked */
 379:./Drivers/STM32H7xx_HAL_Driver/Src/stm32h7xx_hal_flash_ex.c ****   __HAL_LOCK(&pFlash);
 546              		.loc 1 379 3
 547 0008 4E4B     		ldr	r3, .L50
 548 000a 1B7D     		ldrb	r3, [r3, #20]	@ zero_extendqisi2
 549 000c 012B     		cmp	r3, #1
 550 000e 01D1     		bne	.L37
 551              		.loc 1 379 3 is_stmt 0 discriminator 1
 552 0010 0223     		movs	r3, #2
 553 0012 92E0     		b	.L38
 554              	.L37:
 555              		.loc 1 379 3 discriminator 2
 556 0014 4B4B     		ldr	r3, .L50
 557 0016 0122     		movs	r2, #1
 558 0018 1A75     		strb	r2, [r3, #20]
 380:./Drivers/STM32H7xx_HAL_Driver/Src/stm32h7xx_hal_flash_ex.c **** 
 381:./Drivers/STM32H7xx_HAL_Driver/Src/stm32h7xx_hal_flash_ex.c ****   /* Reset Error Code */
 382:./Drivers/STM32H7xx_HAL_Driver/Src/stm32h7xx_hal_flash_ex.c ****   pFlash.ErrorCode = HAL_FLASH_ERROR_NONE;
 559              		.loc 1 382 20 is_stmt 1 discriminator 2
 560 001a 4A4B     		ldr	r3, .L50
 561 001c 0022     		movs	r2, #0
 562 001e 9A61     		str	r2, [r3, #24]
 383:./Drivers/STM32H7xx_HAL_Driver/Src/stm32h7xx_hal_flash_ex.c **** 
 384:./Drivers/STM32H7xx_HAL_Driver/Src/stm32h7xx_hal_flash_ex.c ****   /* Wait for last operation to be completed */
 385:./Drivers/STM32H7xx_HAL_Driver/Src/stm32h7xx_hal_flash_ex.c ****   if(FLASH_WaitForLastOperation((uint32_t)FLASH_TIMEOUT_VALUE, FLASH_BANK_1) != HAL_OK)
 563              		.loc 1 385 6 discriminator 2
 564 0020 0121     		movs	r1, #1
 565 0022 4CF25030 		movw	r0, #50000
 566 0026 FFF7FEFF 		bl	FLASH_WaitForLastOperation
 567 002a 0346     		mov	r3, r0
 568              		.loc 1 385 5 discriminator 2
 569 002c 002B     		cmp	r3, #0
 570 002e 02D0     		beq	.L39
 386:./Drivers/STM32H7xx_HAL_Driver/Src/stm32h7xx_hal_flash_ex.c ****   {
 387:./Drivers/STM32H7xx_HAL_Driver/Src/stm32h7xx_hal_flash_ex.c ****     status = HAL_ERROR;
 571              		.loc 1 387 12
 572 0030 0123     		movs	r3, #1
 573 0032 FB73     		strb	r3, [r7, #15]
 574 0034 0CE0     		b	.L40
 575              	.L39:
 388:./Drivers/STM32H7xx_HAL_Driver/Src/stm32h7xx_hal_flash_ex.c ****   }
 389:./Drivers/STM32H7xx_HAL_Driver/Src/stm32h7xx_hal_flash_ex.c ****   else if(FLASH_WaitForLastOperation((uint32_t)FLASH_TIMEOUT_VALUE, FLASH_BANK_2) != HAL_OK)
 576              		.loc 1 389 11
 577 0036 0221     		movs	r1, #2
 578 0038 4CF25030 		movw	r0, #50000
 579 003c FFF7FEFF 		bl	FLASH_WaitForLastOperation
 580 0040 0346     		mov	r3, r0
ARM GAS  /tmp/ccw511VT.s 			page 18


 581              		.loc 1 389 10
 582 0042 002B     		cmp	r3, #0
 583 0044 02D0     		beq	.L41
 390:./Drivers/STM32H7xx_HAL_Driver/Src/stm32h7xx_hal_flash_ex.c ****   {
 391:./Drivers/STM32H7xx_HAL_Driver/Src/stm32h7xx_hal_flash_ex.c ****     status = HAL_ERROR;
 584              		.loc 1 391 12
 585 0046 0123     		movs	r3, #1
 586 0048 FB73     		strb	r3, [r7, #15]
 587 004a 01E0     		b	.L40
 588              	.L41:
 392:./Drivers/STM32H7xx_HAL_Driver/Src/stm32h7xx_hal_flash_ex.c ****   }
 393:./Drivers/STM32H7xx_HAL_Driver/Src/stm32h7xx_hal_flash_ex.c ****   else
 394:./Drivers/STM32H7xx_HAL_Driver/Src/stm32h7xx_hal_flash_ex.c ****   {
 395:./Drivers/STM32H7xx_HAL_Driver/Src/stm32h7xx_hal_flash_ex.c ****     status = HAL_OK;
 589              		.loc 1 395 12
 590 004c 0023     		movs	r3, #0
 591 004e FB73     		strb	r3, [r7, #15]
 592              	.L40:
 396:./Drivers/STM32H7xx_HAL_Driver/Src/stm32h7xx_hal_flash_ex.c ****   }
 397:./Drivers/STM32H7xx_HAL_Driver/Src/stm32h7xx_hal_flash_ex.c **** 
 398:./Drivers/STM32H7xx_HAL_Driver/Src/stm32h7xx_hal_flash_ex.c ****   if(status == HAL_OK)
 593              		.loc 1 398 5
 594 0050 FB7B     		ldrb	r3, [r7, #15]	@ zero_extendqisi2
 595 0052 002B     		cmp	r3, #0
 596 0054 6DD1     		bne	.L42
 399:./Drivers/STM32H7xx_HAL_Driver/Src/stm32h7xx_hal_flash_ex.c ****   {
 400:./Drivers/STM32H7xx_HAL_Driver/Src/stm32h7xx_hal_flash_ex.c ****     /*Write protection configuration*/
 401:./Drivers/STM32H7xx_HAL_Driver/Src/stm32h7xx_hal_flash_ex.c ****     if((pOBInit->OptionType & OPTIONBYTE_WRP) == OPTIONBYTE_WRP)
 597              		.loc 1 401 16
 598 0056 7B68     		ldr	r3, [r7, #4]
 599 0058 1B68     		ldr	r3, [r3]
 600              		.loc 1 401 29
 601 005a 03F00103 		and	r3, r3, #1
 602              		.loc 1 401 7
 603 005e 002B     		cmp	r3, #0
 604 0060 14D0     		beq	.L43
 402:./Drivers/STM32H7xx_HAL_Driver/Src/stm32h7xx_hal_flash_ex.c ****     {
 403:./Drivers/STM32H7xx_HAL_Driver/Src/stm32h7xx_hal_flash_ex.c ****       assert_param(IS_WRPSTATE(pOBInit->WRPState));
 404:./Drivers/STM32H7xx_HAL_Driver/Src/stm32h7xx_hal_flash_ex.c **** 
 405:./Drivers/STM32H7xx_HAL_Driver/Src/stm32h7xx_hal_flash_ex.c ****       if(pOBInit->WRPState == OB_WRPSTATE_ENABLE)
 605              		.loc 1 405 17
 606 0062 7B68     		ldr	r3, [r7, #4]
 607 0064 5B68     		ldr	r3, [r3, #4]
 608              		.loc 1 405 9
 609 0066 012B     		cmp	r3, #1
 610 0068 08D1     		bne	.L44
 406:./Drivers/STM32H7xx_HAL_Driver/Src/stm32h7xx_hal_flash_ex.c ****       {
 407:./Drivers/STM32H7xx_HAL_Driver/Src/stm32h7xx_hal_flash_ex.c ****         /*Enable of Write protection on the selected Sector*/
 408:./Drivers/STM32H7xx_HAL_Driver/Src/stm32h7xx_hal_flash_ex.c ****         FLASH_OB_EnableWRP(pOBInit->WRPSector,pOBInit->Banks);
 611              		.loc 1 408 9
 612 006a 7B68     		ldr	r3, [r7, #4]
 613 006c 9A68     		ldr	r2, [r3, #8]
 614 006e 7B68     		ldr	r3, [r7, #4]
 615 0070 DB69     		ldr	r3, [r3, #28]
 616 0072 1946     		mov	r1, r3
 617 0074 1046     		mov	r0, r2
 618 0076 FFF7FEFF 		bl	FLASH_OB_EnableWRP
ARM GAS  /tmp/ccw511VT.s 			page 19


 619 007a 07E0     		b	.L43
 620              	.L44:
 409:./Drivers/STM32H7xx_HAL_Driver/Src/stm32h7xx_hal_flash_ex.c ****       }
 410:./Drivers/STM32H7xx_HAL_Driver/Src/stm32h7xx_hal_flash_ex.c ****       else
 411:./Drivers/STM32H7xx_HAL_Driver/Src/stm32h7xx_hal_flash_ex.c ****       {
 412:./Drivers/STM32H7xx_HAL_Driver/Src/stm32h7xx_hal_flash_ex.c ****         /*Disable of Write protection on the selected Sector*/
 413:./Drivers/STM32H7xx_HAL_Driver/Src/stm32h7xx_hal_flash_ex.c ****         FLASH_OB_DisableWRP(pOBInit->WRPSector, pOBInit->Banks);
 621              		.loc 1 413 9
 622 007c 7B68     		ldr	r3, [r7, #4]
 623 007e 9A68     		ldr	r2, [r3, #8]
 624 0080 7B68     		ldr	r3, [r7, #4]
 625 0082 DB69     		ldr	r3, [r3, #28]
 626 0084 1946     		mov	r1, r3
 627 0086 1046     		mov	r0, r2
 628 0088 FFF7FEFF 		bl	FLASH_OB_DisableWRP
 629              	.L43:
 414:./Drivers/STM32H7xx_HAL_Driver/Src/stm32h7xx_hal_flash_ex.c ****       }
 415:./Drivers/STM32H7xx_HAL_Driver/Src/stm32h7xx_hal_flash_ex.c ****     }
 416:./Drivers/STM32H7xx_HAL_Driver/Src/stm32h7xx_hal_flash_ex.c **** 
 417:./Drivers/STM32H7xx_HAL_Driver/Src/stm32h7xx_hal_flash_ex.c ****     /* Read protection configuration */
 418:./Drivers/STM32H7xx_HAL_Driver/Src/stm32h7xx_hal_flash_ex.c ****     if((pOBInit->OptionType & OPTIONBYTE_RDP) != 0U)
 630              		.loc 1 418 16
 631 008c 7B68     		ldr	r3, [r7, #4]
 632 008e 1B68     		ldr	r3, [r3]
 633              		.loc 1 418 29
 634 0090 03F00203 		and	r3, r3, #2
 635              		.loc 1 418 7
 636 0094 002B     		cmp	r3, #0
 637 0096 04D0     		beq	.L45
 419:./Drivers/STM32H7xx_HAL_Driver/Src/stm32h7xx_hal_flash_ex.c ****     {
 420:./Drivers/STM32H7xx_HAL_Driver/Src/stm32h7xx_hal_flash_ex.c ****       /* Configure the Read protection level */
 421:./Drivers/STM32H7xx_HAL_Driver/Src/stm32h7xx_hal_flash_ex.c ****       FLASH_OB_RDPConfig(pOBInit->RDPLevel);
 638              		.loc 1 421 7
 639 0098 7B68     		ldr	r3, [r7, #4]
 640 009a DB68     		ldr	r3, [r3, #12]
 641 009c 1846     		mov	r0, r3
 642 009e FFF7FEFF 		bl	FLASH_OB_RDPConfig
 643              	.L45:
 422:./Drivers/STM32H7xx_HAL_Driver/Src/stm32h7xx_hal_flash_ex.c ****     }
 423:./Drivers/STM32H7xx_HAL_Driver/Src/stm32h7xx_hal_flash_ex.c **** 
 424:./Drivers/STM32H7xx_HAL_Driver/Src/stm32h7xx_hal_flash_ex.c ****     /* User Configuration */
 425:./Drivers/STM32H7xx_HAL_Driver/Src/stm32h7xx_hal_flash_ex.c ****     if((pOBInit->OptionType & OPTIONBYTE_USER) != 0U)
 644              		.loc 1 425 16
 645 00a2 7B68     		ldr	r3, [r7, #4]
 646 00a4 1B68     		ldr	r3, [r3]
 647              		.loc 1 425 29
 648 00a6 03F00403 		and	r3, r3, #4
 649              		.loc 1 425 7
 650 00aa 002B     		cmp	r3, #0
 651 00ac 07D0     		beq	.L46
 426:./Drivers/STM32H7xx_HAL_Driver/Src/stm32h7xx_hal_flash_ex.c ****     {
 427:./Drivers/STM32H7xx_HAL_Driver/Src/stm32h7xx_hal_flash_ex.c ****       /* Configure the user option bytes */
 428:./Drivers/STM32H7xx_HAL_Driver/Src/stm32h7xx_hal_flash_ex.c ****       FLASH_OB_UserConfig(pOBInit->USERType, pOBInit->USERConfig);
 652              		.loc 1 428 7
 653 00ae 7B68     		ldr	r3, [r7, #4]
 654 00b0 5A69     		ldr	r2, [r3, #20]
 655 00b2 7B68     		ldr	r3, [r7, #4]
ARM GAS  /tmp/ccw511VT.s 			page 20


 656 00b4 9B69     		ldr	r3, [r3, #24]
 657 00b6 1946     		mov	r1, r3
 658 00b8 1046     		mov	r0, r2
 659 00ba FFF7FEFF 		bl	FLASH_OB_UserConfig
 660              	.L46:
 429:./Drivers/STM32H7xx_HAL_Driver/Src/stm32h7xx_hal_flash_ex.c ****     }
 430:./Drivers/STM32H7xx_HAL_Driver/Src/stm32h7xx_hal_flash_ex.c **** 
 431:./Drivers/STM32H7xx_HAL_Driver/Src/stm32h7xx_hal_flash_ex.c ****     /* PCROP Configuration */
 432:./Drivers/STM32H7xx_HAL_Driver/Src/stm32h7xx_hal_flash_ex.c ****     if((pOBInit->OptionType & OPTIONBYTE_PCROP) != 0U)
 661              		.loc 1 432 16
 662 00be 7B68     		ldr	r3, [r7, #4]
 663 00c0 1B68     		ldr	r3, [r3]
 664              		.loc 1 432 29
 665 00c2 03F00803 		and	r3, r3, #8
 666              		.loc 1 432 7
 667 00c6 002B     		cmp	r3, #0
 668 00c8 09D0     		beq	.L47
 433:./Drivers/STM32H7xx_HAL_Driver/Src/stm32h7xx_hal_flash_ex.c ****     {
 434:./Drivers/STM32H7xx_HAL_Driver/Src/stm32h7xx_hal_flash_ex.c ****       assert_param(IS_FLASH_BANK(pOBInit->Banks));
 435:./Drivers/STM32H7xx_HAL_Driver/Src/stm32h7xx_hal_flash_ex.c **** 
 436:./Drivers/STM32H7xx_HAL_Driver/Src/stm32h7xx_hal_flash_ex.c ****       /*Configure the Proprietary code readout protection */
 437:./Drivers/STM32H7xx_HAL_Driver/Src/stm32h7xx_hal_flash_ex.c ****       FLASH_OB_PCROPConfig(pOBInit->PCROPConfig, pOBInit->PCROPStartAddr, pOBInit->PCROPEndAddr, pO
 669              		.loc 1 437 7
 670 00ca 7B68     		ldr	r3, [r7, #4]
 671 00cc 186A     		ldr	r0, [r3, #32]
 672 00ce 7B68     		ldr	r3, [r7, #4]
 673 00d0 596A     		ldr	r1, [r3, #36]
 674 00d2 7B68     		ldr	r3, [r7, #4]
 675 00d4 9A6A     		ldr	r2, [r3, #40]
 676 00d6 7B68     		ldr	r3, [r7, #4]
 677 00d8 DB69     		ldr	r3, [r3, #28]
 678 00da FFF7FEFF 		bl	FLASH_OB_PCROPConfig
 679              	.L47:
 438:./Drivers/STM32H7xx_HAL_Driver/Src/stm32h7xx_hal_flash_ex.c ****     }
 439:./Drivers/STM32H7xx_HAL_Driver/Src/stm32h7xx_hal_flash_ex.c **** 
 440:./Drivers/STM32H7xx_HAL_Driver/Src/stm32h7xx_hal_flash_ex.c ****     /* BOR Level configuration */
 441:./Drivers/STM32H7xx_HAL_Driver/Src/stm32h7xx_hal_flash_ex.c ****     if((pOBInit->OptionType & OPTIONBYTE_BOR) == OPTIONBYTE_BOR)
 680              		.loc 1 441 16
 681 00de 7B68     		ldr	r3, [r7, #4]
 682 00e0 1B68     		ldr	r3, [r3]
 683              		.loc 1 441 29
 684 00e2 03F01003 		and	r3, r3, #16
 685              		.loc 1 441 7
 686 00e6 002B     		cmp	r3, #0
 687 00e8 04D0     		beq	.L48
 442:./Drivers/STM32H7xx_HAL_Driver/Src/stm32h7xx_hal_flash_ex.c ****     {
 443:./Drivers/STM32H7xx_HAL_Driver/Src/stm32h7xx_hal_flash_ex.c ****       FLASH_OB_BOR_LevelConfig(pOBInit->BORLevel);
 688              		.loc 1 443 7
 689 00ea 7B68     		ldr	r3, [r7, #4]
 690 00ec 1B69     		ldr	r3, [r3, #16]
 691 00ee 1846     		mov	r0, r3
 692 00f0 FFF7FEFF 		bl	FLASH_OB_BOR_LevelConfig
 693              	.L48:
 444:./Drivers/STM32H7xx_HAL_Driver/Src/stm32h7xx_hal_flash_ex.c ****     }
 445:./Drivers/STM32H7xx_HAL_Driver/Src/stm32h7xx_hal_flash_ex.c **** 
 446:./Drivers/STM32H7xx_HAL_Driver/Src/stm32h7xx_hal_flash_ex.c **** #if defined(DUAL_CORE)
 447:./Drivers/STM32H7xx_HAL_Driver/Src/stm32h7xx_hal_flash_ex.c ****     /*CM7 Boot Address  configuration*/
ARM GAS  /tmp/ccw511VT.s 			page 21


 448:./Drivers/STM32H7xx_HAL_Driver/Src/stm32h7xx_hal_flash_ex.c ****     if((pOBInit->OptionType & OPTIONBYTE_CM7_BOOTADD) == OPTIONBYTE_CM7_BOOTADD)
 449:./Drivers/STM32H7xx_HAL_Driver/Src/stm32h7xx_hal_flash_ex.c ****     {
 450:./Drivers/STM32H7xx_HAL_Driver/Src/stm32h7xx_hal_flash_ex.c ****       FLASH_OB_BootAddConfig(pOBInit->BootConfig, pOBInit->BootAddr0, pOBInit->BootAddr1);
 451:./Drivers/STM32H7xx_HAL_Driver/Src/stm32h7xx_hal_flash_ex.c ****     }
 452:./Drivers/STM32H7xx_HAL_Driver/Src/stm32h7xx_hal_flash_ex.c **** 
 453:./Drivers/STM32H7xx_HAL_Driver/Src/stm32h7xx_hal_flash_ex.c ****     /*CM4 Boot Address  configuration*/
 454:./Drivers/STM32H7xx_HAL_Driver/Src/stm32h7xx_hal_flash_ex.c ****     if((pOBInit->OptionType & OPTIONBYTE_CM4_BOOTADD) == OPTIONBYTE_CM4_BOOTADD)
 455:./Drivers/STM32H7xx_HAL_Driver/Src/stm32h7xx_hal_flash_ex.c ****     {
 456:./Drivers/STM32H7xx_HAL_Driver/Src/stm32h7xx_hal_flash_ex.c ****       FLASH_OB_CM4BootAddConfig(pOBInit->CM4BootConfig, pOBInit->CM4BootAddr0, pOBInit->CM4BootAddr
 457:./Drivers/STM32H7xx_HAL_Driver/Src/stm32h7xx_hal_flash_ex.c ****     }
 458:./Drivers/STM32H7xx_HAL_Driver/Src/stm32h7xx_hal_flash_ex.c **** #else /* Single Core*/
 459:./Drivers/STM32H7xx_HAL_Driver/Src/stm32h7xx_hal_flash_ex.c ****     /*Boot Address  configuration*/
 460:./Drivers/STM32H7xx_HAL_Driver/Src/stm32h7xx_hal_flash_ex.c ****     if((pOBInit->OptionType & OPTIONBYTE_BOOTADD) == OPTIONBYTE_BOOTADD)
 694              		.loc 1 460 16
 695 00f4 7B68     		ldr	r3, [r7, #4]
 696 00f6 1B68     		ldr	r3, [r3]
 697              		.loc 1 460 29
 698 00f8 03F04003 		and	r3, r3, #64
 699              		.loc 1 460 7
 700 00fc 002B     		cmp	r3, #0
 701 00fe 08D0     		beq	.L49
 461:./Drivers/STM32H7xx_HAL_Driver/Src/stm32h7xx_hal_flash_ex.c ****     {
 462:./Drivers/STM32H7xx_HAL_Driver/Src/stm32h7xx_hal_flash_ex.c ****       FLASH_OB_BootAddConfig(pOBInit->BootConfig, pOBInit->BootAddr0, pOBInit->BootAddr1);
 702              		.loc 1 462 7
 703 0100 7B68     		ldr	r3, [r7, #4]
 704 0102 D86A     		ldr	r0, [r3, #44]
 705 0104 7B68     		ldr	r3, [r7, #4]
 706 0106 196B     		ldr	r1, [r3, #48]
 707 0108 7B68     		ldr	r3, [r7, #4]
 708 010a 5B6B     		ldr	r3, [r3, #52]
 709 010c 1A46     		mov	r2, r3
 710 010e FFF7FEFF 		bl	FLASH_OB_BootAddConfig
 711              	.L49:
 463:./Drivers/STM32H7xx_HAL_Driver/Src/stm32h7xx_hal_flash_ex.c ****     }
 464:./Drivers/STM32H7xx_HAL_Driver/Src/stm32h7xx_hal_flash_ex.c **** #endif /*DUAL_CORE*/
 465:./Drivers/STM32H7xx_HAL_Driver/Src/stm32h7xx_hal_flash_ex.c ****     /*Bank1 secure area  configuration*/
 466:./Drivers/STM32H7xx_HAL_Driver/Src/stm32h7xx_hal_flash_ex.c ****     if((pOBInit->OptionType & OPTIONBYTE_SECURE_AREA) == OPTIONBYTE_SECURE_AREA)
 712              		.loc 1 466 16
 713 0112 7B68     		ldr	r3, [r7, #4]
 714 0114 1B68     		ldr	r3, [r3]
 715              		.loc 1 466 29
 716 0116 03F02003 		and	r3, r3, #32
 717              		.loc 1 466 7
 718 011a 002B     		cmp	r3, #0
 719 011c 09D0     		beq	.L42
 467:./Drivers/STM32H7xx_HAL_Driver/Src/stm32h7xx_hal_flash_ex.c ****     {
 468:./Drivers/STM32H7xx_HAL_Driver/Src/stm32h7xx_hal_flash_ex.c ****       FLASH_OB_SecureAreaConfig(pOBInit->SecureAreaConfig, pOBInit->SecureAreaStartAddr, pOBInit->S
 720              		.loc 1 468 7
 721 011e 7B68     		ldr	r3, [r7, #4]
 722 0120 986B     		ldr	r0, [r3, #56]
 723 0122 7B68     		ldr	r3, [r7, #4]
 724 0124 D96B     		ldr	r1, [r3, #60]
 725 0126 7B68     		ldr	r3, [r7, #4]
 726 0128 1A6C     		ldr	r2, [r3, #64]
 727 012a 7B68     		ldr	r3, [r7, #4]
 728 012c DB69     		ldr	r3, [r3, #28]
 729 012e FFF7FEFF 		bl	FLASH_OB_SecureAreaConfig
ARM GAS  /tmp/ccw511VT.s 			page 22


 730              	.L42:
 469:./Drivers/STM32H7xx_HAL_Driver/Src/stm32h7xx_hal_flash_ex.c ****     }
 470:./Drivers/STM32H7xx_HAL_Driver/Src/stm32h7xx_hal_flash_ex.c ****   }
 471:./Drivers/STM32H7xx_HAL_Driver/Src/stm32h7xx_hal_flash_ex.c **** 
 472:./Drivers/STM32H7xx_HAL_Driver/Src/stm32h7xx_hal_flash_ex.c ****   /* Process Unlocked */
 473:./Drivers/STM32H7xx_HAL_Driver/Src/stm32h7xx_hal_flash_ex.c ****   __HAL_UNLOCK(&pFlash);
 731              		.loc 1 473 3
 732 0132 044B     		ldr	r3, .L50
 733 0134 0022     		movs	r2, #0
 734 0136 1A75     		strb	r2, [r3, #20]
 474:./Drivers/STM32H7xx_HAL_Driver/Src/stm32h7xx_hal_flash_ex.c **** 
 475:./Drivers/STM32H7xx_HAL_Driver/Src/stm32h7xx_hal_flash_ex.c ****   return status;
 735              		.loc 1 475 10
 736 0138 FB7B     		ldrb	r3, [r7, #15]	@ zero_extendqisi2
 737              	.L38:
 476:./Drivers/STM32H7xx_HAL_Driver/Src/stm32h7xx_hal_flash_ex.c **** }
 738              		.loc 1 476 1
 739 013a 1846     		mov	r0, r3
 740 013c 1037     		adds	r7, r7, #16
 741              		.cfi_def_cfa_offset 8
 742 013e BD46     		mov	sp, r7
 743              		.cfi_def_cfa_register 13
 744              		@ sp needed
 745 0140 80BD     		pop	{r7, pc}
 746              	.L51:
 747 0142 00BF     		.align	2
 748              	.L50:
 749 0144 00000000 		.word	pFlash
 750              		.cfi_endproc
 751              	.LFE136:
 753              		.section	.text.HAL_FLASHEx_OBGetConfig,"ax",%progbits
 754              		.align	1
 755              		.global	HAL_FLASHEx_OBGetConfig
 756              		.syntax unified
 757              		.thumb
 758              		.thumb_func
 759              		.fpu fpv5-d16
 761              	HAL_FLASHEx_OBGetConfig:
 762              	.LFB137:
 477:./Drivers/STM32H7xx_HAL_Driver/Src/stm32h7xx_hal_flash_ex.c **** 
 478:./Drivers/STM32H7xx_HAL_Driver/Src/stm32h7xx_hal_flash_ex.c **** /**
 479:./Drivers/STM32H7xx_HAL_Driver/Src/stm32h7xx_hal_flash_ex.c ****   * @brief Get the Option byte configuration
 480:./Drivers/STM32H7xx_HAL_Driver/Src/stm32h7xx_hal_flash_ex.c ****   * @param  pOBInit pointer to an FLASH_OBInitStruct structure that
 481:./Drivers/STM32H7xx_HAL_Driver/Src/stm32h7xx_hal_flash_ex.c ****   *         contains the configuration information for the programming.
 482:./Drivers/STM32H7xx_HAL_Driver/Src/stm32h7xx_hal_flash_ex.c ****   * @note   The parameter Banks of the pOBInit structure must be set exclusively to FLASH_BANK_1 or
 483:./Drivers/STM32H7xx_HAL_Driver/Src/stm32h7xx_hal_flash_ex.c ****   *         as this parameter is use to get the given Bank WRP, PCROP and secured area configuratio
 484:./Drivers/STM32H7xx_HAL_Driver/Src/stm32h7xx_hal_flash_ex.c ****   *
 485:./Drivers/STM32H7xx_HAL_Driver/Src/stm32h7xx_hal_flash_ex.c ****   * @retval None
 486:./Drivers/STM32H7xx_HAL_Driver/Src/stm32h7xx_hal_flash_ex.c ****   */
 487:./Drivers/STM32H7xx_HAL_Driver/Src/stm32h7xx_hal_flash_ex.c **** void HAL_FLASHEx_OBGetConfig(FLASH_OBProgramInitTypeDef *pOBInit)
 488:./Drivers/STM32H7xx_HAL_Driver/Src/stm32h7xx_hal_flash_ex.c **** {
 763              		.loc 1 488 1
 764              		.cfi_startproc
 765              		@ args = 0, pretend = 0, frame = 8
 766              		@ frame_needed = 1, uses_anonymous_args = 0
 767 0000 80B5     		push	{r7, lr}
 768              		.cfi_def_cfa_offset 8
ARM GAS  /tmp/ccw511VT.s 			page 23


 769              		.cfi_offset 7, -8
 770              		.cfi_offset 14, -4
 771 0002 82B0     		sub	sp, sp, #8
 772              		.cfi_def_cfa_offset 16
 773 0004 00AF     		add	r7, sp, #0
 774              		.cfi_def_cfa_register 7
 775 0006 7860     		str	r0, [r7, #4]
 489:./Drivers/STM32H7xx_HAL_Driver/Src/stm32h7xx_hal_flash_ex.c ****   pOBInit->OptionType = (OPTIONBYTE_USER | OPTIONBYTE_RDP | OPTIONBYTE_BOR);
 776              		.loc 1 489 23
 777 0008 7B68     		ldr	r3, [r7, #4]
 778 000a 1622     		movs	r2, #22
 779 000c 1A60     		str	r2, [r3]
 490:./Drivers/STM32H7xx_HAL_Driver/Src/stm32h7xx_hal_flash_ex.c **** 
 491:./Drivers/STM32H7xx_HAL_Driver/Src/stm32h7xx_hal_flash_ex.c ****   /* Get Read protection level */
 492:./Drivers/STM32H7xx_HAL_Driver/Src/stm32h7xx_hal_flash_ex.c ****   pOBInit->RDPLevel = FLASH_OB_GetRDP();
 780              		.loc 1 492 23
 781 000e FFF7FEFF 		bl	FLASH_OB_GetRDP
 782 0012 0246     		mov	r2, r0
 783              		.loc 1 492 21
 784 0014 7B68     		ldr	r3, [r7, #4]
 785 0016 DA60     		str	r2, [r3, #12]
 493:./Drivers/STM32H7xx_HAL_Driver/Src/stm32h7xx_hal_flash_ex.c **** 
 494:./Drivers/STM32H7xx_HAL_Driver/Src/stm32h7xx_hal_flash_ex.c ****   /* Get the user option bytes */
 495:./Drivers/STM32H7xx_HAL_Driver/Src/stm32h7xx_hal_flash_ex.c ****   pOBInit->USERConfig = FLASH_OB_GetUser();
 786              		.loc 1 495 25
 787 0018 FFF7FEFF 		bl	FLASH_OB_GetUser
 788 001c 0246     		mov	r2, r0
 789              		.loc 1 495 23
 790 001e 7B68     		ldr	r3, [r7, #4]
 791 0020 9A61     		str	r2, [r3, #24]
 496:./Drivers/STM32H7xx_HAL_Driver/Src/stm32h7xx_hal_flash_ex.c **** 
 497:./Drivers/STM32H7xx_HAL_Driver/Src/stm32h7xx_hal_flash_ex.c ****   /*Get BOR Level*/
 498:./Drivers/STM32H7xx_HAL_Driver/Src/stm32h7xx_hal_flash_ex.c ****   pOBInit->BORLevel = FLASH_OB_GetBOR();
 792              		.loc 1 498 23
 793 0022 FFF7FEFF 		bl	FLASH_OB_GetBOR
 794 0026 0246     		mov	r2, r0
 795              		.loc 1 498 21
 796 0028 7B68     		ldr	r3, [r7, #4]
 797 002a 1A61     		str	r2, [r3, #16]
 499:./Drivers/STM32H7xx_HAL_Driver/Src/stm32h7xx_hal_flash_ex.c **** 
 500:./Drivers/STM32H7xx_HAL_Driver/Src/stm32h7xx_hal_flash_ex.c ****   if ((pOBInit->Banks == FLASH_BANK_1) || (pOBInit->Banks == FLASH_BANK_2))
 798              		.loc 1 500 15
 799 002c 7B68     		ldr	r3, [r7, #4]
 800 002e DB69     		ldr	r3, [r3, #28]
 801              		.loc 1 500 6
 802 0030 012B     		cmp	r3, #1
 803 0032 03D0     		beq	.L53
 804              		.loc 1 500 51 discriminator 1
 805 0034 7B68     		ldr	r3, [r7, #4]
 806 0036 DB69     		ldr	r3, [r3, #28]
 807              		.loc 1 500 40 discriminator 1
 808 0038 022B     		cmp	r3, #2
 809 003a 29D1     		bne	.L54
 810              	.L53:
 501:./Drivers/STM32H7xx_HAL_Driver/Src/stm32h7xx_hal_flash_ex.c ****   {
 502:./Drivers/STM32H7xx_HAL_Driver/Src/stm32h7xx_hal_flash_ex.c ****     pOBInit->OptionType |= (OPTIONBYTE_WRP | OPTIONBYTE_PCROP | OPTIONBYTE_SECURE_AREA);
 811              		.loc 1 502 25
ARM GAS  /tmp/ccw511VT.s 			page 24


 812 003c 7B68     		ldr	r3, [r7, #4]
 813 003e 1B68     		ldr	r3, [r3]
 814 0040 43F02902 		orr	r2, r3, #41
 815 0044 7B68     		ldr	r3, [r7, #4]
 816 0046 1A60     		str	r2, [r3]
 503:./Drivers/STM32H7xx_HAL_Driver/Src/stm32h7xx_hal_flash_ex.c **** 
 504:./Drivers/STM32H7xx_HAL_Driver/Src/stm32h7xx_hal_flash_ex.c ****     /* Get write protection on the selected area */
 505:./Drivers/STM32H7xx_HAL_Driver/Src/stm32h7xx_hal_flash_ex.c ****     FLASH_OB_GetWRP(&(pOBInit->WRPState), &(pOBInit->WRPSector), pOBInit->Banks);
 817              		.loc 1 505 5
 818 0048 7B68     		ldr	r3, [r7, #4]
 819 004a 181D     		adds	r0, r3, #4
 820 004c 7B68     		ldr	r3, [r7, #4]
 821 004e 03F10801 		add	r1, r3, #8
 822 0052 7B68     		ldr	r3, [r7, #4]
 823 0054 DB69     		ldr	r3, [r3, #28]
 824 0056 1A46     		mov	r2, r3
 825 0058 FFF7FEFF 		bl	FLASH_OB_GetWRP
 506:./Drivers/STM32H7xx_HAL_Driver/Src/stm32h7xx_hal_flash_ex.c **** 
 507:./Drivers/STM32H7xx_HAL_Driver/Src/stm32h7xx_hal_flash_ex.c ****     /* Get the Proprietary code readout protection */
 508:./Drivers/STM32H7xx_HAL_Driver/Src/stm32h7xx_hal_flash_ex.c ****     FLASH_OB_GetPCROP(&(pOBInit->PCROPConfig), &(pOBInit->PCROPStartAddr), &(pOBInit->PCROPEndAddr)
 826              		.loc 1 508 5
 827 005c 7B68     		ldr	r3, [r7, #4]
 828 005e 03F12000 		add	r0, r3, #32
 829 0062 7B68     		ldr	r3, [r7, #4]
 830 0064 03F12401 		add	r1, r3, #36
 831 0068 7B68     		ldr	r3, [r7, #4]
 832 006a 03F12802 		add	r2, r3, #40
 833 006e 7B68     		ldr	r3, [r7, #4]
 834 0070 DB69     		ldr	r3, [r3, #28]
 835 0072 FFF7FEFF 		bl	FLASH_OB_GetPCROP
 509:./Drivers/STM32H7xx_HAL_Driver/Src/stm32h7xx_hal_flash_ex.c **** 
 510:./Drivers/STM32H7xx_HAL_Driver/Src/stm32h7xx_hal_flash_ex.c ****     /*Get Bank Secure area*/
 511:./Drivers/STM32H7xx_HAL_Driver/Src/stm32h7xx_hal_flash_ex.c ****     FLASH_OB_GetSecureArea(&(pOBInit->SecureAreaConfig), &(pOBInit->SecureAreaStartAddr), &(pOBInit
 836              		.loc 1 511 5
 837 0076 7B68     		ldr	r3, [r7, #4]
 838 0078 03F13800 		add	r0, r3, #56
 839 007c 7B68     		ldr	r3, [r7, #4]
 840 007e 03F13C01 		add	r1, r3, #60
 841 0082 7B68     		ldr	r3, [r7, #4]
 842 0084 03F14002 		add	r2, r3, #64
 843 0088 7B68     		ldr	r3, [r7, #4]
 844 008a DB69     		ldr	r3, [r3, #28]
 845 008c FFF7FEFF 		bl	FLASH_OB_GetSecureArea
 846              	.L54:
 512:./Drivers/STM32H7xx_HAL_Driver/Src/stm32h7xx_hal_flash_ex.c ****   }
 513:./Drivers/STM32H7xx_HAL_Driver/Src/stm32h7xx_hal_flash_ex.c **** 
 514:./Drivers/STM32H7xx_HAL_Driver/Src/stm32h7xx_hal_flash_ex.c ****   /*Get Boot Address*/
 515:./Drivers/STM32H7xx_HAL_Driver/Src/stm32h7xx_hal_flash_ex.c ****   FLASH_OB_GetBootAdd(&(pOBInit->BootAddr0), &(pOBInit->BootAddr1));
 847              		.loc 1 515 3
 848 0090 7B68     		ldr	r3, [r7, #4]
 849 0092 03F13002 		add	r2, r3, #48
 850 0096 7B68     		ldr	r3, [r7, #4]
 851 0098 3433     		adds	r3, r3, #52
 852 009a 1946     		mov	r1, r3
 853 009c 1046     		mov	r0, r2
 854 009e FFF7FEFF 		bl	FLASH_OB_GetBootAdd
 516:./Drivers/STM32H7xx_HAL_Driver/Src/stm32h7xx_hal_flash_ex.c **** #if defined(DUAL_CORE)
ARM GAS  /tmp/ccw511VT.s 			page 25


 517:./Drivers/STM32H7xx_HAL_Driver/Src/stm32h7xx_hal_flash_ex.c ****   pOBInit->OptionType |= OPTIONBYTE_CM7_BOOTADD | OPTIONBYTE_CM4_BOOTADD;
 518:./Drivers/STM32H7xx_HAL_Driver/Src/stm32h7xx_hal_flash_ex.c **** 
 519:./Drivers/STM32H7xx_HAL_Driver/Src/stm32h7xx_hal_flash_ex.c ****   /*Get CM4 Boot Address*/
 520:./Drivers/STM32H7xx_HAL_Driver/Src/stm32h7xx_hal_flash_ex.c ****   FLASH_OB_GetCM4BootAdd(&(pOBInit->CM4BootAddr0), &(pOBInit->CM4BootAddr1));
 521:./Drivers/STM32H7xx_HAL_Driver/Src/stm32h7xx_hal_flash_ex.c **** #else
 522:./Drivers/STM32H7xx_HAL_Driver/Src/stm32h7xx_hal_flash_ex.c ****   pOBInit->OptionType |= OPTIONBYTE_BOOTADD;
 855              		.loc 1 522 23
 856 00a2 7B68     		ldr	r3, [r7, #4]
 857 00a4 1B68     		ldr	r3, [r3]
 858 00a6 43F04002 		orr	r2, r3, #64
 859 00aa 7B68     		ldr	r3, [r7, #4]
 860 00ac 1A60     		str	r2, [r3]
 523:./Drivers/STM32H7xx_HAL_Driver/Src/stm32h7xx_hal_flash_ex.c **** #endif /*DUAL_CORE*/
 524:./Drivers/STM32H7xx_HAL_Driver/Src/stm32h7xx_hal_flash_ex.c **** }
 861              		.loc 1 524 1
 862 00ae 00BF     		nop
 863 00b0 0837     		adds	r7, r7, #8
 864              		.cfi_def_cfa_offset 8
 865 00b2 BD46     		mov	sp, r7
 866              		.cfi_def_cfa_register 13
 867              		@ sp needed
 868 00b4 80BD     		pop	{r7, pc}
 869              		.cfi_endproc
 870              	.LFE137:
 872              		.section	.text.HAL_FLASHEx_Unlock_Bank1,"ax",%progbits
 873              		.align	1
 874              		.global	HAL_FLASHEx_Unlock_Bank1
 875              		.syntax unified
 876              		.thumb
 877              		.thumb_func
 878              		.fpu fpv5-d16
 880              	HAL_FLASHEx_Unlock_Bank1:
 881              	.LFB138:
 525:./Drivers/STM32H7xx_HAL_Driver/Src/stm32h7xx_hal_flash_ex.c **** 
 526:./Drivers/STM32H7xx_HAL_Driver/Src/stm32h7xx_hal_flash_ex.c **** /**
 527:./Drivers/STM32H7xx_HAL_Driver/Src/stm32h7xx_hal_flash_ex.c ****   * @brief  Unlock the FLASH Bank1 control registers access
 528:./Drivers/STM32H7xx_HAL_Driver/Src/stm32h7xx_hal_flash_ex.c ****   * @retval HAL Status
 529:./Drivers/STM32H7xx_HAL_Driver/Src/stm32h7xx_hal_flash_ex.c ****   */
 530:./Drivers/STM32H7xx_HAL_Driver/Src/stm32h7xx_hal_flash_ex.c **** HAL_StatusTypeDef HAL_FLASHEx_Unlock_Bank1(void)
 531:./Drivers/STM32H7xx_HAL_Driver/Src/stm32h7xx_hal_flash_ex.c **** {
 882              		.loc 1 531 1
 883              		.cfi_startproc
 884              		@ args = 0, pretend = 0, frame = 0
 885              		@ frame_needed = 1, uses_anonymous_args = 0
 886              		@ link register save eliminated.
 887 0000 80B4     		push	{r7}
 888              		.cfi_def_cfa_offset 4
 889              		.cfi_offset 7, -4
 890 0002 00AF     		add	r7, sp, #0
 891              		.cfi_def_cfa_register 7
 532:./Drivers/STM32H7xx_HAL_Driver/Src/stm32h7xx_hal_flash_ex.c ****   if(READ_BIT(FLASH->CR1, FLASH_CR_LOCK) != 0U)
 892              		.loc 1 532 6
 893 0004 0C4B     		ldr	r3, .L58
 894 0006 DB68     		ldr	r3, [r3, #12]
 895 0008 03F00103 		and	r3, r3, #1
 896              		.loc 1 532 5
 897 000c 002B     		cmp	r3, #0
ARM GAS  /tmp/ccw511VT.s 			page 26


 898 000e 0DD0     		beq	.L56
 533:./Drivers/STM32H7xx_HAL_Driver/Src/stm32h7xx_hal_flash_ex.c ****   {
 534:./Drivers/STM32H7xx_HAL_Driver/Src/stm32h7xx_hal_flash_ex.c ****     /* Authorize the FLASH Bank1 Registers access */
 535:./Drivers/STM32H7xx_HAL_Driver/Src/stm32h7xx_hal_flash_ex.c ****     WRITE_REG(FLASH->KEYR1, FLASH_KEY1);
 899              		.loc 1 535 5
 900 0010 094B     		ldr	r3, .L58
 901 0012 0A4A     		ldr	r2, .L58+4
 902 0014 5A60     		str	r2, [r3, #4]
 536:./Drivers/STM32H7xx_HAL_Driver/Src/stm32h7xx_hal_flash_ex.c ****     WRITE_REG(FLASH->KEYR1, FLASH_KEY2);
 903              		.loc 1 536 5
 904 0016 084B     		ldr	r3, .L58
 905 0018 094A     		ldr	r2, .L58+8
 906 001a 5A60     		str	r2, [r3, #4]
 537:./Drivers/STM32H7xx_HAL_Driver/Src/stm32h7xx_hal_flash_ex.c **** 
 538:./Drivers/STM32H7xx_HAL_Driver/Src/stm32h7xx_hal_flash_ex.c ****     /* Verify Flash Bank1 is unlocked */
 539:./Drivers/STM32H7xx_HAL_Driver/Src/stm32h7xx_hal_flash_ex.c ****     if (READ_BIT(FLASH->CR1, FLASH_CR_LOCK) != 0U)
 907              		.loc 1 539 9
 908 001c 064B     		ldr	r3, .L58
 909 001e DB68     		ldr	r3, [r3, #12]
 910 0020 03F00103 		and	r3, r3, #1
 911              		.loc 1 539 8
 912 0024 002B     		cmp	r3, #0
 913 0026 01D0     		beq	.L56
 540:./Drivers/STM32H7xx_HAL_Driver/Src/stm32h7xx_hal_flash_ex.c ****     {
 541:./Drivers/STM32H7xx_HAL_Driver/Src/stm32h7xx_hal_flash_ex.c ****       return HAL_ERROR;
 914              		.loc 1 541 14
 915 0028 0123     		movs	r3, #1
 916 002a 00E0     		b	.L57
 917              	.L56:
 542:./Drivers/STM32H7xx_HAL_Driver/Src/stm32h7xx_hal_flash_ex.c ****     }
 543:./Drivers/STM32H7xx_HAL_Driver/Src/stm32h7xx_hal_flash_ex.c ****   }
 544:./Drivers/STM32H7xx_HAL_Driver/Src/stm32h7xx_hal_flash_ex.c **** 
 545:./Drivers/STM32H7xx_HAL_Driver/Src/stm32h7xx_hal_flash_ex.c ****   return HAL_OK;
 918              		.loc 1 545 10
 919 002c 0023     		movs	r3, #0
 920              	.L57:
 546:./Drivers/STM32H7xx_HAL_Driver/Src/stm32h7xx_hal_flash_ex.c **** }
 921              		.loc 1 546 1
 922 002e 1846     		mov	r0, r3
 923 0030 BD46     		mov	sp, r7
 924              		.cfi_def_cfa_register 13
 925              		@ sp needed
 926 0032 5DF8047B 		ldr	r7, [sp], #4
 927              		.cfi_restore 7
 928              		.cfi_def_cfa_offset 0
 929 0036 7047     		bx	lr
 930              	.L59:
 931              		.align	2
 932              	.L58:
 933 0038 00200052 		.word	1375739904
 934 003c 23016745 		.word	1164378403
 935 0040 AB89EFCD 		.word	-839939669
 936              		.cfi_endproc
 937              	.LFE138:
 939              		.section	.text.HAL_FLASHEx_Lock_Bank1,"ax",%progbits
 940              		.align	1
 941              		.global	HAL_FLASHEx_Lock_Bank1
ARM GAS  /tmp/ccw511VT.s 			page 27


 942              		.syntax unified
 943              		.thumb
 944              		.thumb_func
 945              		.fpu fpv5-d16
 947              	HAL_FLASHEx_Lock_Bank1:
 948              	.LFB139:
 547:./Drivers/STM32H7xx_HAL_Driver/Src/stm32h7xx_hal_flash_ex.c **** 
 548:./Drivers/STM32H7xx_HAL_Driver/Src/stm32h7xx_hal_flash_ex.c **** /**
 549:./Drivers/STM32H7xx_HAL_Driver/Src/stm32h7xx_hal_flash_ex.c ****   * @brief  Locks the FLASH Bank1 control registers access
 550:./Drivers/STM32H7xx_HAL_Driver/Src/stm32h7xx_hal_flash_ex.c ****   * @retval HAL Status
 551:./Drivers/STM32H7xx_HAL_Driver/Src/stm32h7xx_hal_flash_ex.c ****   */
 552:./Drivers/STM32H7xx_HAL_Driver/Src/stm32h7xx_hal_flash_ex.c **** HAL_StatusTypeDef HAL_FLASHEx_Lock_Bank1(void)
 553:./Drivers/STM32H7xx_HAL_Driver/Src/stm32h7xx_hal_flash_ex.c **** {
 949              		.loc 1 553 1
 950              		.cfi_startproc
 951              		@ args = 0, pretend = 0, frame = 0
 952              		@ frame_needed = 1, uses_anonymous_args = 0
 953              		@ link register save eliminated.
 954 0000 80B4     		push	{r7}
 955              		.cfi_def_cfa_offset 4
 956              		.cfi_offset 7, -4
 957 0002 00AF     		add	r7, sp, #0
 958              		.cfi_def_cfa_register 7
 554:./Drivers/STM32H7xx_HAL_Driver/Src/stm32h7xx_hal_flash_ex.c ****   /* Set the LOCK Bit to lock the FLASH Bank1 Registers access */
 555:./Drivers/STM32H7xx_HAL_Driver/Src/stm32h7xx_hal_flash_ex.c ****   SET_BIT(FLASH->CR1, FLASH_CR_LOCK);
 959              		.loc 1 555 3
 960 0004 054B     		ldr	r3, .L62
 961 0006 DB68     		ldr	r3, [r3, #12]
 962 0008 044A     		ldr	r2, .L62
 963 000a 43F00103 		orr	r3, r3, #1
 964 000e D360     		str	r3, [r2, #12]
 556:./Drivers/STM32H7xx_HAL_Driver/Src/stm32h7xx_hal_flash_ex.c ****   return HAL_OK;
 965              		.loc 1 556 10
 966 0010 0023     		movs	r3, #0
 557:./Drivers/STM32H7xx_HAL_Driver/Src/stm32h7xx_hal_flash_ex.c **** }
 967              		.loc 1 557 1
 968 0012 1846     		mov	r0, r3
 969 0014 BD46     		mov	sp, r7
 970              		.cfi_def_cfa_register 13
 971              		@ sp needed
 972 0016 5DF8047B 		ldr	r7, [sp], #4
 973              		.cfi_restore 7
 974              		.cfi_def_cfa_offset 0
 975 001a 7047     		bx	lr
 976              	.L63:
 977              		.align	2
 978              	.L62:
 979 001c 00200052 		.word	1375739904
 980              		.cfi_endproc
 981              	.LFE139:
 983              		.section	.text.HAL_FLASHEx_Unlock_Bank2,"ax",%progbits
 984              		.align	1
 985              		.global	HAL_FLASHEx_Unlock_Bank2
 986              		.syntax unified
 987              		.thumb
 988              		.thumb_func
 989              		.fpu fpv5-d16
ARM GAS  /tmp/ccw511VT.s 			page 28


 991              	HAL_FLASHEx_Unlock_Bank2:
 992              	.LFB140:
 558:./Drivers/STM32H7xx_HAL_Driver/Src/stm32h7xx_hal_flash_ex.c **** 
 559:./Drivers/STM32H7xx_HAL_Driver/Src/stm32h7xx_hal_flash_ex.c **** /**
 560:./Drivers/STM32H7xx_HAL_Driver/Src/stm32h7xx_hal_flash_ex.c ****   * @brief  Unlock the FLASH Bank2 control registers access
 561:./Drivers/STM32H7xx_HAL_Driver/Src/stm32h7xx_hal_flash_ex.c ****   * @retval HAL Status
 562:./Drivers/STM32H7xx_HAL_Driver/Src/stm32h7xx_hal_flash_ex.c ****   */
 563:./Drivers/STM32H7xx_HAL_Driver/Src/stm32h7xx_hal_flash_ex.c **** HAL_StatusTypeDef HAL_FLASHEx_Unlock_Bank2(void)
 564:./Drivers/STM32H7xx_HAL_Driver/Src/stm32h7xx_hal_flash_ex.c **** {
 993              		.loc 1 564 1
 994              		.cfi_startproc
 995              		@ args = 0, pretend = 0, frame = 0
 996              		@ frame_needed = 1, uses_anonymous_args = 0
 997              		@ link register save eliminated.
 998 0000 80B4     		push	{r7}
 999              		.cfi_def_cfa_offset 4
 1000              		.cfi_offset 7, -4
 1001 0002 00AF     		add	r7, sp, #0
 1002              		.cfi_def_cfa_register 7
 565:./Drivers/STM32H7xx_HAL_Driver/Src/stm32h7xx_hal_flash_ex.c ****   if(READ_BIT(FLASH->CR2, FLASH_CR_LOCK) != 0U)
 1003              		.loc 1 565 6
 1004 0004 0E4B     		ldr	r3, .L67
 1005 0006 D3F80C31 		ldr	r3, [r3, #268]
 1006 000a 03F00103 		and	r3, r3, #1
 1007              		.loc 1 565 5
 1008 000e 002B     		cmp	r3, #0
 1009 0010 10D0     		beq	.L65
 566:./Drivers/STM32H7xx_HAL_Driver/Src/stm32h7xx_hal_flash_ex.c ****   {
 567:./Drivers/STM32H7xx_HAL_Driver/Src/stm32h7xx_hal_flash_ex.c ****     /* Authorize the FLASH Bank2 Registers access */
 568:./Drivers/STM32H7xx_HAL_Driver/Src/stm32h7xx_hal_flash_ex.c ****     WRITE_REG(FLASH->KEYR2, FLASH_KEY1);
 1010              		.loc 1 568 5
 1011 0012 0B4B     		ldr	r3, .L67
 1012 0014 0B4A     		ldr	r2, .L67+4
 1013 0016 C3F80421 		str	r2, [r3, #260]
 569:./Drivers/STM32H7xx_HAL_Driver/Src/stm32h7xx_hal_flash_ex.c ****     WRITE_REG(FLASH->KEYR2, FLASH_KEY2);
 1014              		.loc 1 569 5
 1015 001a 094B     		ldr	r3, .L67
 1016 001c 0A4A     		ldr	r2, .L67+8
 1017 001e C3F80421 		str	r2, [r3, #260]
 570:./Drivers/STM32H7xx_HAL_Driver/Src/stm32h7xx_hal_flash_ex.c **** 
 571:./Drivers/STM32H7xx_HAL_Driver/Src/stm32h7xx_hal_flash_ex.c ****     /* Verify Flash Bank1 is unlocked */
 572:./Drivers/STM32H7xx_HAL_Driver/Src/stm32h7xx_hal_flash_ex.c ****     if (READ_BIT(FLASH->CR2, FLASH_CR_LOCK) != 0U)
 1018              		.loc 1 572 9
 1019 0022 074B     		ldr	r3, .L67
 1020 0024 D3F80C31 		ldr	r3, [r3, #268]
 1021 0028 03F00103 		and	r3, r3, #1
 1022              		.loc 1 572 8
 1023 002c 002B     		cmp	r3, #0
 1024 002e 01D0     		beq	.L65
 573:./Drivers/STM32H7xx_HAL_Driver/Src/stm32h7xx_hal_flash_ex.c ****     {
 574:./Drivers/STM32H7xx_HAL_Driver/Src/stm32h7xx_hal_flash_ex.c ****       return HAL_ERROR;
 1025              		.loc 1 574 14
 1026 0030 0123     		movs	r3, #1
 1027 0032 00E0     		b	.L66
 1028              	.L65:
 575:./Drivers/STM32H7xx_HAL_Driver/Src/stm32h7xx_hal_flash_ex.c ****     }
 576:./Drivers/STM32H7xx_HAL_Driver/Src/stm32h7xx_hal_flash_ex.c ****   }
ARM GAS  /tmp/ccw511VT.s 			page 29


 577:./Drivers/STM32H7xx_HAL_Driver/Src/stm32h7xx_hal_flash_ex.c **** 
 578:./Drivers/STM32H7xx_HAL_Driver/Src/stm32h7xx_hal_flash_ex.c ****   return HAL_OK;
 1029              		.loc 1 578 10
 1030 0034 0023     		movs	r3, #0
 1031              	.L66:
 579:./Drivers/STM32H7xx_HAL_Driver/Src/stm32h7xx_hal_flash_ex.c **** }
 1032              		.loc 1 579 1
 1033 0036 1846     		mov	r0, r3
 1034 0038 BD46     		mov	sp, r7
 1035              		.cfi_def_cfa_register 13
 1036              		@ sp needed
 1037 003a 5DF8047B 		ldr	r7, [sp], #4
 1038              		.cfi_restore 7
 1039              		.cfi_def_cfa_offset 0
 1040 003e 7047     		bx	lr
 1041              	.L68:
 1042              		.align	2
 1043              	.L67:
 1044 0040 00200052 		.word	1375739904
 1045 0044 23016745 		.word	1164378403
 1046 0048 AB89EFCD 		.word	-839939669
 1047              		.cfi_endproc
 1048              	.LFE140:
 1050              		.section	.text.HAL_FLASHEx_Lock_Bank2,"ax",%progbits
 1051              		.align	1
 1052              		.global	HAL_FLASHEx_Lock_Bank2
 1053              		.syntax unified
 1054              		.thumb
 1055              		.thumb_func
 1056              		.fpu fpv5-d16
 1058              	HAL_FLASHEx_Lock_Bank2:
 1059              	.LFB141:
 580:./Drivers/STM32H7xx_HAL_Driver/Src/stm32h7xx_hal_flash_ex.c **** 
 581:./Drivers/STM32H7xx_HAL_Driver/Src/stm32h7xx_hal_flash_ex.c **** /**
 582:./Drivers/STM32H7xx_HAL_Driver/Src/stm32h7xx_hal_flash_ex.c ****   * @brief  Locks the FLASH Bank2 control registers access
 583:./Drivers/STM32H7xx_HAL_Driver/Src/stm32h7xx_hal_flash_ex.c ****   * @retval HAL Status
 584:./Drivers/STM32H7xx_HAL_Driver/Src/stm32h7xx_hal_flash_ex.c ****   */
 585:./Drivers/STM32H7xx_HAL_Driver/Src/stm32h7xx_hal_flash_ex.c **** HAL_StatusTypeDef HAL_FLASHEx_Lock_Bank2(void)
 586:./Drivers/STM32H7xx_HAL_Driver/Src/stm32h7xx_hal_flash_ex.c **** {
 1060              		.loc 1 586 1
 1061              		.cfi_startproc
 1062              		@ args = 0, pretend = 0, frame = 0
 1063              		@ frame_needed = 1, uses_anonymous_args = 0
 1064              		@ link register save eliminated.
 1065 0000 80B4     		push	{r7}
 1066              		.cfi_def_cfa_offset 4
 1067              		.cfi_offset 7, -4
 1068 0002 00AF     		add	r7, sp, #0
 1069              		.cfi_def_cfa_register 7
 587:./Drivers/STM32H7xx_HAL_Driver/Src/stm32h7xx_hal_flash_ex.c ****   /* Set the LOCK Bit to lock the FLASH Bank2 Registers access */
 588:./Drivers/STM32H7xx_HAL_Driver/Src/stm32h7xx_hal_flash_ex.c ****   SET_BIT(FLASH->CR2, FLASH_CR_LOCK);
 1070              		.loc 1 588 3
 1071 0004 064B     		ldr	r3, .L71
 1072 0006 D3F80C31 		ldr	r3, [r3, #268]
 1073 000a 054A     		ldr	r2, .L71
 1074 000c 43F00103 		orr	r3, r3, #1
 1075 0010 C2F80C31 		str	r3, [r2, #268]
ARM GAS  /tmp/ccw511VT.s 			page 30


 589:./Drivers/STM32H7xx_HAL_Driver/Src/stm32h7xx_hal_flash_ex.c ****   return HAL_OK;
 1076              		.loc 1 589 10
 1077 0014 0023     		movs	r3, #0
 590:./Drivers/STM32H7xx_HAL_Driver/Src/stm32h7xx_hal_flash_ex.c **** }
 1078              		.loc 1 590 1
 1079 0016 1846     		mov	r0, r3
 1080 0018 BD46     		mov	sp, r7
 1081              		.cfi_def_cfa_register 13
 1082              		@ sp needed
 1083 001a 5DF8047B 		ldr	r7, [sp], #4
 1084              		.cfi_restore 7
 1085              		.cfi_def_cfa_offset 0
 1086 001e 7047     		bx	lr
 1087              	.L72:
 1088              		.align	2
 1089              	.L71:
 1090 0020 00200052 		.word	1375739904
 1091              		.cfi_endproc
 1092              	.LFE141:
 1094              		.section	.text.HAL_FLASHEx_ComputeCRC,"ax",%progbits
 1095              		.align	1
 1096              		.global	HAL_FLASHEx_ComputeCRC
 1097              		.syntax unified
 1098              		.thumb
 1099              		.thumb_func
 1100              		.fpu fpv5-d16
 1102              	HAL_FLASHEx_ComputeCRC:
 1103              	.LFB142:
 591:./Drivers/STM32H7xx_HAL_Driver/Src/stm32h7xx_hal_flash_ex.c **** 
 592:./Drivers/STM32H7xx_HAL_Driver/Src/stm32h7xx_hal_flash_ex.c **** /*
 593:./Drivers/STM32H7xx_HAL_Driver/Src/stm32h7xx_hal_flash_ex.c ****   * @brief  Perform a CRC computation on the specified FLASH memory area
 594:./Drivers/STM32H7xx_HAL_Driver/Src/stm32h7xx_hal_flash_ex.c ****   * @param  pCRCInit pointer to an FLASH_CRCInitTypeDef structure that
 595:./Drivers/STM32H7xx_HAL_Driver/Src/stm32h7xx_hal_flash_ex.c ****   *         contains the configuration information for the CRC computation.
 596:./Drivers/STM32H7xx_HAL_Driver/Src/stm32h7xx_hal_flash_ex.c ****   * @note   CRC computation uses CRC-32 (Ethernet) polynomial 0x4C11DB7
 597:./Drivers/STM32H7xx_HAL_Driver/Src/stm32h7xx_hal_flash_ex.c ****   * @note   The application should avoid running a CRC on PCROP or secure-only
 598:./Drivers/STM32H7xx_HAL_Driver/Src/stm32h7xx_hal_flash_ex.c ****   *         user Flash memory area since it may alter the expected CRC value.
 599:./Drivers/STM32H7xx_HAL_Driver/Src/stm32h7xx_hal_flash_ex.c ****   *         A special error flag (CRC read error: CRCRDERR) can be used to
 600:./Drivers/STM32H7xx_HAL_Driver/Src/stm32h7xx_hal_flash_ex.c ****   *         detect such a case.
 601:./Drivers/STM32H7xx_HAL_Driver/Src/stm32h7xx_hal_flash_ex.c ****   * @retval HAL Status
 602:./Drivers/STM32H7xx_HAL_Driver/Src/stm32h7xx_hal_flash_ex.c **** */
 603:./Drivers/STM32H7xx_HAL_Driver/Src/stm32h7xx_hal_flash_ex.c **** HAL_StatusTypeDef HAL_FLASHEx_ComputeCRC(FLASH_CRCInitTypeDef *pCRCInit, uint32_t *CRC_Result)
 604:./Drivers/STM32H7xx_HAL_Driver/Src/stm32h7xx_hal_flash_ex.c **** {
 1104              		.loc 1 604 1
 1105              		.cfi_startproc
 1106              		@ args = 0, pretend = 0, frame = 16
 1107              		@ frame_needed = 1, uses_anonymous_args = 0
 1108 0000 80B5     		push	{r7, lr}
 1109              		.cfi_def_cfa_offset 8
 1110              		.cfi_offset 7, -8
 1111              		.cfi_offset 14, -4
 1112 0002 84B0     		sub	sp, sp, #16
 1113              		.cfi_def_cfa_offset 24
 1114 0004 00AF     		add	r7, sp, #0
 1115              		.cfi_def_cfa_register 7
 1116 0006 7860     		str	r0, [r7, #4]
 1117 0008 3960     		str	r1, [r7]
 605:./Drivers/STM32H7xx_HAL_Driver/Src/stm32h7xx_hal_flash_ex.c ****   HAL_StatusTypeDef status;
ARM GAS  /tmp/ccw511VT.s 			page 31


 606:./Drivers/STM32H7xx_HAL_Driver/Src/stm32h7xx_hal_flash_ex.c ****   uint32_t sector_index;
 607:./Drivers/STM32H7xx_HAL_Driver/Src/stm32h7xx_hal_flash_ex.c **** 
 608:./Drivers/STM32H7xx_HAL_Driver/Src/stm32h7xx_hal_flash_ex.c ****   /* Check the parameters */
 609:./Drivers/STM32H7xx_HAL_Driver/Src/stm32h7xx_hal_flash_ex.c ****   assert_param(IS_FLASH_BANK_EXCLUSIVE(pCRCInit->Bank));
 610:./Drivers/STM32H7xx_HAL_Driver/Src/stm32h7xx_hal_flash_ex.c ****   assert_param(IS_FLASH_TYPECRC(pCRCInit->TypeCRC));
 611:./Drivers/STM32H7xx_HAL_Driver/Src/stm32h7xx_hal_flash_ex.c **** 
 612:./Drivers/STM32H7xx_HAL_Driver/Src/stm32h7xx_hal_flash_ex.c ****   /* Wait for OB change operation to be completed */
 613:./Drivers/STM32H7xx_HAL_Driver/Src/stm32h7xx_hal_flash_ex.c ****   status = FLASH_OB_WaitForLastOperation((uint32_t)FLASH_TIMEOUT_VALUE);
 1118              		.loc 1 613 12
 1119 000a 4CF25030 		movw	r0, #50000
 1120 000e FFF7FEFF 		bl	FLASH_OB_WaitForLastOperation
 1121 0012 0346     		mov	r3, r0
 1122 0014 FB73     		strb	r3, [r7, #15]
 614:./Drivers/STM32H7xx_HAL_Driver/Src/stm32h7xx_hal_flash_ex.c **** 
 615:./Drivers/STM32H7xx_HAL_Driver/Src/stm32h7xx_hal_flash_ex.c ****   if (status == HAL_OK)
 1123              		.loc 1 615 6
 1124 0016 FB7B     		ldrb	r3, [r7, #15]	@ zero_extendqisi2
 1125 0018 002B     		cmp	r3, #0
 1126 001a 40F0E080 		bne	.L74
 616:./Drivers/STM32H7xx_HAL_Driver/Src/stm32h7xx_hal_flash_ex.c ****   {
 617:./Drivers/STM32H7xx_HAL_Driver/Src/stm32h7xx_hal_flash_ex.c ****     if (pCRCInit->Bank == FLASH_BANK_1)
 1127              		.loc 1 617 17
 1128 001e 7B68     		ldr	r3, [r7, #4]
 1129 0020 9B68     		ldr	r3, [r3, #8]
 1130              		.loc 1 617 8
 1131 0022 012B     		cmp	r3, #1
 1132 0024 66D1     		bne	.L75
 618:./Drivers/STM32H7xx_HAL_Driver/Src/stm32h7xx_hal_flash_ex.c ****     {
 619:./Drivers/STM32H7xx_HAL_Driver/Src/stm32h7xx_hal_flash_ex.c ****       /* Enable CRC feature */
 620:./Drivers/STM32H7xx_HAL_Driver/Src/stm32h7xx_hal_flash_ex.c ****       FLASH->CR1 |= FLASH_CR_CRC_EN;
 1133              		.loc 1 620 18
 1134 0026 704B     		ldr	r3, .L87
 1135 0028 DB68     		ldr	r3, [r3, #12]
 1136 002a 6F4A     		ldr	r2, .L87
 1137 002c 43F40043 		orr	r3, r3, #32768
 1138 0030 D360     		str	r3, [r2, #12]
 621:./Drivers/STM32H7xx_HAL_Driver/Src/stm32h7xx_hal_flash_ex.c **** 
 622:./Drivers/STM32H7xx_HAL_Driver/Src/stm32h7xx_hal_flash_ex.c ****       /* Clear CRC flags in Status Register: CRC end of calculation and CRC read error */
 623:./Drivers/STM32H7xx_HAL_Driver/Src/stm32h7xx_hal_flash_ex.c ****       FLASH->CCR1 |= (FLASH_CCR_CLR_CRCEND | FLASH_CCR_CLR_CRCRDERR);
 1139              		.loc 1 623 19
 1140 0032 6D4B     		ldr	r3, .L87
 1141 0034 5B69     		ldr	r3, [r3, #20]
 1142 0036 6C4A     		ldr	r2, .L87
 1143 0038 43F0C053 		orr	r3, r3, #402653184
 1144 003c 5361     		str	r3, [r2, #20]
 624:./Drivers/STM32H7xx_HAL_Driver/Src/stm32h7xx_hal_flash_ex.c **** 
 625:./Drivers/STM32H7xx_HAL_Driver/Src/stm32h7xx_hal_flash_ex.c ****       /* Clear current CRC result, program burst size and define memory area on which CRC has to be
 626:./Drivers/STM32H7xx_HAL_Driver/Src/stm32h7xx_hal_flash_ex.c ****       FLASH->CRCCR1 |= FLASH_CRCCR_CLEAN_CRC | pCRCInit->BurstSize | pCRCInit->TypeCRC;
 1145              		.loc 1 626 21
 1146 003e 6A4B     		ldr	r3, .L87
 1147 0040 1A6D     		ldr	r2, [r3, #80]
 1148              		.loc 1 626 56
 1149 0042 7B68     		ldr	r3, [r7, #4]
 1150 0044 5968     		ldr	r1, [r3, #4]
 1151              		.loc 1 626 78
 1152 0046 7B68     		ldr	r3, [r7, #4]
 1153 0048 1B68     		ldr	r3, [r3]
ARM GAS  /tmp/ccw511VT.s 			page 32


 1154              		.loc 1 626 68
 1155 004a 0B43     		orrs	r3, r3, r1
 1156              		.loc 1 626 21
 1157 004c 1343     		orrs	r3, r3, r2
 1158 004e 664A     		ldr	r2, .L87
 1159 0050 43F40033 		orr	r3, r3, #131072
 1160 0054 1365     		str	r3, [r2, #80]
 627:./Drivers/STM32H7xx_HAL_Driver/Src/stm32h7xx_hal_flash_ex.c **** 
 628:./Drivers/STM32H7xx_HAL_Driver/Src/stm32h7xx_hal_flash_ex.c ****       if (pCRCInit->TypeCRC == FLASH_CRC_SECTORS)
 1161              		.loc 1 628 19
 1162 0056 7B68     		ldr	r3, [r7, #4]
 1163 0058 1B68     		ldr	r3, [r3]
 1164              		.loc 1 628 10
 1165 005a B3F5807F 		cmp	r3, #256
 1166 005e 19D1     		bne	.L76
 629:./Drivers/STM32H7xx_HAL_Driver/Src/stm32h7xx_hal_flash_ex.c ****       {
 630:./Drivers/STM32H7xx_HAL_Driver/Src/stm32h7xx_hal_flash_ex.c ****         /* Clear sectors list */
 631:./Drivers/STM32H7xx_HAL_Driver/Src/stm32h7xx_hal_flash_ex.c ****         FLASH->CRCCR1 |= FLASH_CRCCR_CLEAN_SECT;
 1167              		.loc 1 631 23
 1168 0060 614B     		ldr	r3, .L87
 1169 0062 1B6D     		ldr	r3, [r3, #80]
 1170 0064 604A     		ldr	r2, .L87
 1171 0066 43F48063 		orr	r3, r3, #1024
 1172 006a 1365     		str	r3, [r2, #80]
 632:./Drivers/STM32H7xx_HAL_Driver/Src/stm32h7xx_hal_flash_ex.c **** 
 633:./Drivers/STM32H7xx_HAL_Driver/Src/stm32h7xx_hal_flash_ex.c ****         /* Select CRC sectors */
 634:./Drivers/STM32H7xx_HAL_Driver/Src/stm32h7xx_hal_flash_ex.c ****         for(sector_index = pCRCInit->Sector; sector_index < (pCRCInit->NbSectors + pCRCInit->Sector
 1173              		.loc 1 634 26
 1174 006c 7B68     		ldr	r3, [r7, #4]
 1175 006e DB68     		ldr	r3, [r3, #12]
 1176 0070 BB60     		str	r3, [r7, #8]
 1177              		.loc 1 634 9
 1178 0072 06E0     		b	.L77
 1179              	.L78:
 635:./Drivers/STM32H7xx_HAL_Driver/Src/stm32h7xx_hal_flash_ex.c ****         {
 636:./Drivers/STM32H7xx_HAL_Driver/Src/stm32h7xx_hal_flash_ex.c ****           FLASH_CRC_AddSector(sector_index, FLASH_BANK_1);
 1180              		.loc 1 636 11 discriminator 3
 1181 0074 0121     		movs	r1, #1
 1182 0076 B868     		ldr	r0, [r7, #8]
 1183 0078 FFF7FEFF 		bl	FLASH_CRC_AddSector
 634:./Drivers/STM32H7xx_HAL_Driver/Src/stm32h7xx_hal_flash_ex.c ****         {
 1184              		.loc 1 634 115 discriminator 3
 1185 007c BB68     		ldr	r3, [r7, #8]
 1186 007e 0133     		adds	r3, r3, #1
 1187 0080 BB60     		str	r3, [r7, #8]
 1188              	.L77:
 634:./Drivers/STM32H7xx_HAL_Driver/Src/stm32h7xx_hal_flash_ex.c ****         {
 1189              		.loc 1 634 70 discriminator 1
 1190 0082 7B68     		ldr	r3, [r7, #4]
 1191 0084 1A69     		ldr	r2, [r3, #16]
 634:./Drivers/STM32H7xx_HAL_Driver/Src/stm32h7xx_hal_flash_ex.c ****         {
 1192              		.loc 1 634 92 discriminator 1
 1193 0086 7B68     		ldr	r3, [r7, #4]
 1194 0088 DB68     		ldr	r3, [r3, #12]
 634:./Drivers/STM32H7xx_HAL_Driver/Src/stm32h7xx_hal_flash_ex.c ****         {
 1195              		.loc 1 634 82 discriminator 1
 1196 008a 1344     		add	r3, r3, r2
ARM GAS  /tmp/ccw511VT.s 			page 33


 634:./Drivers/STM32H7xx_HAL_Driver/Src/stm32h7xx_hal_flash_ex.c ****         {
 1197              		.loc 1 634 9 discriminator 1
 1198 008c BA68     		ldr	r2, [r7, #8]
 1199 008e 9A42     		cmp	r2, r3
 1200 0090 F0D3     		bcc	.L78
 1201 0092 13E0     		b	.L79
 1202              	.L76:
 637:./Drivers/STM32H7xx_HAL_Driver/Src/stm32h7xx_hal_flash_ex.c ****         }
 638:./Drivers/STM32H7xx_HAL_Driver/Src/stm32h7xx_hal_flash_ex.c ****       }
 639:./Drivers/STM32H7xx_HAL_Driver/Src/stm32h7xx_hal_flash_ex.c ****       else if (pCRCInit->TypeCRC == FLASH_CRC_BANK)
 1203              		.loc 1 639 24
 1204 0094 7B68     		ldr	r3, [r7, #4]
 1205 0096 1B68     		ldr	r3, [r3]
 1206              		.loc 1 639 15
 1207 0098 544A     		ldr	r2, .L87+4
 1208 009a 9342     		cmp	r3, r2
 1209 009c 06D1     		bne	.L80
 640:./Drivers/STM32H7xx_HAL_Driver/Src/stm32h7xx_hal_flash_ex.c ****       {
 641:./Drivers/STM32H7xx_HAL_Driver/Src/stm32h7xx_hal_flash_ex.c ****         /* Enable Bank 1 CRC select bit */
 642:./Drivers/STM32H7xx_HAL_Driver/Src/stm32h7xx_hal_flash_ex.c ****         FLASH->CRCCR1 |= FLASH_CRCCR_ALL_BANK;
 1210              		.loc 1 642 23
 1211 009e 524B     		ldr	r3, .L87
 1212 00a0 1B6D     		ldr	r3, [r3, #80]
 1213 00a2 514A     		ldr	r2, .L87
 1214 00a4 43F48003 		orr	r3, r3, #4194304
 1215 00a8 1365     		str	r3, [r2, #80]
 1216 00aa 07E0     		b	.L79
 1217              	.L80:
 643:./Drivers/STM32H7xx_HAL_Driver/Src/stm32h7xx_hal_flash_ex.c ****       }
 644:./Drivers/STM32H7xx_HAL_Driver/Src/stm32h7xx_hal_flash_ex.c ****       else
 645:./Drivers/STM32H7xx_HAL_Driver/Src/stm32h7xx_hal_flash_ex.c ****       {
 646:./Drivers/STM32H7xx_HAL_Driver/Src/stm32h7xx_hal_flash_ex.c ****         /* Select CRC start and end addresses */
 647:./Drivers/STM32H7xx_HAL_Driver/Src/stm32h7xx_hal_flash_ex.c ****         FLASH_CRC_SelectAddress(pCRCInit->CRCStartAddr, pCRCInit->CRCEndAddr, FLASH_BANK_1);
 1218              		.loc 1 647 9
 1219 00ac 7B68     		ldr	r3, [r7, #4]
 1220 00ae 5869     		ldr	r0, [r3, #20]
 1221 00b0 7B68     		ldr	r3, [r7, #4]
 1222 00b2 9B69     		ldr	r3, [r3, #24]
 1223 00b4 0122     		movs	r2, #1
 1224 00b6 1946     		mov	r1, r3
 1225 00b8 FFF7FEFF 		bl	FLASH_CRC_SelectAddress
 1226              	.L79:
 648:./Drivers/STM32H7xx_HAL_Driver/Src/stm32h7xx_hal_flash_ex.c ****       }
 649:./Drivers/STM32H7xx_HAL_Driver/Src/stm32h7xx_hal_flash_ex.c **** 
 650:./Drivers/STM32H7xx_HAL_Driver/Src/stm32h7xx_hal_flash_ex.c ****       /* Start the CRC calculation */
 651:./Drivers/STM32H7xx_HAL_Driver/Src/stm32h7xx_hal_flash_ex.c ****       FLASH->CRCCR1 |= FLASH_CRCCR_START_CRC;
 1227              		.loc 1 651 21
 1228 00bc 4A4B     		ldr	r3, .L87
 1229 00be 1B6D     		ldr	r3, [r3, #80]
 1230 00c0 494A     		ldr	r2, .L87
 1231 00c2 43F48033 		orr	r3, r3, #65536
 1232 00c6 1365     		str	r3, [r2, #80]
 652:./Drivers/STM32H7xx_HAL_Driver/Src/stm32h7xx_hal_flash_ex.c **** 
 653:./Drivers/STM32H7xx_HAL_Driver/Src/stm32h7xx_hal_flash_ex.c ****       /* Wait on CRC busy flag */
 654:./Drivers/STM32H7xx_HAL_Driver/Src/stm32h7xx_hal_flash_ex.c ****       status = FLASH_CRC_WaitForLastOperation((uint32_t)FLASH_TIMEOUT_VALUE, FLASH_BANK_1);
 1233              		.loc 1 654 16
 1234 00c8 0121     		movs	r1, #1
ARM GAS  /tmp/ccw511VT.s 			page 34


 1235 00ca 4CF25030 		movw	r0, #50000
 1236 00ce FFF7FEFF 		bl	FLASH_CRC_WaitForLastOperation
 1237 00d2 0346     		mov	r3, r0
 1238 00d4 FB73     		strb	r3, [r7, #15]
 655:./Drivers/STM32H7xx_HAL_Driver/Src/stm32h7xx_hal_flash_ex.c **** 
 656:./Drivers/STM32H7xx_HAL_Driver/Src/stm32h7xx_hal_flash_ex.c ****       /* Return CRC result */
 657:./Drivers/STM32H7xx_HAL_Driver/Src/stm32h7xx_hal_flash_ex.c ****       (*CRC_Result) = FLASH->CRCDATA;
 1239              		.loc 1 657 28
 1240 00d6 444B     		ldr	r3, .L87
 1241 00d8 DA6D     		ldr	r2, [r3, #92]
 1242              		.loc 1 657 21
 1243 00da 3B68     		ldr	r3, [r7]
 1244 00dc 1A60     		str	r2, [r3]
 658:./Drivers/STM32H7xx_HAL_Driver/Src/stm32h7xx_hal_flash_ex.c **** 
 659:./Drivers/STM32H7xx_HAL_Driver/Src/stm32h7xx_hal_flash_ex.c ****       /* Disable CRC feature */
 660:./Drivers/STM32H7xx_HAL_Driver/Src/stm32h7xx_hal_flash_ex.c ****       FLASH->CR1 &= (~FLASH_CR_CRC_EN);
 1245              		.loc 1 660 18
 1246 00de 424B     		ldr	r3, .L87
 1247 00e0 DB68     		ldr	r3, [r3, #12]
 1248 00e2 414A     		ldr	r2, .L87
 1249 00e4 23F40043 		bic	r3, r3, #32768
 1250 00e8 D360     		str	r3, [r2, #12]
 661:./Drivers/STM32H7xx_HAL_Driver/Src/stm32h7xx_hal_flash_ex.c **** 
 662:./Drivers/STM32H7xx_HAL_Driver/Src/stm32h7xx_hal_flash_ex.c ****       /* Clear CRC flags */
 663:./Drivers/STM32H7xx_HAL_Driver/Src/stm32h7xx_hal_flash_ex.c ****       __HAL_FLASH_CLEAR_FLAG_BANK1(FLASH_FLAG_CRCEND_BANK1 | FLASH_FLAG_CRCRDERR_BANK1);
 1251              		.loc 1 663 7
 1252 00ea 3F4B     		ldr	r3, .L87
 1253 00ec 4FF0C052 		mov	r2, #402653184
 1254 00f0 5A61     		str	r2, [r3, #20]
 1255 00f2 74E0     		b	.L74
 1256              	.L75:
 664:./Drivers/STM32H7xx_HAL_Driver/Src/stm32h7xx_hal_flash_ex.c ****     }
 665:./Drivers/STM32H7xx_HAL_Driver/Src/stm32h7xx_hal_flash_ex.c ****     else
 666:./Drivers/STM32H7xx_HAL_Driver/Src/stm32h7xx_hal_flash_ex.c ****     {
 667:./Drivers/STM32H7xx_HAL_Driver/Src/stm32h7xx_hal_flash_ex.c ****       /* Enable CRC feature */
 668:./Drivers/STM32H7xx_HAL_Driver/Src/stm32h7xx_hal_flash_ex.c ****       FLASH->CR2 |= FLASH_CR_CRC_EN;
 1257              		.loc 1 668 18
 1258 00f4 3C4B     		ldr	r3, .L87
 1259 00f6 D3F80C31 		ldr	r3, [r3, #268]
 1260 00fa 3B4A     		ldr	r2, .L87
 1261 00fc 43F40043 		orr	r3, r3, #32768
 1262 0100 C2F80C31 		str	r3, [r2, #268]
 669:./Drivers/STM32H7xx_HAL_Driver/Src/stm32h7xx_hal_flash_ex.c **** 
 670:./Drivers/STM32H7xx_HAL_Driver/Src/stm32h7xx_hal_flash_ex.c ****       /* Clear CRC flags in Status Register: CRC end of calculation and CRC read error */
 671:./Drivers/STM32H7xx_HAL_Driver/Src/stm32h7xx_hal_flash_ex.c ****       FLASH->CCR2 |= (FLASH_CCR_CLR_CRCEND | FLASH_CCR_CLR_CRCRDERR);
 1263              		.loc 1 671 19
 1264 0104 384B     		ldr	r3, .L87
 1265 0106 D3F81431 		ldr	r3, [r3, #276]
 1266 010a 374A     		ldr	r2, .L87
 1267 010c 43F0C053 		orr	r3, r3, #402653184
 1268 0110 C2F81431 		str	r3, [r2, #276]
 672:./Drivers/STM32H7xx_HAL_Driver/Src/stm32h7xx_hal_flash_ex.c **** 
 673:./Drivers/STM32H7xx_HAL_Driver/Src/stm32h7xx_hal_flash_ex.c ****       /* Clear current CRC result, program burst size and define memory area on which CRC has to be
 674:./Drivers/STM32H7xx_HAL_Driver/Src/stm32h7xx_hal_flash_ex.c ****       FLASH->CRCCR2 |= FLASH_CRCCR_CLEAN_CRC | pCRCInit->BurstSize | pCRCInit->TypeCRC;
 1269              		.loc 1 674 21
 1270 0114 344B     		ldr	r3, .L87
 1271 0116 D3F85021 		ldr	r2, [r3, #336]
ARM GAS  /tmp/ccw511VT.s 			page 35


 1272              		.loc 1 674 56
 1273 011a 7B68     		ldr	r3, [r7, #4]
 1274 011c 5968     		ldr	r1, [r3, #4]
 1275              		.loc 1 674 78
 1276 011e 7B68     		ldr	r3, [r7, #4]
 1277 0120 1B68     		ldr	r3, [r3]
 1278              		.loc 1 674 68
 1279 0122 0B43     		orrs	r3, r3, r1
 1280              		.loc 1 674 21
 1281 0124 1343     		orrs	r3, r3, r2
 1282 0126 304A     		ldr	r2, .L87
 1283 0128 43F40033 		orr	r3, r3, #131072
 1284 012c C2F85031 		str	r3, [r2, #336]
 675:./Drivers/STM32H7xx_HAL_Driver/Src/stm32h7xx_hal_flash_ex.c **** 
 676:./Drivers/STM32H7xx_HAL_Driver/Src/stm32h7xx_hal_flash_ex.c ****       if (pCRCInit->TypeCRC == FLASH_CRC_SECTORS)
 1285              		.loc 1 676 19
 1286 0130 7B68     		ldr	r3, [r7, #4]
 1287 0132 1B68     		ldr	r3, [r3]
 1288              		.loc 1 676 10
 1289 0134 B3F5807F 		cmp	r3, #256
 1290 0138 1BD1     		bne	.L81
 677:./Drivers/STM32H7xx_HAL_Driver/Src/stm32h7xx_hal_flash_ex.c ****       {
 678:./Drivers/STM32H7xx_HAL_Driver/Src/stm32h7xx_hal_flash_ex.c ****         /* Clear sectors list */
 679:./Drivers/STM32H7xx_HAL_Driver/Src/stm32h7xx_hal_flash_ex.c ****         FLASH->CRCCR2 |= FLASH_CRCCR_CLEAN_SECT;
 1291              		.loc 1 679 23
 1292 013a 2B4B     		ldr	r3, .L87
 1293 013c D3F85031 		ldr	r3, [r3, #336]
 1294 0140 294A     		ldr	r2, .L87
 1295 0142 43F48063 		orr	r3, r3, #1024
 1296 0146 C2F85031 		str	r3, [r2, #336]
 680:./Drivers/STM32H7xx_HAL_Driver/Src/stm32h7xx_hal_flash_ex.c **** 
 681:./Drivers/STM32H7xx_HAL_Driver/Src/stm32h7xx_hal_flash_ex.c ****         /* Add CRC sectors */
 682:./Drivers/STM32H7xx_HAL_Driver/Src/stm32h7xx_hal_flash_ex.c ****         for(sector_index = pCRCInit->Sector; sector_index < (pCRCInit->NbSectors + pCRCInit->Sector
 1297              		.loc 1 682 26
 1298 014a 7B68     		ldr	r3, [r7, #4]
 1299 014c DB68     		ldr	r3, [r3, #12]
 1300 014e BB60     		str	r3, [r7, #8]
 1301              		.loc 1 682 9
 1302 0150 06E0     		b	.L82
 1303              	.L83:
 683:./Drivers/STM32H7xx_HAL_Driver/Src/stm32h7xx_hal_flash_ex.c ****         {
 684:./Drivers/STM32H7xx_HAL_Driver/Src/stm32h7xx_hal_flash_ex.c ****           FLASH_CRC_AddSector(sector_index, FLASH_BANK_2);
 1304              		.loc 1 684 11 discriminator 3
 1305 0152 0221     		movs	r1, #2
 1306 0154 B868     		ldr	r0, [r7, #8]
 1307 0156 FFF7FEFF 		bl	FLASH_CRC_AddSector
 682:./Drivers/STM32H7xx_HAL_Driver/Src/stm32h7xx_hal_flash_ex.c ****         {
 1308              		.loc 1 682 115 discriminator 3
 1309 015a BB68     		ldr	r3, [r7, #8]
 1310 015c 0133     		adds	r3, r3, #1
 1311 015e BB60     		str	r3, [r7, #8]
 1312              	.L82:
 682:./Drivers/STM32H7xx_HAL_Driver/Src/stm32h7xx_hal_flash_ex.c ****         {
 1313              		.loc 1 682 70 discriminator 1
 1314 0160 7B68     		ldr	r3, [r7, #4]
 1315 0162 1A69     		ldr	r2, [r3, #16]
 682:./Drivers/STM32H7xx_HAL_Driver/Src/stm32h7xx_hal_flash_ex.c ****         {
ARM GAS  /tmp/ccw511VT.s 			page 36


 1316              		.loc 1 682 92 discriminator 1
 1317 0164 7B68     		ldr	r3, [r7, #4]
 1318 0166 DB68     		ldr	r3, [r3, #12]
 682:./Drivers/STM32H7xx_HAL_Driver/Src/stm32h7xx_hal_flash_ex.c ****         {
 1319              		.loc 1 682 82 discriminator 1
 1320 0168 1344     		add	r3, r3, r2
 682:./Drivers/STM32H7xx_HAL_Driver/Src/stm32h7xx_hal_flash_ex.c ****         {
 1321              		.loc 1 682 9 discriminator 1
 1322 016a BA68     		ldr	r2, [r7, #8]
 1323 016c 9A42     		cmp	r2, r3
 1324 016e F0D3     		bcc	.L83
 1325 0170 15E0     		b	.L84
 1326              	.L81:
 685:./Drivers/STM32H7xx_HAL_Driver/Src/stm32h7xx_hal_flash_ex.c ****         }
 686:./Drivers/STM32H7xx_HAL_Driver/Src/stm32h7xx_hal_flash_ex.c ****       }
 687:./Drivers/STM32H7xx_HAL_Driver/Src/stm32h7xx_hal_flash_ex.c ****       else if (pCRCInit->TypeCRC == FLASH_CRC_BANK)
 1327              		.loc 1 687 24
 1328 0172 7B68     		ldr	r3, [r7, #4]
 1329 0174 1B68     		ldr	r3, [r3]
 1330              		.loc 1 687 15
 1331 0176 1D4A     		ldr	r2, .L87+4
 1332 0178 9342     		cmp	r3, r2
 1333 017a 08D1     		bne	.L85
 688:./Drivers/STM32H7xx_HAL_Driver/Src/stm32h7xx_hal_flash_ex.c ****       {
 689:./Drivers/STM32H7xx_HAL_Driver/Src/stm32h7xx_hal_flash_ex.c ****         /* Enable Bank 2 CRC select bit */
 690:./Drivers/STM32H7xx_HAL_Driver/Src/stm32h7xx_hal_flash_ex.c ****         FLASH->CRCCR2 |= FLASH_CRCCR_ALL_BANK;
 1334              		.loc 1 690 23
 1335 017c 1A4B     		ldr	r3, .L87
 1336 017e D3F85031 		ldr	r3, [r3, #336]
 1337 0182 194A     		ldr	r2, .L87
 1338 0184 43F48003 		orr	r3, r3, #4194304
 1339 0188 C2F85031 		str	r3, [r2, #336]
 1340 018c 07E0     		b	.L84
 1341              	.L85:
 691:./Drivers/STM32H7xx_HAL_Driver/Src/stm32h7xx_hal_flash_ex.c ****       }
 692:./Drivers/STM32H7xx_HAL_Driver/Src/stm32h7xx_hal_flash_ex.c ****       else
 693:./Drivers/STM32H7xx_HAL_Driver/Src/stm32h7xx_hal_flash_ex.c ****       {
 694:./Drivers/STM32H7xx_HAL_Driver/Src/stm32h7xx_hal_flash_ex.c ****         /* Select CRC start and end addresses */
 695:./Drivers/STM32H7xx_HAL_Driver/Src/stm32h7xx_hal_flash_ex.c ****         FLASH_CRC_SelectAddress(pCRCInit->CRCStartAddr, pCRCInit->CRCEndAddr, FLASH_BANK_2);
 1342              		.loc 1 695 9
 1343 018e 7B68     		ldr	r3, [r7, #4]
 1344 0190 5869     		ldr	r0, [r3, #20]
 1345 0192 7B68     		ldr	r3, [r7, #4]
 1346 0194 9B69     		ldr	r3, [r3, #24]
 1347 0196 0222     		movs	r2, #2
 1348 0198 1946     		mov	r1, r3
 1349 019a FFF7FEFF 		bl	FLASH_CRC_SelectAddress
 1350              	.L84:
 696:./Drivers/STM32H7xx_HAL_Driver/Src/stm32h7xx_hal_flash_ex.c ****       }
 697:./Drivers/STM32H7xx_HAL_Driver/Src/stm32h7xx_hal_flash_ex.c **** 
 698:./Drivers/STM32H7xx_HAL_Driver/Src/stm32h7xx_hal_flash_ex.c ****       /* Start the CRC calculation */
 699:./Drivers/STM32H7xx_HAL_Driver/Src/stm32h7xx_hal_flash_ex.c ****       FLASH->CRCCR2 |= FLASH_CRCCR_START_CRC;
 1351              		.loc 1 699 21
 1352 019e 124B     		ldr	r3, .L87
 1353 01a0 D3F85031 		ldr	r3, [r3, #336]
 1354 01a4 104A     		ldr	r2, .L87
 1355 01a6 43F48033 		orr	r3, r3, #65536
ARM GAS  /tmp/ccw511VT.s 			page 37


 1356 01aa C2F85031 		str	r3, [r2, #336]
 700:./Drivers/STM32H7xx_HAL_Driver/Src/stm32h7xx_hal_flash_ex.c **** 
 701:./Drivers/STM32H7xx_HAL_Driver/Src/stm32h7xx_hal_flash_ex.c ****       /* Wait on CRC busy flag */
 702:./Drivers/STM32H7xx_HAL_Driver/Src/stm32h7xx_hal_flash_ex.c ****       status = FLASH_CRC_WaitForLastOperation((uint32_t)FLASH_TIMEOUT_VALUE, FLASH_BANK_2);
 1357              		.loc 1 702 16
 1358 01ae 0221     		movs	r1, #2
 1359 01b0 4CF25030 		movw	r0, #50000
 1360 01b4 FFF7FEFF 		bl	FLASH_CRC_WaitForLastOperation
 1361 01b8 0346     		mov	r3, r0
 1362 01ba FB73     		strb	r3, [r7, #15]
 703:./Drivers/STM32H7xx_HAL_Driver/Src/stm32h7xx_hal_flash_ex.c **** 
 704:./Drivers/STM32H7xx_HAL_Driver/Src/stm32h7xx_hal_flash_ex.c ****       /* Return CRC result */
 705:./Drivers/STM32H7xx_HAL_Driver/Src/stm32h7xx_hal_flash_ex.c ****       (*CRC_Result) = FLASH->CRCDATA;
 1363              		.loc 1 705 28
 1364 01bc 0A4B     		ldr	r3, .L87
 1365 01be DA6D     		ldr	r2, [r3, #92]
 1366              		.loc 1 705 21
 1367 01c0 3B68     		ldr	r3, [r7]
 1368 01c2 1A60     		str	r2, [r3]
 706:./Drivers/STM32H7xx_HAL_Driver/Src/stm32h7xx_hal_flash_ex.c **** 
 707:./Drivers/STM32H7xx_HAL_Driver/Src/stm32h7xx_hal_flash_ex.c ****       /* Disable CRC feature */
 708:./Drivers/STM32H7xx_HAL_Driver/Src/stm32h7xx_hal_flash_ex.c ****       FLASH->CR2 &= (~FLASH_CR_CRC_EN);
 1369              		.loc 1 708 18
 1370 01c4 084B     		ldr	r3, .L87
 1371 01c6 D3F80C31 		ldr	r3, [r3, #268]
 1372 01ca 074A     		ldr	r2, .L87
 1373 01cc 23F40043 		bic	r3, r3, #32768
 1374 01d0 C2F80C31 		str	r3, [r2, #268]
 709:./Drivers/STM32H7xx_HAL_Driver/Src/stm32h7xx_hal_flash_ex.c **** 
 710:./Drivers/STM32H7xx_HAL_Driver/Src/stm32h7xx_hal_flash_ex.c ****       /* Clear CRC flags */
 711:./Drivers/STM32H7xx_HAL_Driver/Src/stm32h7xx_hal_flash_ex.c ****       __HAL_FLASH_CLEAR_FLAG_BANK2(FLASH_FLAG_CRCEND_BANK2 | FLASH_FLAG_CRCRDERR_BANK2);
 1375              		.loc 1 711 7
 1376 01d4 044B     		ldr	r3, .L87
 1377 01d6 4FF0C052 		mov	r2, #402653184
 1378 01da C3F81421 		str	r2, [r3, #276]
 1379              	.L74:
 712:./Drivers/STM32H7xx_HAL_Driver/Src/stm32h7xx_hal_flash_ex.c ****     }
 713:./Drivers/STM32H7xx_HAL_Driver/Src/stm32h7xx_hal_flash_ex.c ****   }
 714:./Drivers/STM32H7xx_HAL_Driver/Src/stm32h7xx_hal_flash_ex.c **** 
 715:./Drivers/STM32H7xx_HAL_Driver/Src/stm32h7xx_hal_flash_ex.c ****   return status;
 1380              		.loc 1 715 10
 1381 01de FB7B     		ldrb	r3, [r7, #15]	@ zero_extendqisi2
 716:./Drivers/STM32H7xx_HAL_Driver/Src/stm32h7xx_hal_flash_ex.c **** }
 1382              		.loc 1 716 1
 1383 01e0 1846     		mov	r0, r3
 1384 01e2 1037     		adds	r7, r7, #16
 1385              		.cfi_def_cfa_offset 8
 1386 01e4 BD46     		mov	sp, r7
 1387              		.cfi_def_cfa_register 13
 1388              		@ sp needed
 1389 01e6 80BD     		pop	{r7, pc}
 1390              	.L88:
 1391              		.align	2
 1392              	.L87:
 1393 01e8 00200052 		.word	1375739904
 1394 01ec 00014000 		.word	4194560
 1395              		.cfi_endproc
ARM GAS  /tmp/ccw511VT.s 			page 38


 1396              	.LFE142:
 1398              		.section	.text.FLASH_MassErase,"ax",%progbits
 1399              		.align	1
 1400              		.syntax unified
 1401              		.thumb
 1402              		.thumb_func
 1403              		.fpu fpv5-d16
 1405              	FLASH_MassErase:
 1406              	.LFB143:
 717:./Drivers/STM32H7xx_HAL_Driver/Src/stm32h7xx_hal_flash_ex.c **** 
 718:./Drivers/STM32H7xx_HAL_Driver/Src/stm32h7xx_hal_flash_ex.c **** /**
 719:./Drivers/STM32H7xx_HAL_Driver/Src/stm32h7xx_hal_flash_ex.c ****   * @}
 720:./Drivers/STM32H7xx_HAL_Driver/Src/stm32h7xx_hal_flash_ex.c ****   */
 721:./Drivers/STM32H7xx_HAL_Driver/Src/stm32h7xx_hal_flash_ex.c **** 
 722:./Drivers/STM32H7xx_HAL_Driver/Src/stm32h7xx_hal_flash_ex.c **** /**
 723:./Drivers/STM32H7xx_HAL_Driver/Src/stm32h7xx_hal_flash_ex.c ****   * @}
 724:./Drivers/STM32H7xx_HAL_Driver/Src/stm32h7xx_hal_flash_ex.c ****   */
 725:./Drivers/STM32H7xx_HAL_Driver/Src/stm32h7xx_hal_flash_ex.c **** 
 726:./Drivers/STM32H7xx_HAL_Driver/Src/stm32h7xx_hal_flash_ex.c **** /* Private functions ---------------------------------------------------------*/
 727:./Drivers/STM32H7xx_HAL_Driver/Src/stm32h7xx_hal_flash_ex.c **** 
 728:./Drivers/STM32H7xx_HAL_Driver/Src/stm32h7xx_hal_flash_ex.c **** /** @addtogroup FLASHEx_Private_Functions
 729:./Drivers/STM32H7xx_HAL_Driver/Src/stm32h7xx_hal_flash_ex.c ****   * @{
 730:./Drivers/STM32H7xx_HAL_Driver/Src/stm32h7xx_hal_flash_ex.c ****   */
 731:./Drivers/STM32H7xx_HAL_Driver/Src/stm32h7xx_hal_flash_ex.c **** 
 732:./Drivers/STM32H7xx_HAL_Driver/Src/stm32h7xx_hal_flash_ex.c **** /**
 733:./Drivers/STM32H7xx_HAL_Driver/Src/stm32h7xx_hal_flash_ex.c ****   * @brief  Mass erase of FLASH memory
 734:./Drivers/STM32H7xx_HAL_Driver/Src/stm32h7xx_hal_flash_ex.c ****   * @param  VoltageRange The device program/erase parallelism.
 735:./Drivers/STM32H7xx_HAL_Driver/Src/stm32h7xx_hal_flash_ex.c ****   *          This parameter can be one of the following values:
 736:./Drivers/STM32H7xx_HAL_Driver/Src/stm32h7xx_hal_flash_ex.c ****   *            @arg FLASH_VOLTAGE_RANGE_1 : Flash program/erase by 8 bits
 737:./Drivers/STM32H7xx_HAL_Driver/Src/stm32h7xx_hal_flash_ex.c ****   *            @arg FLASH_VOLTAGE_RANGE_2 : Flash program/erase by 16 bits
 738:./Drivers/STM32H7xx_HAL_Driver/Src/stm32h7xx_hal_flash_ex.c ****   *            @arg FLASH_VOLTAGE_RANGE_3 : Flash program/erase by 32 bits
 739:./Drivers/STM32H7xx_HAL_Driver/Src/stm32h7xx_hal_flash_ex.c ****   *            @arg FLASH_VOLTAGE_RANGE_4 : Flash program/erase by 64 bits
 740:./Drivers/STM32H7xx_HAL_Driver/Src/stm32h7xx_hal_flash_ex.c ****   *
 741:./Drivers/STM32H7xx_HAL_Driver/Src/stm32h7xx_hal_flash_ex.c ****   * @param  Banks Banks to be erased
 742:./Drivers/STM32H7xx_HAL_Driver/Src/stm32h7xx_hal_flash_ex.c ****   *          This parameter can be one of the following values:
 743:./Drivers/STM32H7xx_HAL_Driver/Src/stm32h7xx_hal_flash_ex.c ****   *            @arg FLASH_BANK_1: Bank1 to be erased
 744:./Drivers/STM32H7xx_HAL_Driver/Src/stm32h7xx_hal_flash_ex.c ****   *            @arg FLASH_BANK_2: Bank2 to be erased
 745:./Drivers/STM32H7xx_HAL_Driver/Src/stm32h7xx_hal_flash_ex.c ****   *            @arg FLASH_BANK_BOTH: Bank1 and Bank2 to be erased
 746:./Drivers/STM32H7xx_HAL_Driver/Src/stm32h7xx_hal_flash_ex.c ****   *
 747:./Drivers/STM32H7xx_HAL_Driver/Src/stm32h7xx_hal_flash_ex.c ****   * @retval HAL Status
 748:./Drivers/STM32H7xx_HAL_Driver/Src/stm32h7xx_hal_flash_ex.c ****   */
 749:./Drivers/STM32H7xx_HAL_Driver/Src/stm32h7xx_hal_flash_ex.c **** static void FLASH_MassErase(uint32_t VoltageRange, uint32_t Banks)
 750:./Drivers/STM32H7xx_HAL_Driver/Src/stm32h7xx_hal_flash_ex.c **** {
 1407              		.loc 1 750 1
 1408              		.cfi_startproc
 1409              		@ args = 0, pretend = 0, frame = 8
 1410              		@ frame_needed = 1, uses_anonymous_args = 0
 1411              		@ link register save eliminated.
 1412 0000 80B4     		push	{r7}
 1413              		.cfi_def_cfa_offset 4
 1414              		.cfi_offset 7, -4
 1415 0002 83B0     		sub	sp, sp, #12
 1416              		.cfi_def_cfa_offset 16
 1417 0004 00AF     		add	r7, sp, #0
 1418              		.cfi_def_cfa_register 7
 1419 0006 7860     		str	r0, [r7, #4]
 1420 0008 3960     		str	r1, [r7]
ARM GAS  /tmp/ccw511VT.s 			page 39


 751:./Drivers/STM32H7xx_HAL_Driver/Src/stm32h7xx_hal_flash_ex.c ****   /* Check the parameters */
 752:./Drivers/STM32H7xx_HAL_Driver/Src/stm32h7xx_hal_flash_ex.c ****   assert_param(IS_VOLTAGERANGE(VoltageRange));
 753:./Drivers/STM32H7xx_HAL_Driver/Src/stm32h7xx_hal_flash_ex.c ****   assert_param(IS_FLASH_BANK(Banks));
 754:./Drivers/STM32H7xx_HAL_Driver/Src/stm32h7xx_hal_flash_ex.c **** 
 755:./Drivers/STM32H7xx_HAL_Driver/Src/stm32h7xx_hal_flash_ex.c ****   /* Flash Mass Erase */
 756:./Drivers/STM32H7xx_HAL_Driver/Src/stm32h7xx_hal_flash_ex.c ****   if((Banks & FLASH_BANK_BOTH) == FLASH_BANK_BOTH)
 1421              		.loc 1 756 13
 1422 000a 3B68     		ldr	r3, [r7]
 1423 000c 03F00303 		and	r3, r3, #3
 1424              		.loc 1 756 5
 1425 0010 032B     		cmp	r3, #3
 1426 0012 22D1     		bne	.L90
 757:./Drivers/STM32H7xx_HAL_Driver/Src/stm32h7xx_hal_flash_ex.c ****   {
 758:./Drivers/STM32H7xx_HAL_Driver/Src/stm32h7xx_hal_flash_ex.c ****     /* Reset Program/erase VoltageRange for Bank1 and Bank2 */
 759:./Drivers/STM32H7xx_HAL_Driver/Src/stm32h7xx_hal_flash_ex.c ****     FLASH->CR1 &= (~FLASH_CR_PSIZE);
 1427              		.loc 1 759 16
 1428 0014 304B     		ldr	r3, .L94
 1429 0016 DB68     		ldr	r3, [r3, #12]
 1430 0018 2F4A     		ldr	r2, .L94
 1431 001a 23F03003 		bic	r3, r3, #48
 1432 001e D360     		str	r3, [r2, #12]
 760:./Drivers/STM32H7xx_HAL_Driver/Src/stm32h7xx_hal_flash_ex.c ****     FLASH->CR2 &= (~FLASH_CR_PSIZE);
 1433              		.loc 1 760 16
 1434 0020 2D4B     		ldr	r3, .L94
 1435 0022 D3F80C31 		ldr	r3, [r3, #268]
 1436 0026 2C4A     		ldr	r2, .L94
 1437 0028 23F03003 		bic	r3, r3, #48
 1438 002c C2F80C31 		str	r3, [r2, #268]
 761:./Drivers/STM32H7xx_HAL_Driver/Src/stm32h7xx_hal_flash_ex.c **** 
 762:./Drivers/STM32H7xx_HAL_Driver/Src/stm32h7xx_hal_flash_ex.c ****     /* Set voltage range */
 763:./Drivers/STM32H7xx_HAL_Driver/Src/stm32h7xx_hal_flash_ex.c ****     FLASH->CR1 |= VoltageRange;
 1439              		.loc 1 763 16
 1440 0030 294B     		ldr	r3, .L94
 1441 0032 DA68     		ldr	r2, [r3, #12]
 1442 0034 2849     		ldr	r1, .L94
 1443 0036 7B68     		ldr	r3, [r7, #4]
 1444 0038 1343     		orrs	r3, r3, r2
 1445 003a CB60     		str	r3, [r1, #12]
 764:./Drivers/STM32H7xx_HAL_Driver/Src/stm32h7xx_hal_flash_ex.c ****     FLASH->CR2 |= VoltageRange;
 1446              		.loc 1 764 16
 1447 003c 264B     		ldr	r3, .L94
 1448 003e D3F80C21 		ldr	r2, [r3, #268]
 1449 0042 2549     		ldr	r1, .L94
 1450 0044 7B68     		ldr	r3, [r7, #4]
 1451 0046 1343     		orrs	r3, r3, r2
 1452 0048 C1F80C31 		str	r3, [r1, #268]
 765:./Drivers/STM32H7xx_HAL_Driver/Src/stm32h7xx_hal_flash_ex.c **** 
 766:./Drivers/STM32H7xx_HAL_Driver/Src/stm32h7xx_hal_flash_ex.c ****     /* Set Mass Erase Bit */
 767:./Drivers/STM32H7xx_HAL_Driver/Src/stm32h7xx_hal_flash_ex.c ****     FLASH->OPTCR |= FLASH_OPTCR_MER;
 1453              		.loc 1 767 18
 1454 004c 224B     		ldr	r3, .L94
 1455 004e 9B69     		ldr	r3, [r3, #24]
 1456 0050 214A     		ldr	r2, .L94
 1457 0052 43F01003 		orr	r3, r3, #16
 1458 0056 9361     		str	r3, [r2, #24]
 768:./Drivers/STM32H7xx_HAL_Driver/Src/stm32h7xx_hal_flash_ex.c ****   }
 769:./Drivers/STM32H7xx_HAL_Driver/Src/stm32h7xx_hal_flash_ex.c ****   else
ARM GAS  /tmp/ccw511VT.s 			page 40


 770:./Drivers/STM32H7xx_HAL_Driver/Src/stm32h7xx_hal_flash_ex.c ****   {
 771:./Drivers/STM32H7xx_HAL_Driver/Src/stm32h7xx_hal_flash_ex.c ****     /* Proceed to erase Flash Bank  */
 772:./Drivers/STM32H7xx_HAL_Driver/Src/stm32h7xx_hal_flash_ex.c ****     if((Banks & FLASH_BANK_1) == FLASH_BANK_1)
 773:./Drivers/STM32H7xx_HAL_Driver/Src/stm32h7xx_hal_flash_ex.c ****     {
 774:./Drivers/STM32H7xx_HAL_Driver/Src/stm32h7xx_hal_flash_ex.c ****       /* Reset Program/erase VoltageRange for Bank1 */
 775:./Drivers/STM32H7xx_HAL_Driver/Src/stm32h7xx_hal_flash_ex.c ****       FLASH->CR1 &= (~FLASH_CR_PSIZE);
 776:./Drivers/STM32H7xx_HAL_Driver/Src/stm32h7xx_hal_flash_ex.c **** 
 777:./Drivers/STM32H7xx_HAL_Driver/Src/stm32h7xx_hal_flash_ex.c ****       /* Bank1 will be erased, and set voltage range */
 778:./Drivers/STM32H7xx_HAL_Driver/Src/stm32h7xx_hal_flash_ex.c ****       FLASH->CR1 |= FLASH_CR_BER | VoltageRange;
 779:./Drivers/STM32H7xx_HAL_Driver/Src/stm32h7xx_hal_flash_ex.c ****       FLASH->CR1 |= FLASH_CR_START;
 780:./Drivers/STM32H7xx_HAL_Driver/Src/stm32h7xx_hal_flash_ex.c ****     }
 781:./Drivers/STM32H7xx_HAL_Driver/Src/stm32h7xx_hal_flash_ex.c ****     if((Banks & FLASH_BANK_2) == FLASH_BANK_2)
 782:./Drivers/STM32H7xx_HAL_Driver/Src/stm32h7xx_hal_flash_ex.c ****     {
 783:./Drivers/STM32H7xx_HAL_Driver/Src/stm32h7xx_hal_flash_ex.c ****       /* Reset Program/erase VoltageRange for Bank2 */
 784:./Drivers/STM32H7xx_HAL_Driver/Src/stm32h7xx_hal_flash_ex.c ****       FLASH->CR2 &= (~FLASH_CR_PSIZE);
 785:./Drivers/STM32H7xx_HAL_Driver/Src/stm32h7xx_hal_flash_ex.c **** 
 786:./Drivers/STM32H7xx_HAL_Driver/Src/stm32h7xx_hal_flash_ex.c ****       /* Bank2 will be erased, and set voltage range */
 787:./Drivers/STM32H7xx_HAL_Driver/Src/stm32h7xx_hal_flash_ex.c ****       FLASH->CR2 |= FLASH_CR_BER | VoltageRange;
 788:./Drivers/STM32H7xx_HAL_Driver/Src/stm32h7xx_hal_flash_ex.c ****       FLASH->CR2 |= FLASH_CR_START;
 789:./Drivers/STM32H7xx_HAL_Driver/Src/stm32h7xx_hal_flash_ex.c ****     }
 790:./Drivers/STM32H7xx_HAL_Driver/Src/stm32h7xx_hal_flash_ex.c ****   }
 791:./Drivers/STM32H7xx_HAL_Driver/Src/stm32h7xx_hal_flash_ex.c **** }
 1459              		.loc 1 791 1
 1460 0058 37E0     		b	.L93
 1461              	.L90:
 772:./Drivers/STM32H7xx_HAL_Driver/Src/stm32h7xx_hal_flash_ex.c ****     {
 1462              		.loc 1 772 15
 1463 005a 3B68     		ldr	r3, [r7]
 1464 005c 03F00103 		and	r3, r3, #1
 772:./Drivers/STM32H7xx_HAL_Driver/Src/stm32h7xx_hal_flash_ex.c ****     {
 1465              		.loc 1 772 7
 1466 0060 002B     		cmp	r3, #0
 1467 0062 13D0     		beq	.L92
 775:./Drivers/STM32H7xx_HAL_Driver/Src/stm32h7xx_hal_flash_ex.c **** 
 1468              		.loc 1 775 18
 1469 0064 1C4B     		ldr	r3, .L94
 1470 0066 DB68     		ldr	r3, [r3, #12]
 1471 0068 1B4A     		ldr	r2, .L94
 1472 006a 23F03003 		bic	r3, r3, #48
 1473 006e D360     		str	r3, [r2, #12]
 778:./Drivers/STM32H7xx_HAL_Driver/Src/stm32h7xx_hal_flash_ex.c ****       FLASH->CR1 |= FLASH_CR_START;
 1474              		.loc 1 778 18
 1475 0070 194B     		ldr	r3, .L94
 1476 0072 DA68     		ldr	r2, [r3, #12]
 1477 0074 7B68     		ldr	r3, [r7, #4]
 1478 0076 1343     		orrs	r3, r3, r2
 1479 0078 174A     		ldr	r2, .L94
 1480 007a 43F00803 		orr	r3, r3, #8
 1481 007e D360     		str	r3, [r2, #12]
 779:./Drivers/STM32H7xx_HAL_Driver/Src/stm32h7xx_hal_flash_ex.c ****     }
 1482              		.loc 1 779 18
 1483 0080 154B     		ldr	r3, .L94
 1484 0082 DB68     		ldr	r3, [r3, #12]
 1485 0084 144A     		ldr	r2, .L94
 1486 0086 43F08003 		orr	r3, r3, #128
 1487 008a D360     		str	r3, [r2, #12]
 1488              	.L92:
ARM GAS  /tmp/ccw511VT.s 			page 41


 781:./Drivers/STM32H7xx_HAL_Driver/Src/stm32h7xx_hal_flash_ex.c ****     {
 1489              		.loc 1 781 15
 1490 008c 3B68     		ldr	r3, [r7]
 1491 008e 03F00203 		and	r3, r3, #2
 781:./Drivers/STM32H7xx_HAL_Driver/Src/stm32h7xx_hal_flash_ex.c ****     {
 1492              		.loc 1 781 7
 1493 0092 002B     		cmp	r3, #0
 1494 0094 19D0     		beq	.L93
 784:./Drivers/STM32H7xx_HAL_Driver/Src/stm32h7xx_hal_flash_ex.c **** 
 1495              		.loc 1 784 18
 1496 0096 104B     		ldr	r3, .L94
 1497 0098 D3F80C31 		ldr	r3, [r3, #268]
 1498 009c 0E4A     		ldr	r2, .L94
 1499 009e 23F03003 		bic	r3, r3, #48
 1500 00a2 C2F80C31 		str	r3, [r2, #268]
 787:./Drivers/STM32H7xx_HAL_Driver/Src/stm32h7xx_hal_flash_ex.c ****       FLASH->CR2 |= FLASH_CR_START;
 1501              		.loc 1 787 18
 1502 00a6 0C4B     		ldr	r3, .L94
 1503 00a8 D3F80C21 		ldr	r2, [r3, #268]
 1504 00ac 7B68     		ldr	r3, [r7, #4]
 1505 00ae 1343     		orrs	r3, r3, r2
 1506 00b0 094A     		ldr	r2, .L94
 1507 00b2 43F00803 		orr	r3, r3, #8
 1508 00b6 C2F80C31 		str	r3, [r2, #268]
 788:./Drivers/STM32H7xx_HAL_Driver/Src/stm32h7xx_hal_flash_ex.c ****     }
 1509              		.loc 1 788 18
 1510 00ba 074B     		ldr	r3, .L94
 1511 00bc D3F80C31 		ldr	r3, [r3, #268]
 1512 00c0 054A     		ldr	r2, .L94
 1513 00c2 43F08003 		orr	r3, r3, #128
 1514 00c6 C2F80C31 		str	r3, [r2, #268]
 1515              	.L93:
 1516              		.loc 1 791 1
 1517 00ca 00BF     		nop
 1518 00cc 0C37     		adds	r7, r7, #12
 1519              		.cfi_def_cfa_offset 4
 1520 00ce BD46     		mov	sp, r7
 1521              		.cfi_def_cfa_register 13
 1522              		@ sp needed
 1523 00d0 5DF8047B 		ldr	r7, [sp], #4
 1524              		.cfi_restore 7
 1525              		.cfi_def_cfa_offset 0
 1526 00d4 7047     		bx	lr
 1527              	.L95:
 1528 00d6 00BF     		.align	2
 1529              	.L94:
 1530 00d8 00200052 		.word	1375739904
 1531              		.cfi_endproc
 1532              	.LFE143:
 1534              		.section	.text.FLASH_Erase_Sector,"ax",%progbits
 1535              		.align	1
 1536              		.global	FLASH_Erase_Sector
 1537              		.syntax unified
 1538              		.thumb
 1539              		.thumb_func
 1540              		.fpu fpv5-d16
 1542              	FLASH_Erase_Sector:
ARM GAS  /tmp/ccw511VT.s 			page 42


 1543              	.LFB144:
 792:./Drivers/STM32H7xx_HAL_Driver/Src/stm32h7xx_hal_flash_ex.c **** 
 793:./Drivers/STM32H7xx_HAL_Driver/Src/stm32h7xx_hal_flash_ex.c **** /**
 794:./Drivers/STM32H7xx_HAL_Driver/Src/stm32h7xx_hal_flash_ex.c ****   * @brief  Erase the specified FLASH memory sector
 795:./Drivers/STM32H7xx_HAL_Driver/Src/stm32h7xx_hal_flash_ex.c ****   * @param  Sector FLASH sector to erase
 796:./Drivers/STM32H7xx_HAL_Driver/Src/stm32h7xx_hal_flash_ex.c ****   *          This parameter can be a value of @ref FLASH_Sectors
 797:./Drivers/STM32H7xx_HAL_Driver/Src/stm32h7xx_hal_flash_ex.c ****   * @param  Banks Banks to be erased
 798:./Drivers/STM32H7xx_HAL_Driver/Src/stm32h7xx_hal_flash_ex.c ****   *          This parameter can be one of the following values:
 799:./Drivers/STM32H7xx_HAL_Driver/Src/stm32h7xx_hal_flash_ex.c ****   *            @arg FLASH_BANK_1: Bank1 to be erased
 800:./Drivers/STM32H7xx_HAL_Driver/Src/stm32h7xx_hal_flash_ex.c ****   *            @arg FLASH_BANK_2: Bank2 to be erased
 801:./Drivers/STM32H7xx_HAL_Driver/Src/stm32h7xx_hal_flash_ex.c ****   *            @arg FLASH_BANK_BOTH: Bank1 and Bank2 to be erased
 802:./Drivers/STM32H7xx_HAL_Driver/Src/stm32h7xx_hal_flash_ex.c ****   * @param  VoltageRange The device program/erase parallelism.
 803:./Drivers/STM32H7xx_HAL_Driver/Src/stm32h7xx_hal_flash_ex.c ****   *          This parameter can be one of the following values:
 804:./Drivers/STM32H7xx_HAL_Driver/Src/stm32h7xx_hal_flash_ex.c ****   *            @arg FLASH_VOLTAGE_RANGE_1 : Flash program/erase by 8 bits
 805:./Drivers/STM32H7xx_HAL_Driver/Src/stm32h7xx_hal_flash_ex.c ****   *            @arg FLASH_VOLTAGE_RANGE_2 : Flash program/erase by 16 bits
 806:./Drivers/STM32H7xx_HAL_Driver/Src/stm32h7xx_hal_flash_ex.c ****   *            @arg FLASH_VOLTAGE_RANGE_3 : Flash program/erase by 32 bits
 807:./Drivers/STM32H7xx_HAL_Driver/Src/stm32h7xx_hal_flash_ex.c ****   *            @arg FLASH_VOLTAGE_RANGE_4 : Flash program/erase by 64 bits
 808:./Drivers/STM32H7xx_HAL_Driver/Src/stm32h7xx_hal_flash_ex.c ****   *
 809:./Drivers/STM32H7xx_HAL_Driver/Src/stm32h7xx_hal_flash_ex.c ****   * @retval None
 810:./Drivers/STM32H7xx_HAL_Driver/Src/stm32h7xx_hal_flash_ex.c ****   */
 811:./Drivers/STM32H7xx_HAL_Driver/Src/stm32h7xx_hal_flash_ex.c **** void FLASH_Erase_Sector(uint32_t Sector, uint32_t Banks, uint32_t VoltageRange)
 812:./Drivers/STM32H7xx_HAL_Driver/Src/stm32h7xx_hal_flash_ex.c **** {
 1544              		.loc 1 812 1
 1545              		.cfi_startproc
 1546              		@ args = 0, pretend = 0, frame = 16
 1547              		@ frame_needed = 1, uses_anonymous_args = 0
 1548              		@ link register save eliminated.
 1549 0000 80B4     		push	{r7}
 1550              		.cfi_def_cfa_offset 4
 1551              		.cfi_offset 7, -4
 1552 0002 85B0     		sub	sp, sp, #20
 1553              		.cfi_def_cfa_offset 24
 1554 0004 00AF     		add	r7, sp, #0
 1555              		.cfi_def_cfa_register 7
 1556 0006 F860     		str	r0, [r7, #12]
 1557 0008 B960     		str	r1, [r7, #8]
 1558 000a 7A60     		str	r2, [r7, #4]
 813:./Drivers/STM32H7xx_HAL_Driver/Src/stm32h7xx_hal_flash_ex.c ****   assert_param(IS_FLASH_SECTOR(Sector));
 814:./Drivers/STM32H7xx_HAL_Driver/Src/stm32h7xx_hal_flash_ex.c ****   assert_param(IS_FLASH_BANK_EXCLUSIVE(Banks));
 815:./Drivers/STM32H7xx_HAL_Driver/Src/stm32h7xx_hal_flash_ex.c ****   assert_param(IS_VOLTAGERANGE(VoltageRange));
 816:./Drivers/STM32H7xx_HAL_Driver/Src/stm32h7xx_hal_flash_ex.c **** 
 817:./Drivers/STM32H7xx_HAL_Driver/Src/stm32h7xx_hal_flash_ex.c ****   if((Banks & FLASH_BANK_1) == FLASH_BANK_1)
 1559              		.loc 1 817 13
 1560 000c BB68     		ldr	r3, [r7, #8]
 1561 000e 03F00103 		and	r3, r3, #1
 1562              		.loc 1 817 5
 1563 0012 002B     		cmp	r3, #0
 1564 0014 16D0     		beq	.L97
 818:./Drivers/STM32H7xx_HAL_Driver/Src/stm32h7xx_hal_flash_ex.c ****   {
 819:./Drivers/STM32H7xx_HAL_Driver/Src/stm32h7xx_hal_flash_ex.c ****     /* reset Program/erase VoltageRange for Bank1 */
 820:./Drivers/STM32H7xx_HAL_Driver/Src/stm32h7xx_hal_flash_ex.c ****     FLASH->CR1 &= ~(FLASH_CR_PSIZE | FLASH_CR_SNB);
 1565              		.loc 1 820 16
 1566 0016 1F4B     		ldr	r3, .L100
 1567 0018 DB68     		ldr	r3, [r3, #12]
 1568 001a 1E4A     		ldr	r2, .L100
 1569 001c 23F4E663 		bic	r3, r3, #1840
 1570 0020 D360     		str	r3, [r2, #12]
ARM GAS  /tmp/ccw511VT.s 			page 43


 821:./Drivers/STM32H7xx_HAL_Driver/Src/stm32h7xx_hal_flash_ex.c **** 
 822:./Drivers/STM32H7xx_HAL_Driver/Src/stm32h7xx_hal_flash_ex.c ****     FLASH->CR1 |= (FLASH_CR_SER | VoltageRange | (Sector << FLASH_CR_SNB_Pos));
 1571              		.loc 1 822 16
 1572 0022 1C4B     		ldr	r3, .L100
 1573 0024 DA68     		ldr	r2, [r3, #12]
 1574              		.loc 1 822 58
 1575 0026 FB68     		ldr	r3, [r7, #12]
 1576 0028 1902     		lsls	r1, r3, #8
 1577              		.loc 1 822 48
 1578 002a 7B68     		ldr	r3, [r7, #4]
 1579 002c 0B43     		orrs	r3, r3, r1
 1580              		.loc 1 822 16
 1581 002e 1343     		orrs	r3, r3, r2
 1582 0030 184A     		ldr	r2, .L100
 1583 0032 43F00403 		orr	r3, r3, #4
 1584 0036 D360     		str	r3, [r2, #12]
 823:./Drivers/STM32H7xx_HAL_Driver/Src/stm32h7xx_hal_flash_ex.c **** 
 824:./Drivers/STM32H7xx_HAL_Driver/Src/stm32h7xx_hal_flash_ex.c ****     FLASH->CR1 |= FLASH_CR_START;
 1585              		.loc 1 824 16
 1586 0038 164B     		ldr	r3, .L100
 1587 003a DB68     		ldr	r3, [r3, #12]
 1588 003c 154A     		ldr	r2, .L100
 1589 003e 43F08003 		orr	r3, r3, #128
 1590 0042 D360     		str	r3, [r2, #12]
 1591              	.L97:
 825:./Drivers/STM32H7xx_HAL_Driver/Src/stm32h7xx_hal_flash_ex.c ****   }
 826:./Drivers/STM32H7xx_HAL_Driver/Src/stm32h7xx_hal_flash_ex.c **** 
 827:./Drivers/STM32H7xx_HAL_Driver/Src/stm32h7xx_hal_flash_ex.c ****   if((Banks & FLASH_BANK_2) == FLASH_BANK_2)
 1592              		.loc 1 827 13
 1593 0044 BB68     		ldr	r3, [r7, #8]
 1594 0046 03F00203 		and	r3, r3, #2
 1595              		.loc 1 827 5
 1596 004a 002B     		cmp	r3, #0
 1597 004c 1CD0     		beq	.L99
 828:./Drivers/STM32H7xx_HAL_Driver/Src/stm32h7xx_hal_flash_ex.c ****   {
 829:./Drivers/STM32H7xx_HAL_Driver/Src/stm32h7xx_hal_flash_ex.c ****     /* reset Program/erase VoltageRange for Bank2 */
 830:./Drivers/STM32H7xx_HAL_Driver/Src/stm32h7xx_hal_flash_ex.c ****     FLASH->CR2 &= ~(FLASH_CR_PSIZE | FLASH_CR_SNB);
 1598              		.loc 1 830 16
 1599 004e 114B     		ldr	r3, .L100
 1600 0050 D3F80C31 		ldr	r3, [r3, #268]
 1601 0054 0F4A     		ldr	r2, .L100
 1602 0056 23F4E663 		bic	r3, r3, #1840
 1603 005a C2F80C31 		str	r3, [r2, #268]
 831:./Drivers/STM32H7xx_HAL_Driver/Src/stm32h7xx_hal_flash_ex.c **** 
 832:./Drivers/STM32H7xx_HAL_Driver/Src/stm32h7xx_hal_flash_ex.c ****     FLASH->CR2 |= (FLASH_CR_SER | VoltageRange  | (Sector << FLASH_CR_SNB_Pos));
 1604              		.loc 1 832 16
 1605 005e 0D4B     		ldr	r3, .L100
 1606 0060 D3F80C21 		ldr	r2, [r3, #268]
 1607              		.loc 1 832 59
 1608 0064 FB68     		ldr	r3, [r7, #12]
 1609 0066 1902     		lsls	r1, r3, #8
 1610              		.loc 1 832 49
 1611 0068 7B68     		ldr	r3, [r7, #4]
 1612 006a 0B43     		orrs	r3, r3, r1
 1613              		.loc 1 832 16
 1614 006c 1343     		orrs	r3, r3, r2
 1615 006e 094A     		ldr	r2, .L100
ARM GAS  /tmp/ccw511VT.s 			page 44


 1616 0070 43F00403 		orr	r3, r3, #4
 1617 0074 C2F80C31 		str	r3, [r2, #268]
 833:./Drivers/STM32H7xx_HAL_Driver/Src/stm32h7xx_hal_flash_ex.c **** 
 834:./Drivers/STM32H7xx_HAL_Driver/Src/stm32h7xx_hal_flash_ex.c ****     FLASH->CR2 |= FLASH_CR_START;
 1618              		.loc 1 834 16
 1619 0078 064B     		ldr	r3, .L100
 1620 007a D3F80C31 		ldr	r3, [r3, #268]
 1621 007e 054A     		ldr	r2, .L100
 1622 0080 43F08003 		orr	r3, r3, #128
 1623 0084 C2F80C31 		str	r3, [r2, #268]
 1624              	.L99:
 835:./Drivers/STM32H7xx_HAL_Driver/Src/stm32h7xx_hal_flash_ex.c ****   }
 836:./Drivers/STM32H7xx_HAL_Driver/Src/stm32h7xx_hal_flash_ex.c **** }
 1625              		.loc 1 836 1
 1626 0088 00BF     		nop
 1627 008a 1437     		adds	r7, r7, #20
 1628              		.cfi_def_cfa_offset 4
 1629 008c BD46     		mov	sp, r7
 1630              		.cfi_def_cfa_register 13
 1631              		@ sp needed
 1632 008e 5DF8047B 		ldr	r7, [sp], #4
 1633              		.cfi_restore 7
 1634              		.cfi_def_cfa_offset 0
 1635 0092 7047     		bx	lr
 1636              	.L101:
 1637              		.align	2
 1638              	.L100:
 1639 0094 00200052 		.word	1375739904
 1640              		.cfi_endproc
 1641              	.LFE144:
 1643              		.section	.text.FLASH_OB_EnableWRP,"ax",%progbits
 1644              		.align	1
 1645              		.syntax unified
 1646              		.thumb
 1647              		.thumb_func
 1648              		.fpu fpv5-d16
 1650              	FLASH_OB_EnableWRP:
 1651              	.LFB145:
 837:./Drivers/STM32H7xx_HAL_Driver/Src/stm32h7xx_hal_flash_ex.c **** 
 838:./Drivers/STM32H7xx_HAL_Driver/Src/stm32h7xx_hal_flash_ex.c **** /**
 839:./Drivers/STM32H7xx_HAL_Driver/Src/stm32h7xx_hal_flash_ex.c ****   * @brief  Enable the write protection of the desired bank1 or bank 2 sectors
 840:./Drivers/STM32H7xx_HAL_Driver/Src/stm32h7xx_hal_flash_ex.c ****   * @param  WRPSector specifies the sector(s) to be write protected.
 841:./Drivers/STM32H7xx_HAL_Driver/Src/stm32h7xx_hal_flash_ex.c ****   *          This parameter can be one of the following values:
 842:./Drivers/STM32H7xx_HAL_Driver/Src/stm32h7xx_hal_flash_ex.c ****   *            @arg WRPSector:  A combination of OB_WRP_SECTOR_0 to OB_WRP_SECTOR_7 or OB_WRP_SECTO
 843:./Drivers/STM32H7xx_HAL_Driver/Src/stm32h7xx_hal_flash_ex.c ****   *
 844:./Drivers/STM32H7xx_HAL_Driver/Src/stm32h7xx_hal_flash_ex.c ****   * @param  Banks the specific bank to apply WRP sectors
 845:./Drivers/STM32H7xx_HAL_Driver/Src/stm32h7xx_hal_flash_ex.c ****   *          This parameter can be one of the following values:
 846:./Drivers/STM32H7xx_HAL_Driver/Src/stm32h7xx_hal_flash_ex.c ****   *            @arg FLASH_BANK_1: enable WRP on specified bank1 sectors
 847:./Drivers/STM32H7xx_HAL_Driver/Src/stm32h7xx_hal_flash_ex.c ****   *            @arg FLASH_BANK_2: enable WRP on specified bank2 sectors
 848:./Drivers/STM32H7xx_HAL_Driver/Src/stm32h7xx_hal_flash_ex.c ****   *            @arg FLASH_BANK_BOTH: enable WRP on both bank1 and bank2 specified sectors
 849:./Drivers/STM32H7xx_HAL_Driver/Src/stm32h7xx_hal_flash_ex.c ****   *
 850:./Drivers/STM32H7xx_HAL_Driver/Src/stm32h7xx_hal_flash_ex.c ****   * @retval HAL FLASH State
 851:./Drivers/STM32H7xx_HAL_Driver/Src/stm32h7xx_hal_flash_ex.c ****   */
 852:./Drivers/STM32H7xx_HAL_Driver/Src/stm32h7xx_hal_flash_ex.c **** static void FLASH_OB_EnableWRP(uint32_t WRPSector, uint32_t Banks)
 853:./Drivers/STM32H7xx_HAL_Driver/Src/stm32h7xx_hal_flash_ex.c **** {
 1652              		.loc 1 853 1
 1653              		.cfi_startproc
ARM GAS  /tmp/ccw511VT.s 			page 45


 1654              		@ args = 0, pretend = 0, frame = 8
 1655              		@ frame_needed = 1, uses_anonymous_args = 0
 1656              		@ link register save eliminated.
 1657 0000 80B4     		push	{r7}
 1658              		.cfi_def_cfa_offset 4
 1659              		.cfi_offset 7, -4
 1660 0002 83B0     		sub	sp, sp, #12
 1661              		.cfi_def_cfa_offset 16
 1662 0004 00AF     		add	r7, sp, #0
 1663              		.cfi_def_cfa_register 7
 1664 0006 7860     		str	r0, [r7, #4]
 1665 0008 3960     		str	r1, [r7]
 854:./Drivers/STM32H7xx_HAL_Driver/Src/stm32h7xx_hal_flash_ex.c ****   /* Check the parameters */
 855:./Drivers/STM32H7xx_HAL_Driver/Src/stm32h7xx_hal_flash_ex.c ****   assert_param(IS_OB_WRP_SECTOR(WRPSector));
 856:./Drivers/STM32H7xx_HAL_Driver/Src/stm32h7xx_hal_flash_ex.c ****   assert_param(IS_FLASH_BANK(Banks));
 857:./Drivers/STM32H7xx_HAL_Driver/Src/stm32h7xx_hal_flash_ex.c **** 
 858:./Drivers/STM32H7xx_HAL_Driver/Src/stm32h7xx_hal_flash_ex.c ****   if((Banks & FLASH_BANK_1) == FLASH_BANK_1)
 1666              		.loc 1 858 13
 1667 000a 3B68     		ldr	r3, [r7]
 1668 000c 03F00103 		and	r3, r3, #1
 1669              		.loc 1 858 5
 1670 0010 002B     		cmp	r3, #0
 1671 0012 07D0     		beq	.L103
 859:./Drivers/STM32H7xx_HAL_Driver/Src/stm32h7xx_hal_flash_ex.c ****   {
 860:./Drivers/STM32H7xx_HAL_Driver/Src/stm32h7xx_hal_flash_ex.c ****     /* Enable Write Protection for bank 1 */
 861:./Drivers/STM32H7xx_HAL_Driver/Src/stm32h7xx_hal_flash_ex.c ****     FLASH->WPSN_PRG1 &= (~(WRPSector & FLASH_WPSN_WRPSN));
 1672              		.loc 1 861 22
 1673 0014 0E4B     		ldr	r3, .L106
 1674 0016 DA6B     		ldr	r2, [r3, #60]
 1675              		.loc 1 861 38
 1676 0018 7B68     		ldr	r3, [r7, #4]
 1677 001a DBB2     		uxtb	r3, r3
 1678              		.loc 1 861 26
 1679 001c DB43     		mvns	r3, r3
 1680              		.loc 1 861 22
 1681 001e 0C49     		ldr	r1, .L106
 1682 0020 1340     		ands	r3, r3, r2
 1683 0022 CB63     		str	r3, [r1, #60]
 1684              	.L103:
 862:./Drivers/STM32H7xx_HAL_Driver/Src/stm32h7xx_hal_flash_ex.c ****   }
 863:./Drivers/STM32H7xx_HAL_Driver/Src/stm32h7xx_hal_flash_ex.c **** 
 864:./Drivers/STM32H7xx_HAL_Driver/Src/stm32h7xx_hal_flash_ex.c ****   if((Banks & FLASH_BANK_2) == FLASH_BANK_2)
 1685              		.loc 1 864 13
 1686 0024 3B68     		ldr	r3, [r7]
 1687 0026 03F00203 		and	r3, r3, #2
 1688              		.loc 1 864 5
 1689 002a 002B     		cmp	r3, #0
 1690 002c 09D0     		beq	.L105
 865:./Drivers/STM32H7xx_HAL_Driver/Src/stm32h7xx_hal_flash_ex.c ****   {
 866:./Drivers/STM32H7xx_HAL_Driver/Src/stm32h7xx_hal_flash_ex.c ****     /* Enable Write Protection for bank 2 */
 867:./Drivers/STM32H7xx_HAL_Driver/Src/stm32h7xx_hal_flash_ex.c ****     FLASH->WPSN_PRG2 &= (~(WRPSector & FLASH_WPSN_WRPSN));
 1691              		.loc 1 867 22
 1692 002e 084B     		ldr	r3, .L106
 1693 0030 D3F83C21 		ldr	r2, [r3, #316]
 1694              		.loc 1 867 38
 1695 0034 7B68     		ldr	r3, [r7, #4]
 1696 0036 DBB2     		uxtb	r3, r3
ARM GAS  /tmp/ccw511VT.s 			page 46


 1697              		.loc 1 867 26
 1698 0038 DB43     		mvns	r3, r3
 1699              		.loc 1 867 22
 1700 003a 0549     		ldr	r1, .L106
 1701 003c 1340     		ands	r3, r3, r2
 1702 003e C1F83C31 		str	r3, [r1, #316]
 1703              	.L105:
 868:./Drivers/STM32H7xx_HAL_Driver/Src/stm32h7xx_hal_flash_ex.c ****   }
 869:./Drivers/STM32H7xx_HAL_Driver/Src/stm32h7xx_hal_flash_ex.c **** }
 1704              		.loc 1 869 1
 1705 0042 00BF     		nop
 1706 0044 0C37     		adds	r7, r7, #12
 1707              		.cfi_def_cfa_offset 4
 1708 0046 BD46     		mov	sp, r7
 1709              		.cfi_def_cfa_register 13
 1710              		@ sp needed
 1711 0048 5DF8047B 		ldr	r7, [sp], #4
 1712              		.cfi_restore 7
 1713              		.cfi_def_cfa_offset 0
 1714 004c 7047     		bx	lr
 1715              	.L107:
 1716 004e 00BF     		.align	2
 1717              	.L106:
 1718 0050 00200052 		.word	1375739904
 1719              		.cfi_endproc
 1720              	.LFE145:
 1722              		.section	.text.FLASH_OB_DisableWRP,"ax",%progbits
 1723              		.align	1
 1724              		.syntax unified
 1725              		.thumb
 1726              		.thumb_func
 1727              		.fpu fpv5-d16
 1729              	FLASH_OB_DisableWRP:
 1730              	.LFB146:
 870:./Drivers/STM32H7xx_HAL_Driver/Src/stm32h7xx_hal_flash_ex.c **** 
 871:./Drivers/STM32H7xx_HAL_Driver/Src/stm32h7xx_hal_flash_ex.c **** /**
 872:./Drivers/STM32H7xx_HAL_Driver/Src/stm32h7xx_hal_flash_ex.c ****   * @brief  Disable the write protection of the desired bank1 or bank 2 sectors
 873:./Drivers/STM32H7xx_HAL_Driver/Src/stm32h7xx_hal_flash_ex.c ****   * @param  WRPSector specifies the sector(s) to disable write protection.
 874:./Drivers/STM32H7xx_HAL_Driver/Src/stm32h7xx_hal_flash_ex.c ****   *          This parameter can be one of the following values:
 875:./Drivers/STM32H7xx_HAL_Driver/Src/stm32h7xx_hal_flash_ex.c ****   *            @arg WRPSector:  A combination of FLASH_OB_WRP_SECTOR_0 to FLASH_OB_WRP_SECTOR_7 or 
 876:./Drivers/STM32H7xx_HAL_Driver/Src/stm32h7xx_hal_flash_ex.c ****   *
 877:./Drivers/STM32H7xx_HAL_Driver/Src/stm32h7xx_hal_flash_ex.c ****   * @param  Banks the specific bank to apply WRP sectors
 878:./Drivers/STM32H7xx_HAL_Driver/Src/stm32h7xx_hal_flash_ex.c ****   *          This parameter can be one of the following values:
 879:./Drivers/STM32H7xx_HAL_Driver/Src/stm32h7xx_hal_flash_ex.c ****   *            @arg FLASH_BANK_1: disable WRP on specified bank1 sectors
 880:./Drivers/STM32H7xx_HAL_Driver/Src/stm32h7xx_hal_flash_ex.c ****   *            @arg FLASH_BANK_2: disable WRP on specified bank2 sectors
 881:./Drivers/STM32H7xx_HAL_Driver/Src/stm32h7xx_hal_flash_ex.c ****   *            @arg FLASH_BANK_BOTH: disable WRP on both bank1 and bank2 specified sectors
 882:./Drivers/STM32H7xx_HAL_Driver/Src/stm32h7xx_hal_flash_ex.c ****   *
 883:./Drivers/STM32H7xx_HAL_Driver/Src/stm32h7xx_hal_flash_ex.c ****   * @retval HAL FLASH State
 884:./Drivers/STM32H7xx_HAL_Driver/Src/stm32h7xx_hal_flash_ex.c ****   */
 885:./Drivers/STM32H7xx_HAL_Driver/Src/stm32h7xx_hal_flash_ex.c **** static void FLASH_OB_DisableWRP(uint32_t WRPSector, uint32_t Banks)
 886:./Drivers/STM32H7xx_HAL_Driver/Src/stm32h7xx_hal_flash_ex.c **** {
 1731              		.loc 1 886 1
 1732              		.cfi_startproc
 1733              		@ args = 0, pretend = 0, frame = 8
 1734              		@ frame_needed = 1, uses_anonymous_args = 0
 1735              		@ link register save eliminated.
 1736 0000 80B4     		push	{r7}
ARM GAS  /tmp/ccw511VT.s 			page 47


 1737              		.cfi_def_cfa_offset 4
 1738              		.cfi_offset 7, -4
 1739 0002 83B0     		sub	sp, sp, #12
 1740              		.cfi_def_cfa_offset 16
 1741 0004 00AF     		add	r7, sp, #0
 1742              		.cfi_def_cfa_register 7
 1743 0006 7860     		str	r0, [r7, #4]
 1744 0008 3960     		str	r1, [r7]
 887:./Drivers/STM32H7xx_HAL_Driver/Src/stm32h7xx_hal_flash_ex.c ****   /* Check the parameters */
 888:./Drivers/STM32H7xx_HAL_Driver/Src/stm32h7xx_hal_flash_ex.c ****   assert_param(IS_OB_WRP_SECTOR(WRPSector));
 889:./Drivers/STM32H7xx_HAL_Driver/Src/stm32h7xx_hal_flash_ex.c ****   assert_param(IS_FLASH_BANK(Banks));
 890:./Drivers/STM32H7xx_HAL_Driver/Src/stm32h7xx_hal_flash_ex.c **** 
 891:./Drivers/STM32H7xx_HAL_Driver/Src/stm32h7xx_hal_flash_ex.c ****   if((Banks & FLASH_BANK_1) == FLASH_BANK_1)
 1745              		.loc 1 891 13
 1746 000a 3B68     		ldr	r3, [r7]
 1747 000c 03F00103 		and	r3, r3, #1
 1748              		.loc 1 891 5
 1749 0010 002B     		cmp	r3, #0
 1750 0012 06D0     		beq	.L109
 892:./Drivers/STM32H7xx_HAL_Driver/Src/stm32h7xx_hal_flash_ex.c ****   {
 893:./Drivers/STM32H7xx_HAL_Driver/Src/stm32h7xx_hal_flash_ex.c ****     /* Disable Write Protection for bank 1 */
 894:./Drivers/STM32H7xx_HAL_Driver/Src/stm32h7xx_hal_flash_ex.c ****     FLASH->WPSN_PRG1 |= (WRPSector & FLASH_WPSN_WRPSN);
 1751              		.loc 1 894 22
 1752 0014 0D4B     		ldr	r3, .L112
 1753 0016 DA6B     		ldr	r2, [r3, #60]
 1754              		.loc 1 894 36
 1755 0018 7B68     		ldr	r3, [r7, #4]
 1756 001a DBB2     		uxtb	r3, r3
 1757              		.loc 1 894 22
 1758 001c 0B49     		ldr	r1, .L112
 1759 001e 1343     		orrs	r3, r3, r2
 1760 0020 CB63     		str	r3, [r1, #60]
 1761              	.L109:
 895:./Drivers/STM32H7xx_HAL_Driver/Src/stm32h7xx_hal_flash_ex.c ****   }
 896:./Drivers/STM32H7xx_HAL_Driver/Src/stm32h7xx_hal_flash_ex.c **** 
 897:./Drivers/STM32H7xx_HAL_Driver/Src/stm32h7xx_hal_flash_ex.c ****   if((Banks & FLASH_BANK_2) == FLASH_BANK_2)
 1762              		.loc 1 897 13
 1763 0022 3B68     		ldr	r3, [r7]
 1764 0024 03F00203 		and	r3, r3, #2
 1765              		.loc 1 897 5
 1766 0028 002B     		cmp	r3, #0
 1767 002a 08D0     		beq	.L111
 898:./Drivers/STM32H7xx_HAL_Driver/Src/stm32h7xx_hal_flash_ex.c ****   {
 899:./Drivers/STM32H7xx_HAL_Driver/Src/stm32h7xx_hal_flash_ex.c ****     /* Disable Write Protection for bank 2 */
 900:./Drivers/STM32H7xx_HAL_Driver/Src/stm32h7xx_hal_flash_ex.c ****     FLASH->WPSN_PRG2 |= (WRPSector & FLASH_WPSN_WRPSN);
 1768              		.loc 1 900 22
 1769 002c 074B     		ldr	r3, .L112
 1770 002e D3F83C21 		ldr	r2, [r3, #316]
 1771              		.loc 1 900 36
 1772 0032 7B68     		ldr	r3, [r7, #4]
 1773 0034 DBB2     		uxtb	r3, r3
 1774              		.loc 1 900 22
 1775 0036 0549     		ldr	r1, .L112
 1776 0038 1343     		orrs	r3, r3, r2
 1777 003a C1F83C31 		str	r3, [r1, #316]
 1778              	.L111:
 901:./Drivers/STM32H7xx_HAL_Driver/Src/stm32h7xx_hal_flash_ex.c ****   }
ARM GAS  /tmp/ccw511VT.s 			page 48


 902:./Drivers/STM32H7xx_HAL_Driver/Src/stm32h7xx_hal_flash_ex.c **** }
 1779              		.loc 1 902 1
 1780 003e 00BF     		nop
 1781 0040 0C37     		adds	r7, r7, #12
 1782              		.cfi_def_cfa_offset 4
 1783 0042 BD46     		mov	sp, r7
 1784              		.cfi_def_cfa_register 13
 1785              		@ sp needed
 1786 0044 5DF8047B 		ldr	r7, [sp], #4
 1787              		.cfi_restore 7
 1788              		.cfi_def_cfa_offset 0
 1789 0048 7047     		bx	lr
 1790              	.L113:
 1791 004a 00BF     		.align	2
 1792              	.L112:
 1793 004c 00200052 		.word	1375739904
 1794              		.cfi_endproc
 1795              	.LFE146:
 1797              		.section	.text.FLASH_OB_GetWRP,"ax",%progbits
 1798              		.align	1
 1799              		.syntax unified
 1800              		.thumb
 1801              		.thumb_func
 1802              		.fpu fpv5-d16
 1804              	FLASH_OB_GetWRP:
 1805              	.LFB147:
 903:./Drivers/STM32H7xx_HAL_Driver/Src/stm32h7xx_hal_flash_ex.c **** 
 904:./Drivers/STM32H7xx_HAL_Driver/Src/stm32h7xx_hal_flash_ex.c **** /**
 905:./Drivers/STM32H7xx_HAL_Driver/Src/stm32h7xx_hal_flash_ex.c ****   * @brief  Get the write protection of the given bank 1 or bank 2 sectors
 906:./Drivers/STM32H7xx_HAL_Driver/Src/stm32h7xx_hal_flash_ex.c ****   * @param  WRPState gives the write protection state on the given bank.
 907:./Drivers/STM32H7xx_HAL_Driver/Src/stm32h7xx_hal_flash_ex.c ****   *          This parameter can be one of the following values:
 908:./Drivers/STM32H7xx_HAL_Driver/Src/stm32h7xx_hal_flash_ex.c ****   *          @arg WRPState: OB_WRPSTATE_DISABLE or OB_WRPSTATE_ENABLE
 909:./Drivers/STM32H7xx_HAL_Driver/Src/stm32h7xx_hal_flash_ex.c **** 
 910:./Drivers/STM32H7xx_HAL_Driver/Src/stm32h7xx_hal_flash_ex.c ****   * @param  WRPSector gives the write protected sector(s) on the given bank .
 911:./Drivers/STM32H7xx_HAL_Driver/Src/stm32h7xx_hal_flash_ex.c ****   *          This parameter can be one of the following values:
 912:./Drivers/STM32H7xx_HAL_Driver/Src/stm32h7xx_hal_flash_ex.c ****   *          @arg WRPSector: A combination of FLASH_OB_WRP_SECTOR_0 to FLASH_OB_WRP_SECTOR_7 or FLA
 913:./Drivers/STM32H7xx_HAL_Driver/Src/stm32h7xx_hal_flash_ex.c ****   *
 914:./Drivers/STM32H7xx_HAL_Driver/Src/stm32h7xx_hal_flash_ex.c ****   * @param  Bank the specific bank to apply WRP sectors
 915:./Drivers/STM32H7xx_HAL_Driver/Src/stm32h7xx_hal_flash_ex.c ****   *          This parameter can be exclusively one of the following values:
 916:./Drivers/STM32H7xx_HAL_Driver/Src/stm32h7xx_hal_flash_ex.c ****   *            @arg FLASH_BANK_1: Get bank1 WRP sectors
 917:./Drivers/STM32H7xx_HAL_Driver/Src/stm32h7xx_hal_flash_ex.c ****   *            @arg FLASH_BANK_2: Get bank2 WRP sectors
 918:./Drivers/STM32H7xx_HAL_Driver/Src/stm32h7xx_hal_flash_ex.c ****   *            @arg FLASH_BANK_BOTH: note allowed in this functions
 919:./Drivers/STM32H7xx_HAL_Driver/Src/stm32h7xx_hal_flash_ex.c ****   *
 920:./Drivers/STM32H7xx_HAL_Driver/Src/stm32h7xx_hal_flash_ex.c ****   * @retval HAL FLASH State
 921:./Drivers/STM32H7xx_HAL_Driver/Src/stm32h7xx_hal_flash_ex.c ****   */
 922:./Drivers/STM32H7xx_HAL_Driver/Src/stm32h7xx_hal_flash_ex.c **** static void FLASH_OB_GetWRP(uint32_t *WRPState, uint32_t *WRPSector, uint32_t Bank)
 923:./Drivers/STM32H7xx_HAL_Driver/Src/stm32h7xx_hal_flash_ex.c **** {
 1806              		.loc 1 923 1
 1807              		.cfi_startproc
 1808              		@ args = 0, pretend = 0, frame = 24
 1809              		@ frame_needed = 1, uses_anonymous_args = 0
 1810              		@ link register save eliminated.
 1811 0000 80B4     		push	{r7}
 1812              		.cfi_def_cfa_offset 4
 1813              		.cfi_offset 7, -4
 1814 0002 87B0     		sub	sp, sp, #28
 1815              		.cfi_def_cfa_offset 32
ARM GAS  /tmp/ccw511VT.s 			page 49


 1816 0004 00AF     		add	r7, sp, #0
 1817              		.cfi_def_cfa_register 7
 1818 0006 F860     		str	r0, [r7, #12]
 1819 0008 B960     		str	r1, [r7, #8]
 1820 000a 7A60     		str	r2, [r7, #4]
 924:./Drivers/STM32H7xx_HAL_Driver/Src/stm32h7xx_hal_flash_ex.c ****   uint32_t regvalue = 0U;
 1821              		.loc 1 924 12
 1822 000c 0023     		movs	r3, #0
 1823 000e 7B61     		str	r3, [r7, #20]
 925:./Drivers/STM32H7xx_HAL_Driver/Src/stm32h7xx_hal_flash_ex.c **** 
 926:./Drivers/STM32H7xx_HAL_Driver/Src/stm32h7xx_hal_flash_ex.c ****   if((Bank & FLASH_BANK_BOTH) == FLASH_BANK_1)
 1824              		.loc 1 926 12
 1825 0010 7B68     		ldr	r3, [r7, #4]
 1826 0012 03F00303 		and	r3, r3, #3
 1827              		.loc 1 926 5
 1828 0016 012B     		cmp	r3, #1
 1829 0018 02D1     		bne	.L115
 927:./Drivers/STM32H7xx_HAL_Driver/Src/stm32h7xx_hal_flash_ex.c ****   {
 928:./Drivers/STM32H7xx_HAL_Driver/Src/stm32h7xx_hal_flash_ex.c ****     regvalue = FLASH->WPSN_CUR1;
 1830              		.loc 1 928 21
 1831 001a 114B     		ldr	r3, .L120
 1832              		.loc 1 928 14
 1833 001c 9B6B     		ldr	r3, [r3, #56]
 1834 001e 7B61     		str	r3, [r7, #20]
 1835              	.L115:
 929:./Drivers/STM32H7xx_HAL_Driver/Src/stm32h7xx_hal_flash_ex.c ****   }
 930:./Drivers/STM32H7xx_HAL_Driver/Src/stm32h7xx_hal_flash_ex.c **** 
 931:./Drivers/STM32H7xx_HAL_Driver/Src/stm32h7xx_hal_flash_ex.c ****   if((Bank & FLASH_BANK_BOTH) == FLASH_BANK_2)
 1836              		.loc 1 931 12
 1837 0020 7B68     		ldr	r3, [r7, #4]
 1838 0022 03F00303 		and	r3, r3, #3
 1839              		.loc 1 931 5
 1840 0026 022B     		cmp	r3, #2
 1841 0028 03D1     		bne	.L116
 932:./Drivers/STM32H7xx_HAL_Driver/Src/stm32h7xx_hal_flash_ex.c ****   {
 933:./Drivers/STM32H7xx_HAL_Driver/Src/stm32h7xx_hal_flash_ex.c ****     regvalue = FLASH->WPSN_CUR2;
 1842              		.loc 1 933 21
 1843 002a 0D4B     		ldr	r3, .L120
 1844              		.loc 1 933 14
 1845 002c D3F83831 		ldr	r3, [r3, #312]
 1846 0030 7B61     		str	r3, [r7, #20]
 1847              	.L116:
 934:./Drivers/STM32H7xx_HAL_Driver/Src/stm32h7xx_hal_flash_ex.c ****   }
 935:./Drivers/STM32H7xx_HAL_Driver/Src/stm32h7xx_hal_flash_ex.c **** 
 936:./Drivers/STM32H7xx_HAL_Driver/Src/stm32h7xx_hal_flash_ex.c ****   (*WRPSector) = (~regvalue) & FLASH_WPSN_WRPSN;
 1848              		.loc 1 936 19
 1849 0032 7B69     		ldr	r3, [r7, #20]
 1850 0034 DB43     		mvns	r3, r3
 1851              		.loc 1 936 30
 1852 0036 DAB2     		uxtb	r2, r3
 1853              		.loc 1 936 16
 1854 0038 BB68     		ldr	r3, [r7, #8]
 1855 003a 1A60     		str	r2, [r3]
 937:./Drivers/STM32H7xx_HAL_Driver/Src/stm32h7xx_hal_flash_ex.c **** 
 938:./Drivers/STM32H7xx_HAL_Driver/Src/stm32h7xx_hal_flash_ex.c ****   if(*WRPSector == 0U)
 1856              		.loc 1 938 6
 1857 003c BB68     		ldr	r3, [r7, #8]
ARM GAS  /tmp/ccw511VT.s 			page 50


 1858 003e 1B68     		ldr	r3, [r3]
 1859              		.loc 1 938 5
 1860 0040 002B     		cmp	r3, #0
 1861 0042 03D1     		bne	.L117
 939:./Drivers/STM32H7xx_HAL_Driver/Src/stm32h7xx_hal_flash_ex.c ****   {
 940:./Drivers/STM32H7xx_HAL_Driver/Src/stm32h7xx_hal_flash_ex.c ****     (*WRPState) = OB_WRPSTATE_DISABLE;
 1862              		.loc 1 940 17
 1863 0044 FB68     		ldr	r3, [r7, #12]
 1864 0046 0022     		movs	r2, #0
 1865 0048 1A60     		str	r2, [r3]
 941:./Drivers/STM32H7xx_HAL_Driver/Src/stm32h7xx_hal_flash_ex.c ****   }
 942:./Drivers/STM32H7xx_HAL_Driver/Src/stm32h7xx_hal_flash_ex.c ****   else
 943:./Drivers/STM32H7xx_HAL_Driver/Src/stm32h7xx_hal_flash_ex.c ****   {
 944:./Drivers/STM32H7xx_HAL_Driver/Src/stm32h7xx_hal_flash_ex.c ****     (*WRPState) = OB_WRPSTATE_ENABLE;
 945:./Drivers/STM32H7xx_HAL_Driver/Src/stm32h7xx_hal_flash_ex.c ****   }
 946:./Drivers/STM32H7xx_HAL_Driver/Src/stm32h7xx_hal_flash_ex.c **** }
 1866              		.loc 1 946 1
 1867 004a 02E0     		b	.L119
 1868              	.L117:
 944:./Drivers/STM32H7xx_HAL_Driver/Src/stm32h7xx_hal_flash_ex.c ****   }
 1869              		.loc 1 944 17
 1870 004c FB68     		ldr	r3, [r7, #12]
 1871 004e 0122     		movs	r2, #1
 1872 0050 1A60     		str	r2, [r3]
 1873              	.L119:
 1874              		.loc 1 946 1
 1875 0052 00BF     		nop
 1876 0054 1C37     		adds	r7, r7, #28
 1877              		.cfi_def_cfa_offset 4
 1878 0056 BD46     		mov	sp, r7
 1879              		.cfi_def_cfa_register 13
 1880              		@ sp needed
 1881 0058 5DF8047B 		ldr	r7, [sp], #4
 1882              		.cfi_restore 7
 1883              		.cfi_def_cfa_offset 0
 1884 005c 7047     		bx	lr
 1885              	.L121:
 1886 005e 00BF     		.align	2
 1887              	.L120:
 1888 0060 00200052 		.word	1375739904
 1889              		.cfi_endproc
 1890              	.LFE147:
 1892              		.section	.text.FLASH_OB_RDPConfig,"ax",%progbits
 1893              		.align	1
 1894              		.syntax unified
 1895              		.thumb
 1896              		.thumb_func
 1897              		.fpu fpv5-d16
 1899              	FLASH_OB_RDPConfig:
 1900              	.LFB148:
 947:./Drivers/STM32H7xx_HAL_Driver/Src/stm32h7xx_hal_flash_ex.c **** 
 948:./Drivers/STM32H7xx_HAL_Driver/Src/stm32h7xx_hal_flash_ex.c **** /**
 949:./Drivers/STM32H7xx_HAL_Driver/Src/stm32h7xx_hal_flash_ex.c ****   * @brief  Set the read protection level.
 950:./Drivers/STM32H7xx_HAL_Driver/Src/stm32h7xx_hal_flash_ex.c ****   *
 951:./Drivers/STM32H7xx_HAL_Driver/Src/stm32h7xx_hal_flash_ex.c ****   * @note   To configure the RDP level, the option lock bit OPTLOCK must be
 952:./Drivers/STM32H7xx_HAL_Driver/Src/stm32h7xx_hal_flash_ex.c ****   *         cleared with the call of the HAL_FLASH_OB_Unlock() function.
 953:./Drivers/STM32H7xx_HAL_Driver/Src/stm32h7xx_hal_flash_ex.c ****   * @note   To validate the RDP level, the option bytes must be reloaded
ARM GAS  /tmp/ccw511VT.s 			page 51


 954:./Drivers/STM32H7xx_HAL_Driver/Src/stm32h7xx_hal_flash_ex.c ****   *         through the call of the HAL_FLASH_OB_Launch() function.
 955:./Drivers/STM32H7xx_HAL_Driver/Src/stm32h7xx_hal_flash_ex.c ****   * @note   !!! Warning : When enabling OB_RDP level 2 it's no more possible
 956:./Drivers/STM32H7xx_HAL_Driver/Src/stm32h7xx_hal_flash_ex.c ****   *         to go back to level 1 or 0 !!!
 957:./Drivers/STM32H7xx_HAL_Driver/Src/stm32h7xx_hal_flash_ex.c ****   *
 958:./Drivers/STM32H7xx_HAL_Driver/Src/stm32h7xx_hal_flash_ex.c ****   * @param  RDPLevel specifies the read protection level.
 959:./Drivers/STM32H7xx_HAL_Driver/Src/stm32h7xx_hal_flash_ex.c ****   *         This parameter can be one of the following values:
 960:./Drivers/STM32H7xx_HAL_Driver/Src/stm32h7xx_hal_flash_ex.c ****   *            @arg OB_RDP_LEVEL_0: No protection
 961:./Drivers/STM32H7xx_HAL_Driver/Src/stm32h7xx_hal_flash_ex.c ****   *            @arg OB_RDP_LEVEL_1: Read protection of the memory
 962:./Drivers/STM32H7xx_HAL_Driver/Src/stm32h7xx_hal_flash_ex.c ****   *            @arg OB_RDP_LEVEL_2: Full chip protection
 963:./Drivers/STM32H7xx_HAL_Driver/Src/stm32h7xx_hal_flash_ex.c ****   *
 964:./Drivers/STM32H7xx_HAL_Driver/Src/stm32h7xx_hal_flash_ex.c ****   * @retval HAL status
 965:./Drivers/STM32H7xx_HAL_Driver/Src/stm32h7xx_hal_flash_ex.c ****   */
 966:./Drivers/STM32H7xx_HAL_Driver/Src/stm32h7xx_hal_flash_ex.c **** static void FLASH_OB_RDPConfig(uint32_t RDPLevel)
 967:./Drivers/STM32H7xx_HAL_Driver/Src/stm32h7xx_hal_flash_ex.c **** {
 1901              		.loc 1 967 1
 1902              		.cfi_startproc
 1903              		@ args = 0, pretend = 0, frame = 8
 1904              		@ frame_needed = 1, uses_anonymous_args = 0
 1905              		@ link register save eliminated.
 1906 0000 80B4     		push	{r7}
 1907              		.cfi_def_cfa_offset 4
 1908              		.cfi_offset 7, -4
 1909 0002 83B0     		sub	sp, sp, #12
 1910              		.cfi_def_cfa_offset 16
 1911 0004 00AF     		add	r7, sp, #0
 1912              		.cfi_def_cfa_register 7
 1913 0006 7860     		str	r0, [r7, #4]
 968:./Drivers/STM32H7xx_HAL_Driver/Src/stm32h7xx_hal_flash_ex.c ****   /* Check the parameters */
 969:./Drivers/STM32H7xx_HAL_Driver/Src/stm32h7xx_hal_flash_ex.c ****   assert_param(IS_OB_RDP_LEVEL(RDPLevel));
 970:./Drivers/STM32H7xx_HAL_Driver/Src/stm32h7xx_hal_flash_ex.c **** 
 971:./Drivers/STM32H7xx_HAL_Driver/Src/stm32h7xx_hal_flash_ex.c ****   /* Configure the RDP level in the option bytes register */
 972:./Drivers/STM32H7xx_HAL_Driver/Src/stm32h7xx_hal_flash_ex.c ****   MODIFY_REG(FLASH->OPTSR_PRG, FLASH_OPTSR_RDP, RDPLevel);
 1914              		.loc 1 972 3
 1915 0008 064B     		ldr	r3, .L123
 1916 000a 1B6A     		ldr	r3, [r3, #32]
 1917 000c 23F47F42 		bic	r2, r3, #65280
 1918 0010 0449     		ldr	r1, .L123
 1919 0012 7B68     		ldr	r3, [r7, #4]
 1920 0014 1343     		orrs	r3, r3, r2
 1921 0016 0B62     		str	r3, [r1, #32]
 973:./Drivers/STM32H7xx_HAL_Driver/Src/stm32h7xx_hal_flash_ex.c **** }
 1922              		.loc 1 973 1
 1923 0018 00BF     		nop
 1924 001a 0C37     		adds	r7, r7, #12
 1925              		.cfi_def_cfa_offset 4
 1926 001c BD46     		mov	sp, r7
 1927              		.cfi_def_cfa_register 13
 1928              		@ sp needed
 1929 001e 5DF8047B 		ldr	r7, [sp], #4
 1930              		.cfi_restore 7
 1931              		.cfi_def_cfa_offset 0
 1932 0022 7047     		bx	lr
 1933              	.L124:
 1934              		.align	2
 1935              	.L123:
 1936 0024 00200052 		.word	1375739904
 1937              		.cfi_endproc
ARM GAS  /tmp/ccw511VT.s 			page 52


 1938              	.LFE148:
 1940              		.section	.text.FLASH_OB_GetRDP,"ax",%progbits
 1941              		.align	1
 1942              		.syntax unified
 1943              		.thumb
 1944              		.thumb_func
 1945              		.fpu fpv5-d16
 1947              	FLASH_OB_GetRDP:
 1948              	.LFB149:
 974:./Drivers/STM32H7xx_HAL_Driver/Src/stm32h7xx_hal_flash_ex.c **** 
 975:./Drivers/STM32H7xx_HAL_Driver/Src/stm32h7xx_hal_flash_ex.c **** /**
 976:./Drivers/STM32H7xx_HAL_Driver/Src/stm32h7xx_hal_flash_ex.c ****   * @brief  Get the read protection level.
 977:./Drivers/STM32H7xx_HAL_Driver/Src/stm32h7xx_hal_flash_ex.c ****   * @retval RDPLevel specifies the read protection level.
 978:./Drivers/STM32H7xx_HAL_Driver/Src/stm32h7xx_hal_flash_ex.c ****   *         This return value can be one of the following values:
 979:./Drivers/STM32H7xx_HAL_Driver/Src/stm32h7xx_hal_flash_ex.c ****   *            @arg OB_RDP_LEVEL_0: No protection
 980:./Drivers/STM32H7xx_HAL_Driver/Src/stm32h7xx_hal_flash_ex.c ****   *            @arg OB_RDP_LEVEL_1: Read protection of the memory
 981:./Drivers/STM32H7xx_HAL_Driver/Src/stm32h7xx_hal_flash_ex.c ****   *            @arg OB_RDP_LEVEL_2: Full chip protection
 982:./Drivers/STM32H7xx_HAL_Driver/Src/stm32h7xx_hal_flash_ex.c ****   */
 983:./Drivers/STM32H7xx_HAL_Driver/Src/stm32h7xx_hal_flash_ex.c **** static uint32_t FLASH_OB_GetRDP(void)
 984:./Drivers/STM32H7xx_HAL_Driver/Src/stm32h7xx_hal_flash_ex.c **** {
 1949              		.loc 1 984 1
 1950              		.cfi_startproc
 1951              		@ args = 0, pretend = 0, frame = 8
 1952              		@ frame_needed = 1, uses_anonymous_args = 0
 1953              		@ link register save eliminated.
 1954 0000 80B4     		push	{r7}
 1955              		.cfi_def_cfa_offset 4
 1956              		.cfi_offset 7, -4
 1957 0002 83B0     		sub	sp, sp, #12
 1958              		.cfi_def_cfa_offset 16
 1959 0004 00AF     		add	r7, sp, #0
 1960              		.cfi_def_cfa_register 7
 985:./Drivers/STM32H7xx_HAL_Driver/Src/stm32h7xx_hal_flash_ex.c ****   uint32_t rdp_level = READ_BIT(FLASH->OPTSR_CUR, FLASH_OPTSR_RDP);
 1961              		.loc 1 985 24
 1962 0006 0B4B     		ldr	r3, .L128
 1963 0008 DB69     		ldr	r3, [r3, #28]
 1964              		.loc 1 985 12
 1965 000a 03F47F43 		and	r3, r3, #65280
 1966 000e 7B60     		str	r3, [r7, #4]
 986:./Drivers/STM32H7xx_HAL_Driver/Src/stm32h7xx_hal_flash_ex.c ****   
 987:./Drivers/STM32H7xx_HAL_Driver/Src/stm32h7xx_hal_flash_ex.c ****   if ((rdp_level != OB_RDP_LEVEL_0) && (rdp_level != OB_RDP_LEVEL_2))
 1967              		.loc 1 987 6
 1968 0010 7B68     		ldr	r3, [r7, #4]
 1969 0012 B3F52A4F 		cmp	r3, #43520
 1970 0016 06D0     		beq	.L126
 1971              		.loc 1 987 37 discriminator 1
 1972 0018 7B68     		ldr	r3, [r7, #4]
 1973 001a B3F54C4F 		cmp	r3, #52224
 1974 001e 02D0     		beq	.L126
 988:./Drivers/STM32H7xx_HAL_Driver/Src/stm32h7xx_hal_flash_ex.c ****   {
 989:./Drivers/STM32H7xx_HAL_Driver/Src/stm32h7xx_hal_flash_ex.c ****     return (OB_RDP_LEVEL_1);
 1975              		.loc 1 989 12
 1976 0020 4FF4AA43 		mov	r3, #21760
 1977 0024 00E0     		b	.L127
 1978              	.L126:
 990:./Drivers/STM32H7xx_HAL_Driver/Src/stm32h7xx_hal_flash_ex.c ****   }
 991:./Drivers/STM32H7xx_HAL_Driver/Src/stm32h7xx_hal_flash_ex.c ****   else
ARM GAS  /tmp/ccw511VT.s 			page 53


 992:./Drivers/STM32H7xx_HAL_Driver/Src/stm32h7xx_hal_flash_ex.c ****   {
 993:./Drivers/STM32H7xx_HAL_Driver/Src/stm32h7xx_hal_flash_ex.c ****     return rdp_level;
 1979              		.loc 1 993 12
 1980 0026 7B68     		ldr	r3, [r7, #4]
 1981              	.L127:
 994:./Drivers/STM32H7xx_HAL_Driver/Src/stm32h7xx_hal_flash_ex.c ****   }
 995:./Drivers/STM32H7xx_HAL_Driver/Src/stm32h7xx_hal_flash_ex.c **** }
 1982              		.loc 1 995 1
 1983 0028 1846     		mov	r0, r3
 1984 002a 0C37     		adds	r7, r7, #12
 1985              		.cfi_def_cfa_offset 4
 1986 002c BD46     		mov	sp, r7
 1987              		.cfi_def_cfa_register 13
 1988              		@ sp needed
 1989 002e 5DF8047B 		ldr	r7, [sp], #4
 1990              		.cfi_restore 7
 1991              		.cfi_def_cfa_offset 0
 1992 0032 7047     		bx	lr
 1993              	.L129:
 1994              		.align	2
 1995              	.L128:
 1996 0034 00200052 		.word	1375739904
 1997              		.cfi_endproc
 1998              	.LFE149:
 2000              		.section	.text.FLASH_OB_UserConfig,"ax",%progbits
 2001              		.align	1
 2002              		.syntax unified
 2003              		.thumb
 2004              		.thumb_func
 2005              		.fpu fpv5-d16
 2007              	FLASH_OB_UserConfig:
 2008              	.LFB150:
 996:./Drivers/STM32H7xx_HAL_Driver/Src/stm32h7xx_hal_flash_ex.c **** 
 997:./Drivers/STM32H7xx_HAL_Driver/Src/stm32h7xx_hal_flash_ex.c **** #if defined(DUAL_CORE)
 998:./Drivers/STM32H7xx_HAL_Driver/Src/stm32h7xx_hal_flash_ex.c **** /**
 999:./Drivers/STM32H7xx_HAL_Driver/Src/stm32h7xx_hal_flash_ex.c ****   * @brief  Program the FLASH User Option Byte.
1000:./Drivers/STM32H7xx_HAL_Driver/Src/stm32h7xx_hal_flash_ex.c ****   *
1001:./Drivers/STM32H7xx_HAL_Driver/Src/stm32h7xx_hal_flash_ex.c ****   * @note   To configure the user option bytes, the option lock bit OPTLOCK must
1002:./Drivers/STM32H7xx_HAL_Driver/Src/stm32h7xx_hal_flash_ex.c ****   *         be cleared with the call of the HAL_FLASH_OB_Unlock() function.
1003:./Drivers/STM32H7xx_HAL_Driver/Src/stm32h7xx_hal_flash_ex.c ****   *
1004:./Drivers/STM32H7xx_HAL_Driver/Src/stm32h7xx_hal_flash_ex.c ****   * @note   To validate the user option bytes, the option bytes must be reloaded
1005:./Drivers/STM32H7xx_HAL_Driver/Src/stm32h7xx_hal_flash_ex.c ****   *         through the call of the HAL_FLASH_OB_Launch() function.
1006:./Drivers/STM32H7xx_HAL_Driver/Src/stm32h7xx_hal_flash_ex.c ****   *
1007:./Drivers/STM32H7xx_HAL_Driver/Src/stm32h7xx_hal_flash_ex.c ****   * @param  UserType The FLASH User Option Bytes to be modified :
1008:./Drivers/STM32H7xx_HAL_Driver/Src/stm32h7xx_hal_flash_ex.c ****   *                   a combination of @ref FLASHEx_OB_USER_Type
1009:./Drivers/STM32H7xx_HAL_Driver/Src/stm32h7xx_hal_flash_ex.c ****   *
1010:./Drivers/STM32H7xx_HAL_Driver/Src/stm32h7xx_hal_flash_ex.c ****   * @param  UserConfig The FLASH User Option Bytes values:
1011:./Drivers/STM32H7xx_HAL_Driver/Src/stm32h7xx_hal_flash_ex.c ****   *         IWDG1_SW(Bit4), IWDG2_SW(Bit 5), nRST_STOP_D1(Bit 6), nRST_STDY_D1(Bit 7),
1012:./Drivers/STM32H7xx_HAL_Driver/Src/stm32h7xx_hal_flash_ex.c ****   *         FZ_IWDG_STOP(Bit 17), FZ_IWDG_SDBY(Bit 18), ST_RAM_SIZE(Bit[19:20]),
1013:./Drivers/STM32H7xx_HAL_Driver/Src/stm32h7xx_hal_flash_ex.c ****   *         SECURITY(Bit 21), BCM4(Bit 22), BCM7(Bit 23), nRST_STOP_D2(Bit 24),
1014:./Drivers/STM32H7xx_HAL_Driver/Src/stm32h7xx_hal_flash_ex.c ****   *         nRST_STDY_D2(Bit 25), IO_HSLV (Bit 29) and SWAP_BANK_OPT(Bit 31).
1015:./Drivers/STM32H7xx_HAL_Driver/Src/stm32h7xx_hal_flash_ex.c ****   *
1016:./Drivers/STM32H7xx_HAL_Driver/Src/stm32h7xx_hal_flash_ex.c ****   * @retval HAL status
1017:./Drivers/STM32H7xx_HAL_Driver/Src/stm32h7xx_hal_flash_ex.c ****   */
1018:./Drivers/STM32H7xx_HAL_Driver/Src/stm32h7xx_hal_flash_ex.c **** #else
1019:./Drivers/STM32H7xx_HAL_Driver/Src/stm32h7xx_hal_flash_ex.c **** /**
1020:./Drivers/STM32H7xx_HAL_Driver/Src/stm32h7xx_hal_flash_ex.c ****   * @brief  Program the FLASH User Option Byte.
ARM GAS  /tmp/ccw511VT.s 			page 54


1021:./Drivers/STM32H7xx_HAL_Driver/Src/stm32h7xx_hal_flash_ex.c ****   *
1022:./Drivers/STM32H7xx_HAL_Driver/Src/stm32h7xx_hal_flash_ex.c ****   * @note   To configure the user option bytes, the option lock bit OPTLOCK must
1023:./Drivers/STM32H7xx_HAL_Driver/Src/stm32h7xx_hal_flash_ex.c ****   *         be cleared with the call of the HAL_FLASH_OB_Unlock() function.
1024:./Drivers/STM32H7xx_HAL_Driver/Src/stm32h7xx_hal_flash_ex.c ****   *
1025:./Drivers/STM32H7xx_HAL_Driver/Src/stm32h7xx_hal_flash_ex.c ****   * @note   To validate the user option bytes, the option bytes must be reloaded
1026:./Drivers/STM32H7xx_HAL_Driver/Src/stm32h7xx_hal_flash_ex.c ****   *         through the call of the HAL_FLASH_OB_Launch() function.
1027:./Drivers/STM32H7xx_HAL_Driver/Src/stm32h7xx_hal_flash_ex.c ****   *
1028:./Drivers/STM32H7xx_HAL_Driver/Src/stm32h7xx_hal_flash_ex.c ****   * @param  UserType The FLASH User Option Bytes to be modified :
1029:./Drivers/STM32H7xx_HAL_Driver/Src/stm32h7xx_hal_flash_ex.c ****   *                   a combination of @arg FLASHEx_OB_USER_Type
1030:./Drivers/STM32H7xx_HAL_Driver/Src/stm32h7xx_hal_flash_ex.c ****   *
1031:./Drivers/STM32H7xx_HAL_Driver/Src/stm32h7xx_hal_flash_ex.c ****   * @param  UserConfig The FLASH User Option Bytes values:
1032:./Drivers/STM32H7xx_HAL_Driver/Src/stm32h7xx_hal_flash_ex.c ****   *         IWDG_SW(Bit4), nRST_STOP_D1(Bit 6), nRST_STDY_D1(Bit 7),
1033:./Drivers/STM32H7xx_HAL_Driver/Src/stm32h7xx_hal_flash_ex.c ****   *         FZ_IWDG_STOP(Bit 17), FZ_IWDG_SDBY(Bit 18), ST_RAM_SIZE(Bit[19:20]),
1034:./Drivers/STM32H7xx_HAL_Driver/Src/stm32h7xx_hal_flash_ex.c ****   *         SECURITY(Bit 21), IO_HSLV (Bit 29) and SWAP_BANK_OPT(Bit 31).
1035:./Drivers/STM32H7xx_HAL_Driver/Src/stm32h7xx_hal_flash_ex.c ****   *
1036:./Drivers/STM32H7xx_HAL_Driver/Src/stm32h7xx_hal_flash_ex.c ****   * @retval HAL status
1037:./Drivers/STM32H7xx_HAL_Driver/Src/stm32h7xx_hal_flash_ex.c ****   */
1038:./Drivers/STM32H7xx_HAL_Driver/Src/stm32h7xx_hal_flash_ex.c **** #endif /*DUAL_CORE*/
1039:./Drivers/STM32H7xx_HAL_Driver/Src/stm32h7xx_hal_flash_ex.c **** static void FLASH_OB_UserConfig(uint32_t UserType, uint32_t UserConfig)
1040:./Drivers/STM32H7xx_HAL_Driver/Src/stm32h7xx_hal_flash_ex.c **** {
 2009              		.loc 1 1040 1
 2010              		.cfi_startproc
 2011              		@ args = 0, pretend = 0, frame = 16
 2012              		@ frame_needed = 1, uses_anonymous_args = 0
 2013              		@ link register save eliminated.
 2014 0000 80B4     		push	{r7}
 2015              		.cfi_def_cfa_offset 4
 2016              		.cfi_offset 7, -4
 2017 0002 85B0     		sub	sp, sp, #20
 2018              		.cfi_def_cfa_offset 24
 2019 0004 00AF     		add	r7, sp, #0
 2020              		.cfi_def_cfa_register 7
 2021 0006 7860     		str	r0, [r7, #4]
 2022 0008 3960     		str	r1, [r7]
1041:./Drivers/STM32H7xx_HAL_Driver/Src/stm32h7xx_hal_flash_ex.c ****   uint32_t optr_reg_val = 0;
 2023              		.loc 1 1041 12
 2024 000a 0023     		movs	r3, #0
 2025 000c FB60     		str	r3, [r7, #12]
1042:./Drivers/STM32H7xx_HAL_Driver/Src/stm32h7xx_hal_flash_ex.c ****   uint32_t optr_reg_mask = 0;
 2026              		.loc 1 1042 12
 2027 000e 0023     		movs	r3, #0
 2028 0010 BB60     		str	r3, [r7, #8]
1043:./Drivers/STM32H7xx_HAL_Driver/Src/stm32h7xx_hal_flash_ex.c **** 
1044:./Drivers/STM32H7xx_HAL_Driver/Src/stm32h7xx_hal_flash_ex.c ****   /* Check the parameters */
1045:./Drivers/STM32H7xx_HAL_Driver/Src/stm32h7xx_hal_flash_ex.c ****   assert_param(IS_OB_USER_TYPE(UserType));
1046:./Drivers/STM32H7xx_HAL_Driver/Src/stm32h7xx_hal_flash_ex.c **** 
1047:./Drivers/STM32H7xx_HAL_Driver/Src/stm32h7xx_hal_flash_ex.c ****   if((UserType & OB_USER_IWDG1_SW) != 0U)
 2029              		.loc 1 1047 16
 2030 0012 7B68     		ldr	r3, [r7, #4]
 2031 0014 03F00103 		and	r3, r3, #1
 2032              		.loc 1 1047 5
 2033 0018 002B     		cmp	r3, #0
 2034 001a 09D0     		beq	.L131
1048:./Drivers/STM32H7xx_HAL_Driver/Src/stm32h7xx_hal_flash_ex.c ****   {
1049:./Drivers/STM32H7xx_HAL_Driver/Src/stm32h7xx_hal_flash_ex.c ****     /* IWDG_HW option byte should be modified */
1050:./Drivers/STM32H7xx_HAL_Driver/Src/stm32h7xx_hal_flash_ex.c ****     assert_param(IS_OB_IWDG1_SOURCE(UserConfig & FLASH_OPTSR_IWDG1_SW));
1051:./Drivers/STM32H7xx_HAL_Driver/Src/stm32h7xx_hal_flash_ex.c **** 
ARM GAS  /tmp/ccw511VT.s 			page 55


1052:./Drivers/STM32H7xx_HAL_Driver/Src/stm32h7xx_hal_flash_ex.c ****     /* Set value and mask for IWDG_HW option byte */
1053:./Drivers/STM32H7xx_HAL_Driver/Src/stm32h7xx_hal_flash_ex.c ****     optr_reg_val |= (UserConfig & FLASH_OPTSR_IWDG1_SW);
 2035              		.loc 1 1053 33
 2036 001c 3B68     		ldr	r3, [r7]
 2037 001e 03F01003 		and	r3, r3, #16
 2038              		.loc 1 1053 18
 2039 0022 FA68     		ldr	r2, [r7, #12]
 2040 0024 1343     		orrs	r3, r3, r2
 2041 0026 FB60     		str	r3, [r7, #12]
1054:./Drivers/STM32H7xx_HAL_Driver/Src/stm32h7xx_hal_flash_ex.c ****     optr_reg_mask |= FLASH_OPTSR_IWDG1_SW;
 2042              		.loc 1 1054 19
 2043 0028 BB68     		ldr	r3, [r7, #8]
 2044 002a 43F01003 		orr	r3, r3, #16
 2045 002e BB60     		str	r3, [r7, #8]
 2046              	.L131:
1055:./Drivers/STM32H7xx_HAL_Driver/Src/stm32h7xx_hal_flash_ex.c ****   }
1056:./Drivers/STM32H7xx_HAL_Driver/Src/stm32h7xx_hal_flash_ex.c **** #if defined(DUAL_CORE)
1057:./Drivers/STM32H7xx_HAL_Driver/Src/stm32h7xx_hal_flash_ex.c ****   if((UserType & OB_USER_IWDG2_SW) != 0U)
1058:./Drivers/STM32H7xx_HAL_Driver/Src/stm32h7xx_hal_flash_ex.c ****   {
1059:./Drivers/STM32H7xx_HAL_Driver/Src/stm32h7xx_hal_flash_ex.c ****     /* IWDG2_SW option byte should be modified */
1060:./Drivers/STM32H7xx_HAL_Driver/Src/stm32h7xx_hal_flash_ex.c ****     assert_param(IS_OB_IWDG2_SOURCE(UserConfig & FLASH_OPTSR_IWDG2_SW));
1061:./Drivers/STM32H7xx_HAL_Driver/Src/stm32h7xx_hal_flash_ex.c **** 
1062:./Drivers/STM32H7xx_HAL_Driver/Src/stm32h7xx_hal_flash_ex.c ****     /* Set value and mask for IWDG2_SW option byte */
1063:./Drivers/STM32H7xx_HAL_Driver/Src/stm32h7xx_hal_flash_ex.c ****     optr_reg_val |= (UserConfig & FLASH_OPTSR_IWDG2_SW);
1064:./Drivers/STM32H7xx_HAL_Driver/Src/stm32h7xx_hal_flash_ex.c ****     optr_reg_mask |= FLASH_OPTSR_IWDG2_SW;
1065:./Drivers/STM32H7xx_HAL_Driver/Src/stm32h7xx_hal_flash_ex.c ****   }
1066:./Drivers/STM32H7xx_HAL_Driver/Src/stm32h7xx_hal_flash_ex.c **** #endif /*DUAL_CORE*/
1067:./Drivers/STM32H7xx_HAL_Driver/Src/stm32h7xx_hal_flash_ex.c ****   if((UserType & OB_USER_NRST_STOP_D1) != 0U)
 2047              		.loc 1 1067 16
 2048 0030 7B68     		ldr	r3, [r7, #4]
 2049 0032 03F00203 		and	r3, r3, #2
 2050              		.loc 1 1067 5
 2051 0036 002B     		cmp	r3, #0
 2052 0038 09D0     		beq	.L132
1068:./Drivers/STM32H7xx_HAL_Driver/Src/stm32h7xx_hal_flash_ex.c ****   {
1069:./Drivers/STM32H7xx_HAL_Driver/Src/stm32h7xx_hal_flash_ex.c ****     /* NRST_STOP option byte should be modified */
1070:./Drivers/STM32H7xx_HAL_Driver/Src/stm32h7xx_hal_flash_ex.c ****     assert_param(IS_OB_STOP_D1_RESET(UserConfig & FLASH_OPTSR_NRST_STOP_D1));
1071:./Drivers/STM32H7xx_HAL_Driver/Src/stm32h7xx_hal_flash_ex.c **** 
1072:./Drivers/STM32H7xx_HAL_Driver/Src/stm32h7xx_hal_flash_ex.c ****     /* Set value and mask for NRST_STOP option byte */
1073:./Drivers/STM32H7xx_HAL_Driver/Src/stm32h7xx_hal_flash_ex.c ****     optr_reg_val |= (UserConfig & FLASH_OPTSR_NRST_STOP_D1);
 2053              		.loc 1 1073 33
 2054 003a 3B68     		ldr	r3, [r7]
 2055 003c 03F04003 		and	r3, r3, #64
 2056              		.loc 1 1073 18
 2057 0040 FA68     		ldr	r2, [r7, #12]
 2058 0042 1343     		orrs	r3, r3, r2
 2059 0044 FB60     		str	r3, [r7, #12]
1074:./Drivers/STM32H7xx_HAL_Driver/Src/stm32h7xx_hal_flash_ex.c ****     optr_reg_mask |= FLASH_OPTSR_NRST_STOP_D1;
 2060              		.loc 1 1074 19
 2061 0046 BB68     		ldr	r3, [r7, #8]
 2062 0048 43F04003 		orr	r3, r3, #64
 2063 004c BB60     		str	r3, [r7, #8]
 2064              	.L132:
1075:./Drivers/STM32H7xx_HAL_Driver/Src/stm32h7xx_hal_flash_ex.c ****   }
1076:./Drivers/STM32H7xx_HAL_Driver/Src/stm32h7xx_hal_flash_ex.c **** 
1077:./Drivers/STM32H7xx_HAL_Driver/Src/stm32h7xx_hal_flash_ex.c ****   if((UserType & OB_USER_NRST_STDBY_D1) != 0U)
 2065              		.loc 1 1077 16
ARM GAS  /tmp/ccw511VT.s 			page 56


 2066 004e 7B68     		ldr	r3, [r7, #4]
 2067 0050 03F00403 		and	r3, r3, #4
 2068              		.loc 1 1077 5
 2069 0054 002B     		cmp	r3, #0
 2070 0056 09D0     		beq	.L133
1078:./Drivers/STM32H7xx_HAL_Driver/Src/stm32h7xx_hal_flash_ex.c ****   {
1079:./Drivers/STM32H7xx_HAL_Driver/Src/stm32h7xx_hal_flash_ex.c ****     /* NRST_STDBY option byte should be modified */
1080:./Drivers/STM32H7xx_HAL_Driver/Src/stm32h7xx_hal_flash_ex.c ****     assert_param(IS_OB_STDBY_D1_RESET(UserConfig & FLASH_OPTSR_NRST_STBY_D1));
1081:./Drivers/STM32H7xx_HAL_Driver/Src/stm32h7xx_hal_flash_ex.c **** 
1082:./Drivers/STM32H7xx_HAL_Driver/Src/stm32h7xx_hal_flash_ex.c ****     /* Set value and mask for NRST_STDBY option byte */
1083:./Drivers/STM32H7xx_HAL_Driver/Src/stm32h7xx_hal_flash_ex.c ****     optr_reg_val |= (UserConfig & FLASH_OPTSR_NRST_STBY_D1);
 2071              		.loc 1 1083 33
 2072 0058 3B68     		ldr	r3, [r7]
 2073 005a 03F08003 		and	r3, r3, #128
 2074              		.loc 1 1083 18
 2075 005e FA68     		ldr	r2, [r7, #12]
 2076 0060 1343     		orrs	r3, r3, r2
 2077 0062 FB60     		str	r3, [r7, #12]
1084:./Drivers/STM32H7xx_HAL_Driver/Src/stm32h7xx_hal_flash_ex.c ****     optr_reg_mask |= FLASH_OPTSR_NRST_STBY_D1;
 2078              		.loc 1 1084 19
 2079 0064 BB68     		ldr	r3, [r7, #8]
 2080 0066 43F08003 		orr	r3, r3, #128
 2081 006a BB60     		str	r3, [r7, #8]
 2082              	.L133:
1085:./Drivers/STM32H7xx_HAL_Driver/Src/stm32h7xx_hal_flash_ex.c ****   }
1086:./Drivers/STM32H7xx_HAL_Driver/Src/stm32h7xx_hal_flash_ex.c **** 
1087:./Drivers/STM32H7xx_HAL_Driver/Src/stm32h7xx_hal_flash_ex.c ****   if((UserType & OB_USER_IWDG_STOP) != 0U)
 2083              		.loc 1 1087 16
 2084 006c 7B68     		ldr	r3, [r7, #4]
 2085 006e 03F00803 		and	r3, r3, #8
 2086              		.loc 1 1087 5
 2087 0072 002B     		cmp	r3, #0
 2088 0074 09D0     		beq	.L134
1088:./Drivers/STM32H7xx_HAL_Driver/Src/stm32h7xx_hal_flash_ex.c ****   {
1089:./Drivers/STM32H7xx_HAL_Driver/Src/stm32h7xx_hal_flash_ex.c ****     /* IWDG_STOP option byte should be modified */
1090:./Drivers/STM32H7xx_HAL_Driver/Src/stm32h7xx_hal_flash_ex.c ****     assert_param(IS_OB_USER_IWDG_STOP(UserConfig & FLASH_OPTSR_FZ_IWDG_STOP));
1091:./Drivers/STM32H7xx_HAL_Driver/Src/stm32h7xx_hal_flash_ex.c **** 
1092:./Drivers/STM32H7xx_HAL_Driver/Src/stm32h7xx_hal_flash_ex.c ****     /* Set value and mask for IWDG_STOP option byte */
1093:./Drivers/STM32H7xx_HAL_Driver/Src/stm32h7xx_hal_flash_ex.c ****     optr_reg_val |= (UserConfig & FLASH_OPTSR_FZ_IWDG_STOP);
 2089              		.loc 1 1093 33
 2090 0076 3B68     		ldr	r3, [r7]
 2091 0078 03F40033 		and	r3, r3, #131072
 2092              		.loc 1 1093 18
 2093 007c FA68     		ldr	r2, [r7, #12]
 2094 007e 1343     		orrs	r3, r3, r2
 2095 0080 FB60     		str	r3, [r7, #12]
1094:./Drivers/STM32H7xx_HAL_Driver/Src/stm32h7xx_hal_flash_ex.c ****     optr_reg_mask |= FLASH_OPTSR_FZ_IWDG_STOP;
 2096              		.loc 1 1094 19
 2097 0082 BB68     		ldr	r3, [r7, #8]
 2098 0084 43F40033 		orr	r3, r3, #131072
 2099 0088 BB60     		str	r3, [r7, #8]
 2100              	.L134:
1095:./Drivers/STM32H7xx_HAL_Driver/Src/stm32h7xx_hal_flash_ex.c ****   }
1096:./Drivers/STM32H7xx_HAL_Driver/Src/stm32h7xx_hal_flash_ex.c **** 
1097:./Drivers/STM32H7xx_HAL_Driver/Src/stm32h7xx_hal_flash_ex.c ****   if((UserType & OB_USER_IWDG_STDBY) != 0U)
 2101              		.loc 1 1097 16
 2102 008a 7B68     		ldr	r3, [r7, #4]
ARM GAS  /tmp/ccw511VT.s 			page 57


 2103 008c 03F01003 		and	r3, r3, #16
 2104              		.loc 1 1097 5
 2105 0090 002B     		cmp	r3, #0
 2106 0092 09D0     		beq	.L135
1098:./Drivers/STM32H7xx_HAL_Driver/Src/stm32h7xx_hal_flash_ex.c ****   {
1099:./Drivers/STM32H7xx_HAL_Driver/Src/stm32h7xx_hal_flash_ex.c ****     /* IWDG_STDBY option byte should be modified */
1100:./Drivers/STM32H7xx_HAL_Driver/Src/stm32h7xx_hal_flash_ex.c ****     assert_param(IS_OB_USER_IWDG_STDBY(UserConfig & FLASH_OPTSR_FZ_IWDG_SDBY));
1101:./Drivers/STM32H7xx_HAL_Driver/Src/stm32h7xx_hal_flash_ex.c **** 
1102:./Drivers/STM32H7xx_HAL_Driver/Src/stm32h7xx_hal_flash_ex.c ****     /* Set value and mask for IWDG_STDBY option byte */
1103:./Drivers/STM32H7xx_HAL_Driver/Src/stm32h7xx_hal_flash_ex.c ****     optr_reg_val |= (UserConfig & FLASH_OPTSR_FZ_IWDG_SDBY);
 2107              		.loc 1 1103 33
 2108 0094 3B68     		ldr	r3, [r7]
 2109 0096 03F48023 		and	r3, r3, #262144
 2110              		.loc 1 1103 18
 2111 009a FA68     		ldr	r2, [r7, #12]
 2112 009c 1343     		orrs	r3, r3, r2
 2113 009e FB60     		str	r3, [r7, #12]
1104:./Drivers/STM32H7xx_HAL_Driver/Src/stm32h7xx_hal_flash_ex.c ****     optr_reg_mask |= FLASH_OPTSR_FZ_IWDG_SDBY;
 2114              		.loc 1 1104 19
 2115 00a0 BB68     		ldr	r3, [r7, #8]
 2116 00a2 43F48023 		orr	r3, r3, #262144
 2117 00a6 BB60     		str	r3, [r7, #8]
 2118              	.L135:
1105:./Drivers/STM32H7xx_HAL_Driver/Src/stm32h7xx_hal_flash_ex.c ****   }
1106:./Drivers/STM32H7xx_HAL_Driver/Src/stm32h7xx_hal_flash_ex.c **** 
1107:./Drivers/STM32H7xx_HAL_Driver/Src/stm32h7xx_hal_flash_ex.c ****   if((UserType & OB_USER_ST_RAM_SIZE) != 0U)
 2119              		.loc 1 1107 16
 2120 00a8 7B68     		ldr	r3, [r7, #4]
 2121 00aa 03F02003 		and	r3, r3, #32
 2122              		.loc 1 1107 5
 2123 00ae 002B     		cmp	r3, #0
 2124 00b0 09D0     		beq	.L136
1108:./Drivers/STM32H7xx_HAL_Driver/Src/stm32h7xx_hal_flash_ex.c ****   {
1109:./Drivers/STM32H7xx_HAL_Driver/Src/stm32h7xx_hal_flash_ex.c ****     /* ST_RAM_SIZE option byte should be modified */
1110:./Drivers/STM32H7xx_HAL_Driver/Src/stm32h7xx_hal_flash_ex.c ****     assert_param(IS_OB_USER_ST_RAM_SIZE(UserConfig & FLASH_OPTSR_ST_RAM_SIZE));
1111:./Drivers/STM32H7xx_HAL_Driver/Src/stm32h7xx_hal_flash_ex.c **** 
1112:./Drivers/STM32H7xx_HAL_Driver/Src/stm32h7xx_hal_flash_ex.c ****     /* Set value and mask for ST_RAM_SIZE option byte */
1113:./Drivers/STM32H7xx_HAL_Driver/Src/stm32h7xx_hal_flash_ex.c ****     optr_reg_val |= (UserConfig & FLASH_OPTSR_ST_RAM_SIZE);
 2125              		.loc 1 1113 33
 2126 00b2 3B68     		ldr	r3, [r7]
 2127 00b4 03F4C013 		and	r3, r3, #1572864
 2128              		.loc 1 1113 18
 2129 00b8 FA68     		ldr	r2, [r7, #12]
 2130 00ba 1343     		orrs	r3, r3, r2
 2131 00bc FB60     		str	r3, [r7, #12]
1114:./Drivers/STM32H7xx_HAL_Driver/Src/stm32h7xx_hal_flash_ex.c ****     optr_reg_mask |= FLASH_OPTSR_ST_RAM_SIZE;
 2132              		.loc 1 1114 19
 2133 00be BB68     		ldr	r3, [r7, #8]
 2134 00c0 43F4C013 		orr	r3, r3, #1572864
 2135 00c4 BB60     		str	r3, [r7, #8]
 2136              	.L136:
1115:./Drivers/STM32H7xx_HAL_Driver/Src/stm32h7xx_hal_flash_ex.c ****   }
1116:./Drivers/STM32H7xx_HAL_Driver/Src/stm32h7xx_hal_flash_ex.c **** 
1117:./Drivers/STM32H7xx_HAL_Driver/Src/stm32h7xx_hal_flash_ex.c ****   if((UserType & OB_USER_SECURITY) != 0U)
 2137              		.loc 1 1117 16
 2138 00c6 7B68     		ldr	r3, [r7, #4]
 2139 00c8 03F04003 		and	r3, r3, #64
ARM GAS  /tmp/ccw511VT.s 			page 58


 2140              		.loc 1 1117 5
 2141 00cc 002B     		cmp	r3, #0
 2142 00ce 09D0     		beq	.L137
1118:./Drivers/STM32H7xx_HAL_Driver/Src/stm32h7xx_hal_flash_ex.c ****   {
1119:./Drivers/STM32H7xx_HAL_Driver/Src/stm32h7xx_hal_flash_ex.c ****     /* SECURITY option byte should be modified */
1120:./Drivers/STM32H7xx_HAL_Driver/Src/stm32h7xx_hal_flash_ex.c ****     assert_param(IS_OB_USER_SECURITY(UserConfig & FLASH_OPTSR_SECURITY));
1121:./Drivers/STM32H7xx_HAL_Driver/Src/stm32h7xx_hal_flash_ex.c **** 
1122:./Drivers/STM32H7xx_HAL_Driver/Src/stm32h7xx_hal_flash_ex.c ****     /* Set value and mask for SECURITY option byte */
1123:./Drivers/STM32H7xx_HAL_Driver/Src/stm32h7xx_hal_flash_ex.c ****     optr_reg_val |= (UserConfig & FLASH_OPTSR_SECURITY);
 2143              		.loc 1 1123 33
 2144 00d0 3B68     		ldr	r3, [r7]
 2145 00d2 03F40013 		and	r3, r3, #2097152
 2146              		.loc 1 1123 18
 2147 00d6 FA68     		ldr	r2, [r7, #12]
 2148 00d8 1343     		orrs	r3, r3, r2
 2149 00da FB60     		str	r3, [r7, #12]
1124:./Drivers/STM32H7xx_HAL_Driver/Src/stm32h7xx_hal_flash_ex.c ****     optr_reg_mask |= FLASH_OPTSR_SECURITY;
 2150              		.loc 1 1124 19
 2151 00dc BB68     		ldr	r3, [r7, #8]
 2152 00de 43F40013 		orr	r3, r3, #2097152
 2153 00e2 BB60     		str	r3, [r7, #8]
 2154              	.L137:
1125:./Drivers/STM32H7xx_HAL_Driver/Src/stm32h7xx_hal_flash_ex.c ****   }
1126:./Drivers/STM32H7xx_HAL_Driver/Src/stm32h7xx_hal_flash_ex.c **** 
1127:./Drivers/STM32H7xx_HAL_Driver/Src/stm32h7xx_hal_flash_ex.c **** #if defined(DUAL_CORE)
1128:./Drivers/STM32H7xx_HAL_Driver/Src/stm32h7xx_hal_flash_ex.c ****   if((UserType & OB_USER_BCM4) != 0U)
1129:./Drivers/STM32H7xx_HAL_Driver/Src/stm32h7xx_hal_flash_ex.c ****   {
1130:./Drivers/STM32H7xx_HAL_Driver/Src/stm32h7xx_hal_flash_ex.c ****     /* BCM4 option byte should be modified */
1131:./Drivers/STM32H7xx_HAL_Driver/Src/stm32h7xx_hal_flash_ex.c ****     assert_param(IS_OB_USER_BCM4(UserConfig & FLASH_OPTSR_BCM4));
1132:./Drivers/STM32H7xx_HAL_Driver/Src/stm32h7xx_hal_flash_ex.c **** 
1133:./Drivers/STM32H7xx_HAL_Driver/Src/stm32h7xx_hal_flash_ex.c ****     /* Set value and mask for BCM4 option byte */
1134:./Drivers/STM32H7xx_HAL_Driver/Src/stm32h7xx_hal_flash_ex.c ****     optr_reg_val |= (UserConfig & FLASH_OPTSR_BCM4);
1135:./Drivers/STM32H7xx_HAL_Driver/Src/stm32h7xx_hal_flash_ex.c ****     optr_reg_mask |= FLASH_OPTSR_BCM4;
1136:./Drivers/STM32H7xx_HAL_Driver/Src/stm32h7xx_hal_flash_ex.c ****   }
1137:./Drivers/STM32H7xx_HAL_Driver/Src/stm32h7xx_hal_flash_ex.c **** 
1138:./Drivers/STM32H7xx_HAL_Driver/Src/stm32h7xx_hal_flash_ex.c ****   if((UserType & OB_USER_BCM7) != 0U)
1139:./Drivers/STM32H7xx_HAL_Driver/Src/stm32h7xx_hal_flash_ex.c ****   {
1140:./Drivers/STM32H7xx_HAL_Driver/Src/stm32h7xx_hal_flash_ex.c ****     /* BCM7 option byte should be modified */
1141:./Drivers/STM32H7xx_HAL_Driver/Src/stm32h7xx_hal_flash_ex.c ****     assert_param(IS_OB_USER_BCM7(UserConfig & FLASH_OPTSR_BCM7));
1142:./Drivers/STM32H7xx_HAL_Driver/Src/stm32h7xx_hal_flash_ex.c **** 
1143:./Drivers/STM32H7xx_HAL_Driver/Src/stm32h7xx_hal_flash_ex.c ****     /* Set value and mask for BCM7 option byte */
1144:./Drivers/STM32H7xx_HAL_Driver/Src/stm32h7xx_hal_flash_ex.c ****     optr_reg_val |= (UserConfig & FLASH_OPTSR_BCM7);
1145:./Drivers/STM32H7xx_HAL_Driver/Src/stm32h7xx_hal_flash_ex.c ****     optr_reg_mask |= FLASH_OPTSR_BCM7;
1146:./Drivers/STM32H7xx_HAL_Driver/Src/stm32h7xx_hal_flash_ex.c ****   }
1147:./Drivers/STM32H7xx_HAL_Driver/Src/stm32h7xx_hal_flash_ex.c **** 
1148:./Drivers/STM32H7xx_HAL_Driver/Src/stm32h7xx_hal_flash_ex.c ****   if((UserType & OB_USER_NRST_STOP_D2) != 0U)
1149:./Drivers/STM32H7xx_HAL_Driver/Src/stm32h7xx_hal_flash_ex.c ****   {
1150:./Drivers/STM32H7xx_HAL_Driver/Src/stm32h7xx_hal_flash_ex.c ****     /* NRST_STOP option byte should be modified */
1151:./Drivers/STM32H7xx_HAL_Driver/Src/stm32h7xx_hal_flash_ex.c ****     assert_param(IS_OB_STOP_D2_RESET(UserConfig & FLASH_OPTSR_NRST_STOP_D2));
1152:./Drivers/STM32H7xx_HAL_Driver/Src/stm32h7xx_hal_flash_ex.c **** 
1153:./Drivers/STM32H7xx_HAL_Driver/Src/stm32h7xx_hal_flash_ex.c ****     /* Set value and mask for NRST_STOP option byte */
1154:./Drivers/STM32H7xx_HAL_Driver/Src/stm32h7xx_hal_flash_ex.c ****     optr_reg_val |= (UserConfig & FLASH_OPTSR_NRST_STOP_D2);
1155:./Drivers/STM32H7xx_HAL_Driver/Src/stm32h7xx_hal_flash_ex.c ****     optr_reg_mask |= FLASH_OPTSR_NRST_STOP_D2;
1156:./Drivers/STM32H7xx_HAL_Driver/Src/stm32h7xx_hal_flash_ex.c ****   }
1157:./Drivers/STM32H7xx_HAL_Driver/Src/stm32h7xx_hal_flash_ex.c **** 
1158:./Drivers/STM32H7xx_HAL_Driver/Src/stm32h7xx_hal_flash_ex.c ****   if((UserType & OB_USER_NRST_STDBY_D2) != 0U)
1159:./Drivers/STM32H7xx_HAL_Driver/Src/stm32h7xx_hal_flash_ex.c ****   {
ARM GAS  /tmp/ccw511VT.s 			page 59


1160:./Drivers/STM32H7xx_HAL_Driver/Src/stm32h7xx_hal_flash_ex.c ****     /* NRST_STDBY option byte should be modified */
1161:./Drivers/STM32H7xx_HAL_Driver/Src/stm32h7xx_hal_flash_ex.c ****     assert_param(IS_OB_STDBY_D2_RESET(UserConfig & FLASH_OPTSR_NRST_STBY_D2));
1162:./Drivers/STM32H7xx_HAL_Driver/Src/stm32h7xx_hal_flash_ex.c **** 
1163:./Drivers/STM32H7xx_HAL_Driver/Src/stm32h7xx_hal_flash_ex.c ****     /* Set value and mask for NRST_STDBY option byte */
1164:./Drivers/STM32H7xx_HAL_Driver/Src/stm32h7xx_hal_flash_ex.c ****     optr_reg_val |= (UserConfig & FLASH_OPTSR_NRST_STBY_D2);
1165:./Drivers/STM32H7xx_HAL_Driver/Src/stm32h7xx_hal_flash_ex.c ****     optr_reg_mask |= FLASH_OPTSR_NRST_STBY_D2;
1166:./Drivers/STM32H7xx_HAL_Driver/Src/stm32h7xx_hal_flash_ex.c ****   }
1167:./Drivers/STM32H7xx_HAL_Driver/Src/stm32h7xx_hal_flash_ex.c **** #endif /*DUAL_CORE*/
1168:./Drivers/STM32H7xx_HAL_Driver/Src/stm32h7xx_hal_flash_ex.c ****   if((UserType & OB_USER_SWAP_BANK) != 0U)
 2155              		.loc 1 1168 16
 2156 00e4 7B68     		ldr	r3, [r7, #4]
 2157 00e6 03F48073 		and	r3, r3, #256
 2158              		.loc 1 1168 5
 2159 00ea 002B     		cmp	r3, #0
 2160 00ec 09D0     		beq	.L138
1169:./Drivers/STM32H7xx_HAL_Driver/Src/stm32h7xx_hal_flash_ex.c ****   {
1170:./Drivers/STM32H7xx_HAL_Driver/Src/stm32h7xx_hal_flash_ex.c ****     /* SWAP_BANK_OPT option byte should be modified */
1171:./Drivers/STM32H7xx_HAL_Driver/Src/stm32h7xx_hal_flash_ex.c ****     assert_param(IS_OB_USER_SWAP_BANK(UserConfig & FLASH_OPTSR_SWAP_BANK_OPT));
1172:./Drivers/STM32H7xx_HAL_Driver/Src/stm32h7xx_hal_flash_ex.c **** 
1173:./Drivers/STM32H7xx_HAL_Driver/Src/stm32h7xx_hal_flash_ex.c ****     /* Set value and mask for SWAP_BANK_OPT option byte */
1174:./Drivers/STM32H7xx_HAL_Driver/Src/stm32h7xx_hal_flash_ex.c ****     optr_reg_val |= (UserConfig & FLASH_OPTSR_SWAP_BANK_OPT);
 2161              		.loc 1 1174 33
 2162 00ee 3B68     		ldr	r3, [r7]
 2163 00f0 03F00043 		and	r3, r3, #-2147483648
 2164              		.loc 1 1174 18
 2165 00f4 FA68     		ldr	r2, [r7, #12]
 2166 00f6 1343     		orrs	r3, r3, r2
 2167 00f8 FB60     		str	r3, [r7, #12]
1175:./Drivers/STM32H7xx_HAL_Driver/Src/stm32h7xx_hal_flash_ex.c ****     optr_reg_mask |= FLASH_OPTSR_SWAP_BANK_OPT;
 2168              		.loc 1 1175 19
 2169 00fa BB68     		ldr	r3, [r7, #8]
 2170 00fc 43F00043 		orr	r3, r3, #-2147483648
 2171 0100 BB60     		str	r3, [r7, #8]
 2172              	.L138:
1176:./Drivers/STM32H7xx_HAL_Driver/Src/stm32h7xx_hal_flash_ex.c ****   }
1177:./Drivers/STM32H7xx_HAL_Driver/Src/stm32h7xx_hal_flash_ex.c **** 
1178:./Drivers/STM32H7xx_HAL_Driver/Src/stm32h7xx_hal_flash_ex.c ****   if((UserType & OB_USER_IOHSLV) != 0U)
 2173              		.loc 1 1178 16
 2174 0102 7B68     		ldr	r3, [r7, #4]
 2175 0104 03F08003 		and	r3, r3, #128
 2176              		.loc 1 1178 5
 2177 0108 002B     		cmp	r3, #0
 2178 010a 09D0     		beq	.L139
1179:./Drivers/STM32H7xx_HAL_Driver/Src/stm32h7xx_hal_flash_ex.c ****   {
1180:./Drivers/STM32H7xx_HAL_Driver/Src/stm32h7xx_hal_flash_ex.c ****     /* IOHSLV_OPT option byte should be modified */
1181:./Drivers/STM32H7xx_HAL_Driver/Src/stm32h7xx_hal_flash_ex.c ****     assert_param(IS_OB_USER_IOHSLV(UserConfig & FLASH_OPTSR_IO_HSLV));
1182:./Drivers/STM32H7xx_HAL_Driver/Src/stm32h7xx_hal_flash_ex.c **** 
1183:./Drivers/STM32H7xx_HAL_Driver/Src/stm32h7xx_hal_flash_ex.c ****     /* Set value and mask for IOHSLV_OPT option byte */
1184:./Drivers/STM32H7xx_HAL_Driver/Src/stm32h7xx_hal_flash_ex.c ****     optr_reg_val |= (UserConfig & FLASH_OPTSR_IO_HSLV);
 2179              		.loc 1 1184 33
 2180 010c 3B68     		ldr	r3, [r7]
 2181 010e 03F00053 		and	r3, r3, #536870912
 2182              		.loc 1 1184 18
 2183 0112 FA68     		ldr	r2, [r7, #12]
 2184 0114 1343     		orrs	r3, r3, r2
 2185 0116 FB60     		str	r3, [r7, #12]
1185:./Drivers/STM32H7xx_HAL_Driver/Src/stm32h7xx_hal_flash_ex.c ****     optr_reg_mask |= FLASH_OPTSR_IO_HSLV;
ARM GAS  /tmp/ccw511VT.s 			page 60


 2186              		.loc 1 1185 19
 2187 0118 BB68     		ldr	r3, [r7, #8]
 2188 011a 43F00053 		orr	r3, r3, #536870912
 2189 011e BB60     		str	r3, [r7, #8]
 2190              	.L139:
1186:./Drivers/STM32H7xx_HAL_Driver/Src/stm32h7xx_hal_flash_ex.c ****   }
1187:./Drivers/STM32H7xx_HAL_Driver/Src/stm32h7xx_hal_flash_ex.c **** 
1188:./Drivers/STM32H7xx_HAL_Driver/Src/stm32h7xx_hal_flash_ex.c ****   /* Configure the option bytes register */
1189:./Drivers/STM32H7xx_HAL_Driver/Src/stm32h7xx_hal_flash_ex.c ****   MODIFY_REG(FLASH->OPTSR_PRG, optr_reg_mask, optr_reg_val);
 2191              		.loc 1 1189 3
 2192 0120 074B     		ldr	r3, .L140
 2193 0122 1A6A     		ldr	r2, [r3, #32]
 2194 0124 BB68     		ldr	r3, [r7, #8]
 2195 0126 DB43     		mvns	r3, r3
 2196 0128 1A40     		ands	r2, r2, r3
 2197 012a 0549     		ldr	r1, .L140
 2198 012c FB68     		ldr	r3, [r7, #12]
 2199 012e 1343     		orrs	r3, r3, r2
 2200 0130 0B62     		str	r3, [r1, #32]
1190:./Drivers/STM32H7xx_HAL_Driver/Src/stm32h7xx_hal_flash_ex.c **** }
 2201              		.loc 1 1190 1
 2202 0132 00BF     		nop
 2203 0134 1437     		adds	r7, r7, #20
 2204              		.cfi_def_cfa_offset 4
 2205 0136 BD46     		mov	sp, r7
 2206              		.cfi_def_cfa_register 13
 2207              		@ sp needed
 2208 0138 5DF8047B 		ldr	r7, [sp], #4
 2209              		.cfi_restore 7
 2210              		.cfi_def_cfa_offset 0
 2211 013c 7047     		bx	lr
 2212              	.L141:
 2213 013e 00BF     		.align	2
 2214              	.L140:
 2215 0140 00200052 		.word	1375739904
 2216              		.cfi_endproc
 2217              	.LFE150:
 2219              		.section	.text.FLASH_OB_GetUser,"ax",%progbits
 2220              		.align	1
 2221              		.syntax unified
 2222              		.thumb
 2223              		.thumb_func
 2224              		.fpu fpv5-d16
 2226              	FLASH_OB_GetUser:
 2227              	.LFB151:
1191:./Drivers/STM32H7xx_HAL_Driver/Src/stm32h7xx_hal_flash_ex.c **** 
1192:./Drivers/STM32H7xx_HAL_Driver/Src/stm32h7xx_hal_flash_ex.c **** #if defined(DUAL_CORE)
1193:./Drivers/STM32H7xx_HAL_Driver/Src/stm32h7xx_hal_flash_ex.c **** /**
1194:./Drivers/STM32H7xx_HAL_Driver/Src/stm32h7xx_hal_flash_ex.c ****   * @brief  Return the FLASH User Option Byte value.
1195:./Drivers/STM32H7xx_HAL_Driver/Src/stm32h7xx_hal_flash_ex.c ****   * @retval The FLASH User Option Bytes values
1196:./Drivers/STM32H7xx_HAL_Driver/Src/stm32h7xx_hal_flash_ex.c ****   *         IWDG1_SW(Bit4), IWDG2_SW(Bit 5), nRST_STOP_D1(Bit 6), nRST_STDY_D1(Bit 7),
1197:./Drivers/STM32H7xx_HAL_Driver/Src/stm32h7xx_hal_flash_ex.c ****   *         FZ_IWDG_STOP(Bit 17), FZ_IWDG_SDBY(Bit 18), ST_RAM_SIZE(Bit[19:20]),
1198:./Drivers/STM32H7xx_HAL_Driver/Src/stm32h7xx_hal_flash_ex.c ****   *         SECURITY(Bit 21), BCM4(Bit 22), BCM7(Bit 23), nRST_STOP_D2(Bit 24),
1199:./Drivers/STM32H7xx_HAL_Driver/Src/stm32h7xx_hal_flash_ex.c ****   *         nRST_STDY_D2(Bit 25), IO_HSLV (Bit 29) and SWAP_BANK_OPT(Bit 31).
1200:./Drivers/STM32H7xx_HAL_Driver/Src/stm32h7xx_hal_flash_ex.c ****   */
1201:./Drivers/STM32H7xx_HAL_Driver/Src/stm32h7xx_hal_flash_ex.c **** #else
1202:./Drivers/STM32H7xx_HAL_Driver/Src/stm32h7xx_hal_flash_ex.c **** /**
ARM GAS  /tmp/ccw511VT.s 			page 61


1203:./Drivers/STM32H7xx_HAL_Driver/Src/stm32h7xx_hal_flash_ex.c ****   * @brief  Return the FLASH User Option Byte value.
1204:./Drivers/STM32H7xx_HAL_Driver/Src/stm32h7xx_hal_flash_ex.c ****   * @retval The FLASH User Option Bytes values
1205:./Drivers/STM32H7xx_HAL_Driver/Src/stm32h7xx_hal_flash_ex.c ****   *         IWDG_SW(Bit4), nRST_STOP_D1(Bit 6), nRST_STDY_D1(Bit 7),
1206:./Drivers/STM32H7xx_HAL_Driver/Src/stm32h7xx_hal_flash_ex.c ****   *         FZ_IWDG_STOP(Bit 17), FZ_IWDG_SDBY(Bit 18), ST_RAM_SIZE(Bit[19:20]),
1207:./Drivers/STM32H7xx_HAL_Driver/Src/stm32h7xx_hal_flash_ex.c ****   *         SECURITY(Bit 21), IO_HSLV (Bit 29) and SWAP_BANK_OPT(Bit 31).
1208:./Drivers/STM32H7xx_HAL_Driver/Src/stm32h7xx_hal_flash_ex.c ****   */
1209:./Drivers/STM32H7xx_HAL_Driver/Src/stm32h7xx_hal_flash_ex.c **** #endif /*DUAL_CORE*/
1210:./Drivers/STM32H7xx_HAL_Driver/Src/stm32h7xx_hal_flash_ex.c **** static uint32_t FLASH_OB_GetUser(void)
1211:./Drivers/STM32H7xx_HAL_Driver/Src/stm32h7xx_hal_flash_ex.c **** {
 2228              		.loc 1 1211 1
 2229              		.cfi_startproc
 2230              		@ args = 0, pretend = 0, frame = 8
 2231              		@ frame_needed = 1, uses_anonymous_args = 0
 2232              		@ link register save eliminated.
 2233 0000 80B4     		push	{r7}
 2234              		.cfi_def_cfa_offset 4
 2235              		.cfi_offset 7, -4
 2236 0002 83B0     		sub	sp, sp, #12
 2237              		.cfi_def_cfa_offset 16
 2238 0004 00AF     		add	r7, sp, #0
 2239              		.cfi_def_cfa_register 7
1212:./Drivers/STM32H7xx_HAL_Driver/Src/stm32h7xx_hal_flash_ex.c ****   uint32_t userConfig = READ_REG(FLASH->OPTSR_CUR);
 2240              		.loc 1 1212 25
 2241 0006 074B     		ldr	r3, .L144
 2242              		.loc 1 1212 12
 2243 0008 DB69     		ldr	r3, [r3, #28]
 2244 000a 7B60     		str	r3, [r7, #4]
1213:./Drivers/STM32H7xx_HAL_Driver/Src/stm32h7xx_hal_flash_ex.c ****   userConfig &= (~(FLASH_OPTSR_BOR_LEV | FLASH_OPTSR_RDP));
 2245              		.loc 1 1213 14
 2246 000c 7A68     		ldr	r2, [r7, #4]
 2247 000e 064B     		ldr	r3, .L144+4
 2248 0010 1340     		ands	r3, r3, r2
 2249 0012 7B60     		str	r3, [r7, #4]
1214:./Drivers/STM32H7xx_HAL_Driver/Src/stm32h7xx_hal_flash_ex.c **** 
1215:./Drivers/STM32H7xx_HAL_Driver/Src/stm32h7xx_hal_flash_ex.c ****   return userConfig;
 2250              		.loc 1 1215 10
 2251 0014 7B68     		ldr	r3, [r7, #4]
1216:./Drivers/STM32H7xx_HAL_Driver/Src/stm32h7xx_hal_flash_ex.c **** }
 2252              		.loc 1 1216 1
 2253 0016 1846     		mov	r0, r3
 2254 0018 0C37     		adds	r7, r7, #12
 2255              		.cfi_def_cfa_offset 4
 2256 001a BD46     		mov	sp, r7
 2257              		.cfi_def_cfa_register 13
 2258              		@ sp needed
 2259 001c 5DF8047B 		ldr	r7, [sp], #4
 2260              		.cfi_restore 7
 2261              		.cfi_def_cfa_offset 0
 2262 0020 7047     		bx	lr
 2263              	.L145:
 2264 0022 00BF     		.align	2
 2265              	.L144:
 2266 0024 00200052 		.word	1375739904
 2267 0028 F300FFFF 		.word	-65293
 2268              		.cfi_endproc
 2269              	.LFE151:
 2271              		.section	.text.FLASH_OB_PCROPConfig,"ax",%progbits
ARM GAS  /tmp/ccw511VT.s 			page 62


 2272              		.align	1
 2273              		.syntax unified
 2274              		.thumb
 2275              		.thumb_func
 2276              		.fpu fpv5-d16
 2278              	FLASH_OB_PCROPConfig:
 2279              	.LFB152:
1217:./Drivers/STM32H7xx_HAL_Driver/Src/stm32h7xx_hal_flash_ex.c **** 
1218:./Drivers/STM32H7xx_HAL_Driver/Src/stm32h7xx_hal_flash_ex.c **** /**
1219:./Drivers/STM32H7xx_HAL_Driver/Src/stm32h7xx_hal_flash_ex.c ****   * @brief  Configure the Proprietary code readout protection of the desired addresses
1220:./Drivers/STM32H7xx_HAL_Driver/Src/stm32h7xx_hal_flash_ex.c ****   *
1221:./Drivers/STM32H7xx_HAL_Driver/Src/stm32h7xx_hal_flash_ex.c ****   * @note   To configure the PCROP options, the option lock bit OPTLOCK must be
1222:./Drivers/STM32H7xx_HAL_Driver/Src/stm32h7xx_hal_flash_ex.c ****   *         cleared with the call of the HAL_FLASH_OB_Unlock() function.
1223:./Drivers/STM32H7xx_HAL_Driver/Src/stm32h7xx_hal_flash_ex.c ****   * @note   To validate the PCROP options, the option bytes must be reloaded
1224:./Drivers/STM32H7xx_HAL_Driver/Src/stm32h7xx_hal_flash_ex.c ****   *         through the call of the HAL_FLASH_OB_Launch() function.
1225:./Drivers/STM32H7xx_HAL_Driver/Src/stm32h7xx_hal_flash_ex.c ****   *
1226:./Drivers/STM32H7xx_HAL_Driver/Src/stm32h7xx_hal_flash_ex.c ****   * @param  PCROPConfig specifies if the PCROP area for the given Bank shall be erased or not
1227:./Drivers/STM32H7xx_HAL_Driver/Src/stm32h7xx_hal_flash_ex.c ****   *         when RDP level decreased from Level 1 to Level 0, or after a bank erase with protection
1228:./Drivers/STM32H7xx_HAL_Driver/Src/stm32h7xx_hal_flash_ex.c ****   *         This parameter must be a value of @arg FLASHEx_OB_PCROP_RDP enumeration
1229:./Drivers/STM32H7xx_HAL_Driver/Src/stm32h7xx_hal_flash_ex.c ****   *
1230:./Drivers/STM32H7xx_HAL_Driver/Src/stm32h7xx_hal_flash_ex.c ****   * @param  PCROPStartAddr specifies the start address of the Proprietary code readout protection
1231:./Drivers/STM32H7xx_HAL_Driver/Src/stm32h7xx_hal_flash_ex.c ****   *          This parameter can be an address between begin and end of the bank
1232:./Drivers/STM32H7xx_HAL_Driver/Src/stm32h7xx_hal_flash_ex.c ****   *
1233:./Drivers/STM32H7xx_HAL_Driver/Src/stm32h7xx_hal_flash_ex.c ****   * @param  PCROPEndAddr specifies the end address of the Proprietary code readout protection
1234:./Drivers/STM32H7xx_HAL_Driver/Src/stm32h7xx_hal_flash_ex.c ****   *          This parameter can be an address between PCROPStartAddr and end of the bank
1235:./Drivers/STM32H7xx_HAL_Driver/Src/stm32h7xx_hal_flash_ex.c ****   *
1236:./Drivers/STM32H7xx_HAL_Driver/Src/stm32h7xx_hal_flash_ex.c ****   * @param  Banks the specific bank to apply PCROP protection
1237:./Drivers/STM32H7xx_HAL_Driver/Src/stm32h7xx_hal_flash_ex.c ****   *          This parameter can be one of the following values:
1238:./Drivers/STM32H7xx_HAL_Driver/Src/stm32h7xx_hal_flash_ex.c ****   *            @arg FLASH_BANK_1: PCROP on specified bank1 area
1239:./Drivers/STM32H7xx_HAL_Driver/Src/stm32h7xx_hal_flash_ex.c ****   *            @arg FLASH_BANK_2: PCROP on specified bank2 area
1240:./Drivers/STM32H7xx_HAL_Driver/Src/stm32h7xx_hal_flash_ex.c ****   *            @arg FLASH_BANK_BOTH: PCROP on specified bank1 and bank2 area (same config will be a
1241:./Drivers/STM32H7xx_HAL_Driver/Src/stm32h7xx_hal_flash_ex.c ****   *
1242:./Drivers/STM32H7xx_HAL_Driver/Src/stm32h7xx_hal_flash_ex.c ****   * @retval None
1243:./Drivers/STM32H7xx_HAL_Driver/Src/stm32h7xx_hal_flash_ex.c ****   */
1244:./Drivers/STM32H7xx_HAL_Driver/Src/stm32h7xx_hal_flash_ex.c **** static void FLASH_OB_PCROPConfig(uint32_t PCROPConfig, uint32_t PCROPStartAddr, uint32_t PCROPEndAd
1245:./Drivers/STM32H7xx_HAL_Driver/Src/stm32h7xx_hal_flash_ex.c **** {
 2280              		.loc 1 1245 1
 2281              		.cfi_startproc
 2282              		@ args = 0, pretend = 0, frame = 16
 2283              		@ frame_needed = 1, uses_anonymous_args = 0
 2284              		@ link register save eliminated.
 2285 0000 80B4     		push	{r7}
 2286              		.cfi_def_cfa_offset 4
 2287              		.cfi_offset 7, -4
 2288 0002 85B0     		sub	sp, sp, #20
 2289              		.cfi_def_cfa_offset 24
 2290 0004 00AF     		add	r7, sp, #0
 2291              		.cfi_def_cfa_register 7
 2292 0006 F860     		str	r0, [r7, #12]
 2293 0008 B960     		str	r1, [r7, #8]
 2294 000a 7A60     		str	r2, [r7, #4]
 2295 000c 3B60     		str	r3, [r7]
1246:./Drivers/STM32H7xx_HAL_Driver/Src/stm32h7xx_hal_flash_ex.c ****   /* Check the parameters */
1247:./Drivers/STM32H7xx_HAL_Driver/Src/stm32h7xx_hal_flash_ex.c ****   assert_param(IS_FLASH_BANK(Banks));
1248:./Drivers/STM32H7xx_HAL_Driver/Src/stm32h7xx_hal_flash_ex.c ****   assert_param(IS_OB_PCROP_RDP(PCROPConfig));
1249:./Drivers/STM32H7xx_HAL_Driver/Src/stm32h7xx_hal_flash_ex.c **** 
1250:./Drivers/STM32H7xx_HAL_Driver/Src/stm32h7xx_hal_flash_ex.c ****   if((Banks & FLASH_BANK_1) == FLASH_BANK_1)
ARM GAS  /tmp/ccw511VT.s 			page 63


 2296              		.loc 1 1250 13
 2297 000e 3B68     		ldr	r3, [r7]
 2298 0010 03F00103 		and	r3, r3, #1
 2299              		.loc 1 1250 5
 2300 0014 002B     		cmp	r3, #0
 2301 0016 0DD0     		beq	.L147
1251:./Drivers/STM32H7xx_HAL_Driver/Src/stm32h7xx_hal_flash_ex.c ****   {
1252:./Drivers/STM32H7xx_HAL_Driver/Src/stm32h7xx_hal_flash_ex.c ****     assert_param(IS_FLASH_PROGRAM_ADDRESS_BANK1(PCROPStartAddr));
1253:./Drivers/STM32H7xx_HAL_Driver/Src/stm32h7xx_hal_flash_ex.c ****     assert_param(IS_FLASH_PROGRAM_ADDRESS_BANK1(PCROPEndAddr));
1254:./Drivers/STM32H7xx_HAL_Driver/Src/stm32h7xx_hal_flash_ex.c **** 
1255:./Drivers/STM32H7xx_HAL_Driver/Src/stm32h7xx_hal_flash_ex.c ****     /* Configure the Proprietary code readout protection */
1256:./Drivers/STM32H7xx_HAL_Driver/Src/stm32h7xx_hal_flash_ex.c ****     FLASH->PRAR_PRG1 = ((PCROPStartAddr - FLASH_BANK1_BASE) >> 8)                                 |
 2302              		.loc 1 1256 41
 2303 0018 BB68     		ldr	r3, [r7, #8]
 2304 001a 03F17843 		add	r3, r3, #-134217728
 2305              		.loc 1 1256 61
 2306 001e 1A0A     		lsrs	r2, r3, #8
1257:./Drivers/STM32H7xx_HAL_Driver/Src/stm32h7xx_hal_flash_ex.c ****                        (((PCROPEndAddr - FLASH_BANK1_BASE) >> 8) << FLASH_PRAR_PROT_AREA_END_Pos) |
 2307              		.loc 1 1257 40
 2308 0020 7B68     		ldr	r3, [r7, #4]
 2309 0022 03F17843 		add	r3, r3, #-134217728
 2310              		.loc 1 1257 60
 2311 0026 1B0A     		lsrs	r3, r3, #8
 2312              		.loc 1 1257 66
 2313 0028 1B04     		lsls	r3, r3, #16
1256:./Drivers/STM32H7xx_HAL_Driver/Src/stm32h7xx_hal_flash_ex.c ****                        (((PCROPEndAddr - FLASH_BANK1_BASE) >> 8) << FLASH_PRAR_PROT_AREA_END_Pos) |
 2314              		.loc 1 1256 99
 2315 002a 1A43     		orrs	r2, r2, r3
1256:./Drivers/STM32H7xx_HAL_Driver/Src/stm32h7xx_hal_flash_ex.c ****                        (((PCROPEndAddr - FLASH_BANK1_BASE) >> 8) << FLASH_PRAR_PROT_AREA_END_Pos) |
 2316              		.loc 1 1256 10
 2317 002c 0E49     		ldr	r1, .L150
 2318              		.loc 1 1257 99
 2319 002e FB68     		ldr	r3, [r7, #12]
 2320 0030 1343     		orrs	r3, r3, r2
1256:./Drivers/STM32H7xx_HAL_Driver/Src/stm32h7xx_hal_flash_ex.c ****                        (((PCROPEndAddr - FLASH_BANK1_BASE) >> 8) << FLASH_PRAR_PROT_AREA_END_Pos) |
 2321              		.loc 1 1256 22
 2322 0032 CB62     		str	r3, [r1, #44]
 2323              	.L147:
1258:./Drivers/STM32H7xx_HAL_Driver/Src/stm32h7xx_hal_flash_ex.c ****                        PCROPConfig;
1259:./Drivers/STM32H7xx_HAL_Driver/Src/stm32h7xx_hal_flash_ex.c ****   }
1260:./Drivers/STM32H7xx_HAL_Driver/Src/stm32h7xx_hal_flash_ex.c **** 
1261:./Drivers/STM32H7xx_HAL_Driver/Src/stm32h7xx_hal_flash_ex.c ****   if((Banks & FLASH_BANK_2) == FLASH_BANK_2)
 2324              		.loc 1 1261 13
 2325 0034 3B68     		ldr	r3, [r7]
 2326 0036 03F00203 		and	r3, r3, #2
 2327              		.loc 1 1261 5
 2328 003a 002B     		cmp	r3, #0
 2329 003c 0ED0     		beq	.L149
1262:./Drivers/STM32H7xx_HAL_Driver/Src/stm32h7xx_hal_flash_ex.c ****   {
1263:./Drivers/STM32H7xx_HAL_Driver/Src/stm32h7xx_hal_flash_ex.c ****     assert_param(IS_FLASH_PROGRAM_ADDRESS_BANK2(PCROPStartAddr));
1264:./Drivers/STM32H7xx_HAL_Driver/Src/stm32h7xx_hal_flash_ex.c ****     assert_param(IS_FLASH_PROGRAM_ADDRESS_BANK2(PCROPEndAddr));
1265:./Drivers/STM32H7xx_HAL_Driver/Src/stm32h7xx_hal_flash_ex.c **** 
1266:./Drivers/STM32H7xx_HAL_Driver/Src/stm32h7xx_hal_flash_ex.c ****     /* Configure the Proprietary code readout protection */
1267:./Drivers/STM32H7xx_HAL_Driver/Src/stm32h7xx_hal_flash_ex.c ****     FLASH->PRAR_PRG2 = ((PCROPStartAddr - FLASH_BANK2_BASE) >> 8)                                 |
 2330              		.loc 1 1267 41
 2331 003e BB68     		ldr	r3, [r7, #8]
 2332 0040 A3F10163 		sub	r3, r3, #135266304
ARM GAS  /tmp/ccw511VT.s 			page 64


 2333              		.loc 1 1267 61
 2334 0044 1A0A     		lsrs	r2, r3, #8
1268:./Drivers/STM32H7xx_HAL_Driver/Src/stm32h7xx_hal_flash_ex.c ****                        (((PCROPEndAddr - FLASH_BANK2_BASE) >> 8) << FLASH_PRAR_PROT_AREA_END_Pos) |
 2335              		.loc 1 1268 40
 2336 0046 7B68     		ldr	r3, [r7, #4]
 2337 0048 A3F10163 		sub	r3, r3, #135266304
 2338              		.loc 1 1268 60
 2339 004c 1B0A     		lsrs	r3, r3, #8
 2340              		.loc 1 1268 66
 2341 004e 1B04     		lsls	r3, r3, #16
1267:./Drivers/STM32H7xx_HAL_Driver/Src/stm32h7xx_hal_flash_ex.c ****                        (((PCROPEndAddr - FLASH_BANK2_BASE) >> 8) << FLASH_PRAR_PROT_AREA_END_Pos) |
 2342              		.loc 1 1267 99
 2343 0050 1A43     		orrs	r2, r2, r3
1267:./Drivers/STM32H7xx_HAL_Driver/Src/stm32h7xx_hal_flash_ex.c ****                        (((PCROPEndAddr - FLASH_BANK2_BASE) >> 8) << FLASH_PRAR_PROT_AREA_END_Pos) |
 2344              		.loc 1 1267 10
 2345 0052 0549     		ldr	r1, .L150
 2346              		.loc 1 1268 99
 2347 0054 FB68     		ldr	r3, [r7, #12]
 2348 0056 1343     		orrs	r3, r3, r2
1267:./Drivers/STM32H7xx_HAL_Driver/Src/stm32h7xx_hal_flash_ex.c ****                        (((PCROPEndAddr - FLASH_BANK2_BASE) >> 8) << FLASH_PRAR_PROT_AREA_END_Pos) |
 2349              		.loc 1 1267 22
 2350 0058 C1F82C31 		str	r3, [r1, #300]
 2351              	.L149:
1269:./Drivers/STM32H7xx_HAL_Driver/Src/stm32h7xx_hal_flash_ex.c ****                        PCROPConfig;
1270:./Drivers/STM32H7xx_HAL_Driver/Src/stm32h7xx_hal_flash_ex.c ****   }
1271:./Drivers/STM32H7xx_HAL_Driver/Src/stm32h7xx_hal_flash_ex.c **** }
 2352              		.loc 1 1271 1
 2353 005c 00BF     		nop
 2354 005e 1437     		adds	r7, r7, #20
 2355              		.cfi_def_cfa_offset 4
 2356 0060 BD46     		mov	sp, r7
 2357              		.cfi_def_cfa_register 13
 2358              		@ sp needed
 2359 0062 5DF8047B 		ldr	r7, [sp], #4
 2360              		.cfi_restore 7
 2361              		.cfi_def_cfa_offset 0
 2362 0066 7047     		bx	lr
 2363              	.L151:
 2364              		.align	2
 2365              	.L150:
 2366 0068 00200052 		.word	1375739904
 2367              		.cfi_endproc
 2368              	.LFE152:
 2370              		.section	.text.FLASH_OB_GetPCROP,"ax",%progbits
 2371              		.align	1
 2372              		.syntax unified
 2373              		.thumb
 2374              		.thumb_func
 2375              		.fpu fpv5-d16
 2377              	FLASH_OB_GetPCROP:
 2378              	.LFB153:
1272:./Drivers/STM32H7xx_HAL_Driver/Src/stm32h7xx_hal_flash_ex.c **** 
1273:./Drivers/STM32H7xx_HAL_Driver/Src/stm32h7xx_hal_flash_ex.c **** /**
1274:./Drivers/STM32H7xx_HAL_Driver/Src/stm32h7xx_hal_flash_ex.c ****   * @brief  Get the Proprietary code readout protection configuration on a given Bank
1275:./Drivers/STM32H7xx_HAL_Driver/Src/stm32h7xx_hal_flash_ex.c ****   *
1276:./Drivers/STM32H7xx_HAL_Driver/Src/stm32h7xx_hal_flash_ex.c ****   * @param  PCROPConfig indicates if the PCROP area for the given Bank shall be erased or not
1277:./Drivers/STM32H7xx_HAL_Driver/Src/stm32h7xx_hal_flash_ex.c ****   *         when RDP level decreased from Level 1 to Level 0 or after a bank erase with protection 
ARM GAS  /tmp/ccw511VT.s 			page 65


1278:./Drivers/STM32H7xx_HAL_Driver/Src/stm32h7xx_hal_flash_ex.c ****   *
1279:./Drivers/STM32H7xx_HAL_Driver/Src/stm32h7xx_hal_flash_ex.c ****   * @param  PCROPStartAddr gives the start address of the Proprietary code readout protection of th
1280:./Drivers/STM32H7xx_HAL_Driver/Src/stm32h7xx_hal_flash_ex.c ****   *
1281:./Drivers/STM32H7xx_HAL_Driver/Src/stm32h7xx_hal_flash_ex.c ****   * @param  PCROPEndAddr gives the end address of the Proprietary code readout protection of the ba
1282:./Drivers/STM32H7xx_HAL_Driver/Src/stm32h7xx_hal_flash_ex.c ****   *
1283:./Drivers/STM32H7xx_HAL_Driver/Src/stm32h7xx_hal_flash_ex.c ****   * @param  Bank the specific bank to apply PCROP protection
1284:./Drivers/STM32H7xx_HAL_Driver/Src/stm32h7xx_hal_flash_ex.c ****   *          This parameter can be exclusively one of the following values:
1285:./Drivers/STM32H7xx_HAL_Driver/Src/stm32h7xx_hal_flash_ex.c ****   *            @arg FLASH_BANK_1: PCROP on specified bank1 area
1286:./Drivers/STM32H7xx_HAL_Driver/Src/stm32h7xx_hal_flash_ex.c ****   *            @arg FLASH_BANK_2: PCROP on specified bank2 area
1287:./Drivers/STM32H7xx_HAL_Driver/Src/stm32h7xx_hal_flash_ex.c ****   *            @arg FLASH_BANK_BOTH: is  not allowed here
1288:./Drivers/STM32H7xx_HAL_Driver/Src/stm32h7xx_hal_flash_ex.c ****   *
1289:./Drivers/STM32H7xx_HAL_Driver/Src/stm32h7xx_hal_flash_ex.c ****   * @retval None
1290:./Drivers/STM32H7xx_HAL_Driver/Src/stm32h7xx_hal_flash_ex.c ****   */
1291:./Drivers/STM32H7xx_HAL_Driver/Src/stm32h7xx_hal_flash_ex.c **** static void FLASH_OB_GetPCROP(uint32_t *PCROPConfig, uint32_t *PCROPStartAddr, uint32_t *PCROPEndAd
1292:./Drivers/STM32H7xx_HAL_Driver/Src/stm32h7xx_hal_flash_ex.c **** {
 2379              		.loc 1 1292 1
 2380              		.cfi_startproc
 2381              		@ args = 0, pretend = 0, frame = 24
 2382              		@ frame_needed = 1, uses_anonymous_args = 0
 2383              		@ link register save eliminated.
 2384 0000 80B4     		push	{r7}
 2385              		.cfi_def_cfa_offset 4
 2386              		.cfi_offset 7, -4
 2387 0002 87B0     		sub	sp, sp, #28
 2388              		.cfi_def_cfa_offset 32
 2389 0004 00AF     		add	r7, sp, #0
 2390              		.cfi_def_cfa_register 7
 2391 0006 F860     		str	r0, [r7, #12]
 2392 0008 B960     		str	r1, [r7, #8]
 2393 000a 7A60     		str	r2, [r7, #4]
 2394 000c 3B60     		str	r3, [r7]
1293:./Drivers/STM32H7xx_HAL_Driver/Src/stm32h7xx_hal_flash_ex.c ****   uint32_t regvalue = 0;
 2395              		.loc 1 1293 12
 2396 000e 0023     		movs	r3, #0
 2397 0010 7B61     		str	r3, [r7, #20]
1294:./Drivers/STM32H7xx_HAL_Driver/Src/stm32h7xx_hal_flash_ex.c ****   uint32_t bankBase = 0;
 2398              		.loc 1 1294 12
 2399 0012 0023     		movs	r3, #0
 2400 0014 3B61     		str	r3, [r7, #16]
1295:./Drivers/STM32H7xx_HAL_Driver/Src/stm32h7xx_hal_flash_ex.c **** 
1296:./Drivers/STM32H7xx_HAL_Driver/Src/stm32h7xx_hal_flash_ex.c ****   if((Bank & FLASH_BANK_BOTH) == FLASH_BANK_1)
 2401              		.loc 1 1296 12
 2402 0016 3B68     		ldr	r3, [r7]
 2403 0018 03F00303 		and	r3, r3, #3
 2404              		.loc 1 1296 5
 2405 001c 012B     		cmp	r3, #1
 2406 001e 05D1     		bne	.L153
1297:./Drivers/STM32H7xx_HAL_Driver/Src/stm32h7xx_hal_flash_ex.c ****   {
1298:./Drivers/STM32H7xx_HAL_Driver/Src/stm32h7xx_hal_flash_ex.c ****     regvalue = FLASH->PRAR_CUR1;
 2407              		.loc 1 1298 21
 2408 0020 184B     		ldr	r3, .L155
 2409              		.loc 1 1298 14
 2410 0022 9B6A     		ldr	r3, [r3, #40]
 2411 0024 7B61     		str	r3, [r7, #20]
1299:./Drivers/STM32H7xx_HAL_Driver/Src/stm32h7xx_hal_flash_ex.c ****     bankBase = FLASH_BANK1_BASE;
 2412              		.loc 1 1299 14
 2413 0026 4FF00063 		mov	r3, #134217728
ARM GAS  /tmp/ccw511VT.s 			page 66


 2414 002a 3B61     		str	r3, [r7, #16]
 2415              	.L153:
1300:./Drivers/STM32H7xx_HAL_Driver/Src/stm32h7xx_hal_flash_ex.c ****   }
1301:./Drivers/STM32H7xx_HAL_Driver/Src/stm32h7xx_hal_flash_ex.c **** 
1302:./Drivers/STM32H7xx_HAL_Driver/Src/stm32h7xx_hal_flash_ex.c ****   if((Bank & FLASH_BANK_BOTH) == FLASH_BANK_2)
 2416              		.loc 1 1302 12
 2417 002c 3B68     		ldr	r3, [r7]
 2418 002e 03F00303 		and	r3, r3, #3
 2419              		.loc 1 1302 5
 2420 0032 022B     		cmp	r3, #2
 2421 0034 06D1     		bne	.L154
1303:./Drivers/STM32H7xx_HAL_Driver/Src/stm32h7xx_hal_flash_ex.c ****   {
1304:./Drivers/STM32H7xx_HAL_Driver/Src/stm32h7xx_hal_flash_ex.c ****     regvalue = FLASH->PRAR_CUR2;
 2422              		.loc 1 1304 21
 2423 0036 134B     		ldr	r3, .L155
 2424              		.loc 1 1304 14
 2425 0038 D3F82831 		ldr	r3, [r3, #296]
 2426 003c 7B61     		str	r3, [r7, #20]
1305:./Drivers/STM32H7xx_HAL_Driver/Src/stm32h7xx_hal_flash_ex.c ****     bankBase = FLASH_BANK2_BASE;
 2427              		.loc 1 1305 14
 2428 003e 4FF00163 		mov	r3, #135266304
 2429 0042 3B61     		str	r3, [r7, #16]
 2430              	.L154:
1306:./Drivers/STM32H7xx_HAL_Driver/Src/stm32h7xx_hal_flash_ex.c ****   }
1307:./Drivers/STM32H7xx_HAL_Driver/Src/stm32h7xx_hal_flash_ex.c **** 
1308:./Drivers/STM32H7xx_HAL_Driver/Src/stm32h7xx_hal_flash_ex.c ****   (*PCROPConfig) =  (regvalue & FLASH_PRAR_DMEP);
 2431              		.loc 1 1308 31
 2432 0044 7B69     		ldr	r3, [r7, #20]
 2433 0046 03F00042 		and	r2, r3, #-2147483648
 2434              		.loc 1 1308 18
 2435 004a FB68     		ldr	r3, [r7, #12]
 2436 004c 1A60     		str	r2, [r3]
1309:./Drivers/STM32H7xx_HAL_Driver/Src/stm32h7xx_hal_flash_ex.c **** 
1310:./Drivers/STM32H7xx_HAL_Driver/Src/stm32h7xx_hal_flash_ex.c ****   (*PCROPStartAddr) = ((regvalue & FLASH_PRAR_PROT_AREA_START) << 8) + bankBase;
 2437              		.loc 1 1310 64
 2438 004e 7B69     		ldr	r3, [r7, #20]
 2439 0050 1A02     		lsls	r2, r3, #8
 2440 0052 0D4B     		ldr	r3, .L155+4
 2441 0054 1340     		ands	r3, r3, r2
 2442              		.loc 1 1310 70
 2443 0056 3A69     		ldr	r2, [r7, #16]
 2444 0058 1A44     		add	r2, r2, r3
 2445              		.loc 1 1310 21
 2446 005a BB68     		ldr	r3, [r7, #8]
 2447 005c 1A60     		str	r2, [r3]
1311:./Drivers/STM32H7xx_HAL_Driver/Src/stm32h7xx_hal_flash_ex.c ****   (*PCROPEndAddr) = (regvalue & FLASH_PRAR_PROT_AREA_END) >> FLASH_PRAR_PROT_AREA_END_Pos;
 2448              		.loc 1 1311 59
 2449 005e 7B69     		ldr	r3, [r7, #20]
 2450 0060 1B0C     		lsrs	r3, r3, #16
 2451 0062 C3F30B02 		ubfx	r2, r3, #0, #12
 2452              		.loc 1 1311 19
 2453 0066 7B68     		ldr	r3, [r7, #4]
 2454 0068 1A60     		str	r2, [r3]
1312:./Drivers/STM32H7xx_HAL_Driver/Src/stm32h7xx_hal_flash_ex.c ****   (*PCROPEndAddr) = ((*PCROPEndAddr) << 8) + bankBase;
 2455              		.loc 1 1312 23
 2456 006a 7B68     		ldr	r3, [r7, #4]
 2457 006c 1B68     		ldr	r3, [r3]
ARM GAS  /tmp/ccw511VT.s 			page 67


 2458              		.loc 1 1312 38
 2459 006e 1A02     		lsls	r2, r3, #8
 2460              		.loc 1 1312 44
 2461 0070 3B69     		ldr	r3, [r7, #16]
 2462 0072 1A44     		add	r2, r2, r3
 2463              		.loc 1 1312 19
 2464 0074 7B68     		ldr	r3, [r7, #4]
 2465 0076 1A60     		str	r2, [r3]
1313:./Drivers/STM32H7xx_HAL_Driver/Src/stm32h7xx_hal_flash_ex.c **** }
 2466              		.loc 1 1313 1
 2467 0078 00BF     		nop
 2468 007a 1C37     		adds	r7, r7, #28
 2469              		.cfi_def_cfa_offset 4
 2470 007c BD46     		mov	sp, r7
 2471              		.cfi_def_cfa_register 13
 2472              		@ sp needed
 2473 007e 5DF8047B 		ldr	r7, [sp], #4
 2474              		.cfi_restore 7
 2475              		.cfi_def_cfa_offset 0
 2476 0082 7047     		bx	lr
 2477              	.L156:
 2478              		.align	2
 2479              	.L155:
 2480 0084 00200052 		.word	1375739904
 2481 0088 00FF0F00 		.word	1048320
 2482              		.cfi_endproc
 2483              	.LFE153:
 2485              		.section	.text.FLASH_OB_BOR_LevelConfig,"ax",%progbits
 2486              		.align	1
 2487              		.syntax unified
 2488              		.thumb
 2489              		.thumb_func
 2490              		.fpu fpv5-d16
 2492              	FLASH_OB_BOR_LevelConfig:
 2493              	.LFB154:
1314:./Drivers/STM32H7xx_HAL_Driver/Src/stm32h7xx_hal_flash_ex.c **** 
1315:./Drivers/STM32H7xx_HAL_Driver/Src/stm32h7xx_hal_flash_ex.c **** /**
1316:./Drivers/STM32H7xx_HAL_Driver/Src/stm32h7xx_hal_flash_ex.c ****   * @brief  Set the BOR Level.
1317:./Drivers/STM32H7xx_HAL_Driver/Src/stm32h7xx_hal_flash_ex.c ****   * @param  Level specifies the Option Bytes BOR Reset Level.
1318:./Drivers/STM32H7xx_HAL_Driver/Src/stm32h7xx_hal_flash_ex.c ****   *          This parameter can be one of the following values:
1319:./Drivers/STM32H7xx_HAL_Driver/Src/stm32h7xx_hal_flash_ex.c ****   *            @arg OB_BOR_LEVEL0: Reset level threshold is set to 1.6V
1320:./Drivers/STM32H7xx_HAL_Driver/Src/stm32h7xx_hal_flash_ex.c ****   *            @arg OB_BOR_LEVEL1: Reset level threshold is set to 2.1V
1321:./Drivers/STM32H7xx_HAL_Driver/Src/stm32h7xx_hal_flash_ex.c ****   *            @arg OB_BOR_LEVEL2: Reset level threshold is set to 2.4V
1322:./Drivers/STM32H7xx_HAL_Driver/Src/stm32h7xx_hal_flash_ex.c ****   *            @arg OB_BOR_LEVEL3: Reset level threshold is set to 2.7V
1323:./Drivers/STM32H7xx_HAL_Driver/Src/stm32h7xx_hal_flash_ex.c ****   * @retval None
1324:./Drivers/STM32H7xx_HAL_Driver/Src/stm32h7xx_hal_flash_ex.c ****   */
1325:./Drivers/STM32H7xx_HAL_Driver/Src/stm32h7xx_hal_flash_ex.c **** static void FLASH_OB_BOR_LevelConfig(uint32_t Level)
1326:./Drivers/STM32H7xx_HAL_Driver/Src/stm32h7xx_hal_flash_ex.c **** {
 2494              		.loc 1 1326 1
 2495              		.cfi_startproc
 2496              		@ args = 0, pretend = 0, frame = 8
 2497              		@ frame_needed = 1, uses_anonymous_args = 0
 2498              		@ link register save eliminated.
 2499 0000 80B4     		push	{r7}
 2500              		.cfi_def_cfa_offset 4
 2501              		.cfi_offset 7, -4
 2502 0002 83B0     		sub	sp, sp, #12
ARM GAS  /tmp/ccw511VT.s 			page 68


 2503              		.cfi_def_cfa_offset 16
 2504 0004 00AF     		add	r7, sp, #0
 2505              		.cfi_def_cfa_register 7
 2506 0006 7860     		str	r0, [r7, #4]
1327:./Drivers/STM32H7xx_HAL_Driver/Src/stm32h7xx_hal_flash_ex.c ****   assert_param(IS_OB_BOR_LEVEL(Level));
1328:./Drivers/STM32H7xx_HAL_Driver/Src/stm32h7xx_hal_flash_ex.c **** 
1329:./Drivers/STM32H7xx_HAL_Driver/Src/stm32h7xx_hal_flash_ex.c ****   /* Configure BOR_LEV option byte */
1330:./Drivers/STM32H7xx_HAL_Driver/Src/stm32h7xx_hal_flash_ex.c ****   MODIFY_REG(FLASH->OPTSR_PRG, FLASH_OPTSR_BOR_LEV, Level);
 2507              		.loc 1 1330 3
 2508 0008 064B     		ldr	r3, .L158
 2509 000a 1B6A     		ldr	r3, [r3, #32]
 2510 000c 23F00C02 		bic	r2, r3, #12
 2511 0010 0449     		ldr	r1, .L158
 2512 0012 7B68     		ldr	r3, [r7, #4]
 2513 0014 1343     		orrs	r3, r3, r2
 2514 0016 0B62     		str	r3, [r1, #32]
1331:./Drivers/STM32H7xx_HAL_Driver/Src/stm32h7xx_hal_flash_ex.c **** }
 2515              		.loc 1 1331 1
 2516 0018 00BF     		nop
 2517 001a 0C37     		adds	r7, r7, #12
 2518              		.cfi_def_cfa_offset 4
 2519 001c BD46     		mov	sp, r7
 2520              		.cfi_def_cfa_register 13
 2521              		@ sp needed
 2522 001e 5DF8047B 		ldr	r7, [sp], #4
 2523              		.cfi_restore 7
 2524              		.cfi_def_cfa_offset 0
 2525 0022 7047     		bx	lr
 2526              	.L159:
 2527              		.align	2
 2528              	.L158:
 2529 0024 00200052 		.word	1375739904
 2530              		.cfi_endproc
 2531              	.LFE154:
 2533              		.section	.text.FLASH_OB_GetBOR,"ax",%progbits
 2534              		.align	1
 2535              		.syntax unified
 2536              		.thumb
 2537              		.thumb_func
 2538              		.fpu fpv5-d16
 2540              	FLASH_OB_GetBOR:
 2541              	.LFB155:
1332:./Drivers/STM32H7xx_HAL_Driver/Src/stm32h7xx_hal_flash_ex.c **** 
1333:./Drivers/STM32H7xx_HAL_Driver/Src/stm32h7xx_hal_flash_ex.c **** /**
1334:./Drivers/STM32H7xx_HAL_Driver/Src/stm32h7xx_hal_flash_ex.c ****   * @brief  Get the BOR Level.
1335:./Drivers/STM32H7xx_HAL_Driver/Src/stm32h7xx_hal_flash_ex.c ****   * @retval The Option Bytes BOR Reset Level.
1336:./Drivers/STM32H7xx_HAL_Driver/Src/stm32h7xx_hal_flash_ex.c ****   *            This parameter can be one of the following values:
1337:./Drivers/STM32H7xx_HAL_Driver/Src/stm32h7xx_hal_flash_ex.c ****   *            @arg OB_BOR_LEVEL0: Reset level threshold is set to 1.6V
1338:./Drivers/STM32H7xx_HAL_Driver/Src/stm32h7xx_hal_flash_ex.c ****   *            @arg OB_BOR_LEVEL1: Reset level threshold is set to 2.1V
1339:./Drivers/STM32H7xx_HAL_Driver/Src/stm32h7xx_hal_flash_ex.c ****   *            @arg OB_BOR_LEVEL2: Reset level threshold is set to 2.4V
1340:./Drivers/STM32H7xx_HAL_Driver/Src/stm32h7xx_hal_flash_ex.c ****   *            @arg OB_BOR_LEVEL3: Reset level threshold is set to 2.7V
1341:./Drivers/STM32H7xx_HAL_Driver/Src/stm32h7xx_hal_flash_ex.c ****   */
1342:./Drivers/STM32H7xx_HAL_Driver/Src/stm32h7xx_hal_flash_ex.c **** static uint32_t FLASH_OB_GetBOR(void)
1343:./Drivers/STM32H7xx_HAL_Driver/Src/stm32h7xx_hal_flash_ex.c **** {
 2542              		.loc 1 1343 1
 2543              		.cfi_startproc
 2544              		@ args = 0, pretend = 0, frame = 0
ARM GAS  /tmp/ccw511VT.s 			page 69


 2545              		@ frame_needed = 1, uses_anonymous_args = 0
 2546              		@ link register save eliminated.
 2547 0000 80B4     		push	{r7}
 2548              		.cfi_def_cfa_offset 4
 2549              		.cfi_offset 7, -4
 2550 0002 00AF     		add	r7, sp, #0
 2551              		.cfi_def_cfa_register 7
1344:./Drivers/STM32H7xx_HAL_Driver/Src/stm32h7xx_hal_flash_ex.c ****   return (FLASH->OPTSR_CUR & FLASH_OPTSR_BOR_LEV);
 2552              		.loc 1 1344 16
 2553 0004 044B     		ldr	r3, .L162
 2554 0006 DB69     		ldr	r3, [r3, #28]
 2555              		.loc 1 1344 28
 2556 0008 03F00C03 		and	r3, r3, #12
1345:./Drivers/STM32H7xx_HAL_Driver/Src/stm32h7xx_hal_flash_ex.c **** }
 2557              		.loc 1 1345 1
 2558 000c 1846     		mov	r0, r3
 2559 000e BD46     		mov	sp, r7
 2560              		.cfi_def_cfa_register 13
 2561              		@ sp needed
 2562 0010 5DF8047B 		ldr	r7, [sp], #4
 2563              		.cfi_restore 7
 2564              		.cfi_def_cfa_offset 0
 2565 0014 7047     		bx	lr
 2566              	.L163:
 2567 0016 00BF     		.align	2
 2568              	.L162:
 2569 0018 00200052 		.word	1375739904
 2570              		.cfi_endproc
 2571              	.LFE155:
 2573              		.section	.text.FLASH_OB_BootAddConfig,"ax",%progbits
 2574              		.align	1
 2575              		.syntax unified
 2576              		.thumb
 2577              		.thumb_func
 2578              		.fpu fpv5-d16
 2580              	FLASH_OB_BootAddConfig:
 2581              	.LFB156:
1346:./Drivers/STM32H7xx_HAL_Driver/Src/stm32h7xx_hal_flash_ex.c **** 
1347:./Drivers/STM32H7xx_HAL_Driver/Src/stm32h7xx_hal_flash_ex.c **** /**
1348:./Drivers/STM32H7xx_HAL_Driver/Src/stm32h7xx_hal_flash_ex.c ****   * @brief  Set Boot address
1349:./Drivers/STM32H7xx_HAL_Driver/Src/stm32h7xx_hal_flash_ex.c ****   * @param  BootOption Boot address option byte to be programmed,
1350:./Drivers/STM32H7xx_HAL_Driver/Src/stm32h7xx_hal_flash_ex.c ****   *                     This parameter must be a value of @ref FLASHEx_OB_BOOT_OPTION
1351:./Drivers/STM32H7xx_HAL_Driver/Src/stm32h7xx_hal_flash_ex.c ****                         (OB_BOOT_ADD0, OB_BOOT_ADD1 or OB_BOOT_ADD_BOTH)
1352:./Drivers/STM32H7xx_HAL_Driver/Src/stm32h7xx_hal_flash_ex.c ****   *
1353:./Drivers/STM32H7xx_HAL_Driver/Src/stm32h7xx_hal_flash_ex.c ****   * @param  BootAddress0 Specifies the Boot Address 0
1354:./Drivers/STM32H7xx_HAL_Driver/Src/stm32h7xx_hal_flash_ex.c ****   * @param  BootAddress1 Specifies the Boot Address 1
1355:./Drivers/STM32H7xx_HAL_Driver/Src/stm32h7xx_hal_flash_ex.c ****   * @retval HAL Status
1356:./Drivers/STM32H7xx_HAL_Driver/Src/stm32h7xx_hal_flash_ex.c ****   */
1357:./Drivers/STM32H7xx_HAL_Driver/Src/stm32h7xx_hal_flash_ex.c **** static void FLASH_OB_BootAddConfig(uint32_t BootOption, uint32_t BootAddress0, uint32_t BootAddress
1358:./Drivers/STM32H7xx_HAL_Driver/Src/stm32h7xx_hal_flash_ex.c **** {
 2582              		.loc 1 1358 1
 2583              		.cfi_startproc
 2584              		@ args = 0, pretend = 0, frame = 16
 2585              		@ frame_needed = 1, uses_anonymous_args = 0
 2586              		@ link register save eliminated.
 2587 0000 80B4     		push	{r7}
 2588              		.cfi_def_cfa_offset 4
ARM GAS  /tmp/ccw511VT.s 			page 70


 2589              		.cfi_offset 7, -4
 2590 0002 85B0     		sub	sp, sp, #20
 2591              		.cfi_def_cfa_offset 24
 2592 0004 00AF     		add	r7, sp, #0
 2593              		.cfi_def_cfa_register 7
 2594 0006 F860     		str	r0, [r7, #12]
 2595 0008 B960     		str	r1, [r7, #8]
 2596 000a 7A60     		str	r2, [r7, #4]
1359:./Drivers/STM32H7xx_HAL_Driver/Src/stm32h7xx_hal_flash_ex.c ****   /* Check the parameters */
1360:./Drivers/STM32H7xx_HAL_Driver/Src/stm32h7xx_hal_flash_ex.c ****   assert_param(IS_OB_BOOT_ADD_OPTION(BootOption));
1361:./Drivers/STM32H7xx_HAL_Driver/Src/stm32h7xx_hal_flash_ex.c **** 
1362:./Drivers/STM32H7xx_HAL_Driver/Src/stm32h7xx_hal_flash_ex.c ****   if((BootOption & OB_BOOT_ADD0) == OB_BOOT_ADD0)
 2597              		.loc 1 1362 18
 2598 000c FB68     		ldr	r3, [r7, #12]
 2599 000e 03F00103 		and	r3, r3, #1
 2600              		.loc 1 1362 5
 2601 0012 002B     		cmp	r3, #0
 2602 0014 08D0     		beq	.L165
1363:./Drivers/STM32H7xx_HAL_Driver/Src/stm32h7xx_hal_flash_ex.c ****   {
1364:./Drivers/STM32H7xx_HAL_Driver/Src/stm32h7xx_hal_flash_ex.c ****     /* Check the parameters */
1365:./Drivers/STM32H7xx_HAL_Driver/Src/stm32h7xx_hal_flash_ex.c ****     assert_param(IS_BOOT_ADDRESS(BootAddress0));
1366:./Drivers/STM32H7xx_HAL_Driver/Src/stm32h7xx_hal_flash_ex.c **** 
1367:./Drivers/STM32H7xx_HAL_Driver/Src/stm32h7xx_hal_flash_ex.c ****     /* Configure CM7 BOOT ADD0 */
1368:./Drivers/STM32H7xx_HAL_Driver/Src/stm32h7xx_hal_flash_ex.c **** #if defined(DUAL_CORE)
1369:./Drivers/STM32H7xx_HAL_Driver/Src/stm32h7xx_hal_flash_ex.c ****     MODIFY_REG(FLASH->BOOT7_PRG, FLASH_BOOT7_BCM7_ADD0, (BootAddress0 >> 16));
1370:./Drivers/STM32H7xx_HAL_Driver/Src/stm32h7xx_hal_flash_ex.c **** #else /* Single Core*/
1371:./Drivers/STM32H7xx_HAL_Driver/Src/stm32h7xx_hal_flash_ex.c ****     MODIFY_REG(FLASH->BOOT_PRG, FLASH_BOOT_ADD0, (BootAddress0 >> 16));
 2603              		.loc 1 1371 5
 2604 0016 0D4B     		ldr	r3, .L168
 2605 0018 5A6C     		ldr	r2, [r3, #68]
 2606 001a 0D4B     		ldr	r3, .L168+4
 2607 001c 1340     		ands	r3, r3, r2
 2608 001e BA68     		ldr	r2, [r7, #8]
 2609 0020 120C     		lsrs	r2, r2, #16
 2610 0022 0A49     		ldr	r1, .L168
 2611 0024 1343     		orrs	r3, r3, r2
 2612 0026 4B64     		str	r3, [r1, #68]
 2613              	.L165:
1372:./Drivers/STM32H7xx_HAL_Driver/Src/stm32h7xx_hal_flash_ex.c **** #endif /* DUAL_CORE */
1373:./Drivers/STM32H7xx_HAL_Driver/Src/stm32h7xx_hal_flash_ex.c ****   }
1374:./Drivers/STM32H7xx_HAL_Driver/Src/stm32h7xx_hal_flash_ex.c **** 
1375:./Drivers/STM32H7xx_HAL_Driver/Src/stm32h7xx_hal_flash_ex.c ****   if((BootOption & OB_BOOT_ADD1) == OB_BOOT_ADD1)
 2614              		.loc 1 1375 18
 2615 0028 FB68     		ldr	r3, [r7, #12]
 2616 002a 03F00203 		and	r3, r3, #2
 2617              		.loc 1 1375 5
 2618 002e 002B     		cmp	r3, #0
 2619 0030 06D0     		beq	.L167
1376:./Drivers/STM32H7xx_HAL_Driver/Src/stm32h7xx_hal_flash_ex.c ****   {
1377:./Drivers/STM32H7xx_HAL_Driver/Src/stm32h7xx_hal_flash_ex.c ****     /* Check the parameters */
1378:./Drivers/STM32H7xx_HAL_Driver/Src/stm32h7xx_hal_flash_ex.c ****     assert_param(IS_BOOT_ADDRESS(BootAddress1));
1379:./Drivers/STM32H7xx_HAL_Driver/Src/stm32h7xx_hal_flash_ex.c **** 
1380:./Drivers/STM32H7xx_HAL_Driver/Src/stm32h7xx_hal_flash_ex.c ****     /* Configure CM7 BOOT ADD1 */
1381:./Drivers/STM32H7xx_HAL_Driver/Src/stm32h7xx_hal_flash_ex.c **** #if defined(DUAL_CORE)
1382:./Drivers/STM32H7xx_HAL_Driver/Src/stm32h7xx_hal_flash_ex.c ****     MODIFY_REG(FLASH->BOOT7_PRG, FLASH_BOOT7_BCM7_ADD1, BootAddress1);
1383:./Drivers/STM32H7xx_HAL_Driver/Src/stm32h7xx_hal_flash_ex.c **** #else /* Single Core*/
1384:./Drivers/STM32H7xx_HAL_Driver/Src/stm32h7xx_hal_flash_ex.c ****     MODIFY_REG(FLASH->BOOT_PRG, FLASH_BOOT_ADD1, BootAddress1);
ARM GAS  /tmp/ccw511VT.s 			page 71


 2620              		.loc 1 1384 5
 2621 0032 064B     		ldr	r3, .L168
 2622 0034 5B6C     		ldr	r3, [r3, #68]
 2623 0036 9AB2     		uxth	r2, r3
 2624 0038 0449     		ldr	r1, .L168
 2625 003a 7B68     		ldr	r3, [r7, #4]
 2626 003c 1343     		orrs	r3, r3, r2
 2627 003e 4B64     		str	r3, [r1, #68]
 2628              	.L167:
1385:./Drivers/STM32H7xx_HAL_Driver/Src/stm32h7xx_hal_flash_ex.c **** #endif /* DUAL_CORE */
1386:./Drivers/STM32H7xx_HAL_Driver/Src/stm32h7xx_hal_flash_ex.c ****   }
1387:./Drivers/STM32H7xx_HAL_Driver/Src/stm32h7xx_hal_flash_ex.c **** }
 2629              		.loc 1 1387 1
 2630 0040 00BF     		nop
 2631 0042 1437     		adds	r7, r7, #20
 2632              		.cfi_def_cfa_offset 4
 2633 0044 BD46     		mov	sp, r7
 2634              		.cfi_def_cfa_register 13
 2635              		@ sp needed
 2636 0046 5DF8047B 		ldr	r7, [sp], #4
 2637              		.cfi_restore 7
 2638              		.cfi_def_cfa_offset 0
 2639 004a 7047     		bx	lr
 2640              	.L169:
 2641              		.align	2
 2642              	.L168:
 2643 004c 00200052 		.word	1375739904
 2644 0050 0000FFFF 		.word	-65536
 2645              		.cfi_endproc
 2646              	.LFE156:
 2648              		.section	.text.FLASH_OB_GetBootAdd,"ax",%progbits
 2649              		.align	1
 2650              		.syntax unified
 2651              		.thumb
 2652              		.thumb_func
 2653              		.fpu fpv5-d16
 2655              	FLASH_OB_GetBootAdd:
 2656              	.LFB157:
1388:./Drivers/STM32H7xx_HAL_Driver/Src/stm32h7xx_hal_flash_ex.c **** 
1389:./Drivers/STM32H7xx_HAL_Driver/Src/stm32h7xx_hal_flash_ex.c **** /**
1390:./Drivers/STM32H7xx_HAL_Driver/Src/stm32h7xx_hal_flash_ex.c ****   * @brief  Get Boot address
1391:./Drivers/STM32H7xx_HAL_Driver/Src/stm32h7xx_hal_flash_ex.c ****   * @param  BootAddress0 Specifies the Boot Address 0.
1392:./Drivers/STM32H7xx_HAL_Driver/Src/stm32h7xx_hal_flash_ex.c ****   * @param  BootAddress1 Specifies the Boot Address 1.
1393:./Drivers/STM32H7xx_HAL_Driver/Src/stm32h7xx_hal_flash_ex.c ****   * @retval HAL Status
1394:./Drivers/STM32H7xx_HAL_Driver/Src/stm32h7xx_hal_flash_ex.c ****   */
1395:./Drivers/STM32H7xx_HAL_Driver/Src/stm32h7xx_hal_flash_ex.c **** static void FLASH_OB_GetBootAdd(uint32_t *BootAddress0, uint32_t *BootAddress1)
1396:./Drivers/STM32H7xx_HAL_Driver/Src/stm32h7xx_hal_flash_ex.c **** {
 2657              		.loc 1 1396 1
 2658              		.cfi_startproc
 2659              		@ args = 0, pretend = 0, frame = 16
 2660              		@ frame_needed = 1, uses_anonymous_args = 0
 2661              		@ link register save eliminated.
 2662 0000 80B4     		push	{r7}
 2663              		.cfi_def_cfa_offset 4
 2664              		.cfi_offset 7, -4
 2665 0002 85B0     		sub	sp, sp, #20
 2666              		.cfi_def_cfa_offset 24
ARM GAS  /tmp/ccw511VT.s 			page 72


 2667 0004 00AF     		add	r7, sp, #0
 2668              		.cfi_def_cfa_register 7
 2669 0006 7860     		str	r0, [r7, #4]
 2670 0008 3960     		str	r1, [r7]
1397:./Drivers/STM32H7xx_HAL_Driver/Src/stm32h7xx_hal_flash_ex.c ****   uint32_t regvalue;
1398:./Drivers/STM32H7xx_HAL_Driver/Src/stm32h7xx_hal_flash_ex.c **** 
1399:./Drivers/STM32H7xx_HAL_Driver/Src/stm32h7xx_hal_flash_ex.c **** #if defined(DUAL_CORE)
1400:./Drivers/STM32H7xx_HAL_Driver/Src/stm32h7xx_hal_flash_ex.c ****   regvalue = FLASH->BOOT7_CUR;
1401:./Drivers/STM32H7xx_HAL_Driver/Src/stm32h7xx_hal_flash_ex.c **** 
1402:./Drivers/STM32H7xx_HAL_Driver/Src/stm32h7xx_hal_flash_ex.c ****   (*BootAddress0) = (regvalue & FLASH_BOOT7_BCM7_ADD0) << 16;
1403:./Drivers/STM32H7xx_HAL_Driver/Src/stm32h7xx_hal_flash_ex.c ****   (*BootAddress1) = (regvalue & FLASH_BOOT7_BCM7_ADD1);
1404:./Drivers/STM32H7xx_HAL_Driver/Src/stm32h7xx_hal_flash_ex.c **** #else /* Single Core */
1405:./Drivers/STM32H7xx_HAL_Driver/Src/stm32h7xx_hal_flash_ex.c ****   regvalue = FLASH->BOOT_CUR;
 2671              		.loc 1 1405 19
 2672 000a 094B     		ldr	r3, .L171
 2673              		.loc 1 1405 12
 2674 000c 1B6C     		ldr	r3, [r3, #64]
 2675 000e FB60     		str	r3, [r7, #12]
1406:./Drivers/STM32H7xx_HAL_Driver/Src/stm32h7xx_hal_flash_ex.c **** 
1407:./Drivers/STM32H7xx_HAL_Driver/Src/stm32h7xx_hal_flash_ex.c ****   (*BootAddress0) = (regvalue & FLASH_BOOT_ADD0) << 16;
 2676              		.loc 1 1407 50
 2677 0010 FB68     		ldr	r3, [r7, #12]
 2678 0012 1A04     		lsls	r2, r3, #16
 2679              		.loc 1 1407 19
 2680 0014 7B68     		ldr	r3, [r7, #4]
 2681 0016 1A60     		str	r2, [r3]
